   1              		.file	"main.c"
   2              		.section	.rodata.str1.1,"aMS",%progbits,1
   3              	.LC1:
   4 0000 62757474 		.ascii	"button 8 pressed\012\000"
   4      6F6E2038 
   4      20707265 
   4      73736564 
   4      0A00
   5              	.LC2:
   6 0012 62757474 		.ascii	"button 7 pressed\012\000"
   6      6F6E2037 
   6      20707265 
   6      73736564 
   6      0A00
   7              	.LC3:
   8 0024 62757474 		.ascii	"button 6 pressed\012\000"
   8      6F6E2036 
   8      20707265 
   8      73736564 
   8      0A00
   9              	.LC4:
  10 0036 62757474 		.ascii	"button 5 pressed\012\000"
  10      6F6E2035 
  10      20707265 
  10      73736564 
  10      0A00
  11              	.LC5:
  12 0048 62757474 		.ascii	"button4\012\000"
  12      6F6E340A 
  12      00
  13              	.LC6:
  14 0051 62757474 		.ascii	"button3\012\000"
  14      6F6E330A 
  14      00
  15              	.LC7:
  16 005a 70617573 		.ascii	"paused = %d\012\000"
  16      6564203D 
  16      2025640A 
  16      00
  17              	.LC8:
  18 0067 62757474 		.ascii	"button 2\012\000"
  18      6F6E2032 
  18      0A00
  19              	.LC9:
  20 0071 20202020 		.ascii	"    %s(): Sending song-name to Queue ...\012\000"
  20      25732829 
  20      3A205365 
  20      6E64696E 
  20      6720736F 
  21              	.LC10:
  22 009b 20202020 		.ascii	"    Song Sent!\012\000"
  22      536F6E67 
  22      2053656E 
  22      74210A00 
  23              	.LC11:
  24 00ab 62757474 		.ascii	"button 1\012\000"
  24      6F6E2031 
  24      0A00
  25              	.LC12:
  26 00b5 53656E74 		.ascii	"Sent Previous!\012\000"
  26      20507265 
  26      76696F75 
  26      73210A00 
  27              	.LC13:
  28 00c5 54696D65 		.ascii	"Timeout during Send!!!\012\000"
  28      6F757420 
  28      64757269 
  28      6E672053 
  28      656E6421 
  29              	.LC14:
  30 00dd 53656E74 		.ascii	"Sent Previous songname!\012\000"
  30      20507265 
  30      76696F75 
  30      7320736F 
  30      6E676E61 
  31              	.LC15:
  32 00f6 4F6E6520 		.ascii	"One button at a time, please...\012\000"
  32      62757474 
  32      6F6E2061 
  32      74206120 
  32      74696D65 
  33              		.section	.rodata
  34              	.LC0:
  35 0000 45537061 		.ascii	"ESpark.mp3\000"
  35      726B2E6D 
  35      703300
  36 000b 00000000 		.space	4
  37              		.text
  38              		.align	2
  39              		.global	buttonHandler
  41              	buttonHandler:
  42              		@ args = 0, pretend = 0, frame = 24
  43              		@ frame_needed = 0, uses_anonymous_args = 0
  44 0000 F0452DE9 		stmfd	sp!, {r4, r5, r6, r7, r8, sl, lr}
  45 0004 18D04DE2 		sub	sp, sp, #24
  46 0008 01508DE2 		add	r5, sp, #1
  47 000c 0040A0E3 		mov	r4, #0
  48 0010 90119FE5 		ldr	r1, .L26
  49 0014 0B20A0E3 		mov	r2, #11
  50 0018 0060A0E1 		mov	r6, r0
  51 001c 0500A0E1 		mov	r0, r5
  52 0020 1740CDE5 		strb	r4, [sp, #23]
  53 0024 FEFFFFEB 		bl	memcpy
  54 0028 0410A0E1 		mov	r1, r4
  55 002c 0C008DE2 		add	r0, sp, #12
  56 0030 0420A0E3 		mov	r2, #4
  57 0034 FEFFFFEB 		bl	memset
  58 0038 6C419FE5 		ldr	r4, .L26+4
  59 003c 05A0A0E1 		mov	sl, r5
  60 0040 5080A0E3 		mov	r8, #80
  61 0044 17708DE2 		add	r7, sp, #23
  62 0048 10508DE2 		add	r5, sp, #16
  63              	.L20:
  64 004c C800A0E3 		mov	r0, #200
  65 0050 FEFFFFEB 		bl	vTaskDelay
  66 0054 4000A0E3 		mov	r0, #64
  67 0058 0110A0E3 		mov	r1, #1
  68 005c FEFFFFEB 		bl	i2cReadDeviceRegister
  69 0060 FF0010E2 		ands	r0, r0, #255
  70 0064 F8FFFF0A 		beq	.L20
  71 0068 080050E3 		cmp	r0, #8
  72 006c 3C019F05 		ldreq	r0, .L26+8
  73 0070 4A00000A 		beq	.L21
  74 0074 0800008A 		bhi	.L12
  75 0078 020050E3 		cmp	r0, #2
  76 007c 30019F05 		ldreq	r0, .L26+12
  77 0080 4600000A 		beq	.L21
  78 0084 040050E3 		cmp	r0, #4
  79 0088 28019F05 		ldreq	r0, .L26+16
  80 008c 4300000A 		beq	.L21
  81 0090 010050E3 		cmp	r0, #1
  82 0094 4000001A 		bne	.L3
  83 0098 0A0000EA 		b	.L23
  84              	.L12:
  85 009c 200050E3 		cmp	r0, #32
  86 00a0 0C00000A 		beq	.L9
  87 00a4 0200008A 		bhi	.L13
  88 00a8 100050E3 		cmp	r0, #16
  89 00ac 3A00001A 		bne	.L3
  90 00b0 060000EA 		b	.L24
  91              	.L13:
  92 00b4 400050E3 		cmp	r0, #64
  93 00b8 0F00000A 		beq	.L10
  94 00bc 800050E3 		cmp	r0, #128
  95 00c0 3500001A 		bne	.L3
  96 00c4 1A0000EA 		b	.L25
  97              	.L23:
  98 00c8 EC009FE5 		ldr	r0, .L26+20
  99 00cc 330000EA 		b	.L21
 100              	.L24:
 101 00d0 E8009FE5 		ldr	r0, .L26+24
 102 00d4 310000EA 		b	.L21
 103              	.L9:
 104 00d8 E4009FE5 		ldr	r0, .L26+28
 105 00dc FEFFFFEB 		bl	rprintf
 106 00e0 003094E5 		ldr	r3, [r4, #0]
 107 00e4 013023E2 		eor	r3, r3, #1
 108 00e8 0310A0E1 		mov	r1, r3
 109 00ec D4009FE5 		ldr	r0, .L26+32
 110 00f0 003084E5 		str	r3, [r4, #0]
 111 00f4 FEFFFFEB 		bl	rprintf
 112 00f8 D3FFFFEA 		b	.L20
 113              	.L10:
 114 00fc C8009FE5 		ldr	r0, .L26+36
 115 0100 FEFFFFEB 		bl	rprintf
 116 0104 C4009FE5 		ldr	r0, .L26+40
 117 0108 C4109FE5 		ldr	r1, .L26+44
 118 010c FEFFFFEB 		bl	rprintf
 119 0110 000096E5 		ldr	r0, [r6, #0]
 120 0114 0A10A0E1 		mov	r1, sl
 121 0118 6420A0E3 		mov	r2, #100
 122 011c 0030A0E3 		mov	r3, #0
 123 0120 FEFFFFEB 		bl	xQueueGenericSend
 124 0124 000050E3 		cmp	r0, #0
 125 0128 A8009F15 		ldrne	r0, .L26+48
 126 012c C6FFFF0A 		beq	.L20
 127 0130 1A0000EA 		b	.L21
 128              	.L25:
 129 0134 A0009FE5 		ldr	r0, .L26+52
 130 0138 FEFFFFEB 		bl	rprintf
 131 013c 6420A0E3 		mov	r2, #100
 132 0140 0030A0E3 		mov	r3, #0
 133 0144 0710A0E1 		mov	r1, r7
 134 0148 040096E5 		ldr	r0, [r6, #4]
 135 014c 1780CDE5 		strb	r8, [sp, #23]
 136 0150 FEFFFFEB 		bl	xQueueGenericSend
 137 0154 000050E3 		cmp	r0, #0
 138 0158 80009F15 		ldrne	r0, .L26+56
 139 015c 80009F05 		ldreq	r0, .L26+60
 140 0160 FEFFFFEB 		bl	rprintf
 141 0164 3200A0E3 		mov	r0, #50
 142 0168 FEFFFFEB 		bl	vTaskDelay
 143 016c 1700DDE5 		ldrb	r0, [sp, #23]	@ zero_extendqisi2
 144 0170 10109DE5 		ldr	r1, [sp, #16]
 145 0174 FEFFFFEB 		bl	retGlobals
 146 0178 000096E5 		ldr	r0, [r6, #0]
 147 017c 0510A0E1 		mov	r1, r5
 148 0180 6420A0E3 		mov	r2, #100
 149 0184 0030A0E3 		mov	r3, #0
 150 0188 FEFFFFEB 		bl	xQueueGenericSend
 151 018c 000050E3 		cmp	r0, #0
 152 0190 50009F15 		ldrne	r0, .L26+64
 153 0194 48009F05 		ldreq	r0, .L26+60
 154 0198 000000EA 		b	.L21
 155              	.L3:
 156 019c 48009FE5 		ldr	r0, .L26+68
 157              	.L21:
 158 01a0 FEFFFFEB 		bl	rprintf
 159 01a4 A8FFFFEA 		b	.L20
 160              	.L27:
 161              		.align	2
 162              	.L26:
 163 01a8 00000000 		.word	.LC0
 164 01ac 00000000 		.word	paused
 165 01b0 36000000 		.word	.LC4
 166 01b4 12000000 		.word	.LC2
 167 01b8 24000000 		.word	.LC3
 168 01bc 00000000 		.word	.LC1
 169 01c0 48000000 		.word	.LC5
 170 01c4 51000000 		.word	.LC6
 171 01c8 5A000000 		.word	.LC7
 172 01cc 67000000 		.word	.LC8
 173 01d0 71000000 		.word	.LC9
 174 01d4 0F000000 		.word	__FUNCTION__.2025
 175 01d8 9B000000 		.word	.LC10
 176 01dc AB000000 		.word	.LC11
 177 01e0 B5000000 		.word	.LC12
 178 01e4 C5000000 		.word	.LC13
 179 01e8 DD000000 		.word	.LC14
 180 01ec F6000000 		.word	.LC15
 182              		.section	.rodata.str1.1
 183              	.LC16:
 184 0117 53595354 		.ascii	"SYSTEM CRASH!\012\000"
 184      454D2043 
 184      52415348 
 184      210A00
 185              	.LC17:
 186 0126 6D616465 		.ascii	"made it here\012\000"
 186      20697420 
 186      68657265 
 186      0A00
 187              	.LC18:
 188 0134 55617274 		.ascii	"Uart UI\000"
 188      20554900 
 189              	.LC19:
 190 013c 4474696D 		.ascii	"Dtimer\000"
 190      657200
 191              	.LC20:
 192 0143 6D703370 		.ascii	"mp3player\000"
 192      6C617965 
 192      7200
 193              	.LC21:
 194 014d 62757474 		.ascii	"buttonHandler\000"
 194      6F6E4861 
 194      6E646C65 
 194      7200
 195              	.LC22:
 196 015b 4552524F 		.ascii	"ERROR:  OUT OF MEMORY: Check OS Stack Size or task "
 196      523A2020 
 196      4F555420 
 196      4F46204D 
 196      454D4F52 
 197 018e 73746163 		.ascii	"stack size.\012\000"
 197      6B207369 
 197      7A652E0A 
 197      00
 198              	.LC23:
 199 019b 0A2D2D20 		.ascii	"\012-- Starting FreeRTOS --\012\000"
 199      53746172 
 199      74696E67 
 199      20467265 
 199      6552544F 
 200              	.LC24:
 201 01b5 4552524F 		.ascii	"ERROR: Unexpected OS Exit!\012\000"
 201      523A2055 
 201      6E657870 
 201      65637465 
 201      64204F53 
 202              		.text
 203              		.align	2
 204              		.global	main
 206              	main:
 207              		@ args = 0, pretend = 0, frame = 40
 208              		@ frame_needed = 0, uses_anonymous_args = 0
 209 01f0 70402DE9 		stmfd	sp!, {r4, r5, r6, lr}
 210 01f4 38D04DE2 		sub	sp, sp, #56
 211 01f8 FEFFFFEB 		bl	cpuSetupHardware
 212 01fc 68019FE5 		ldr	r0, .L33
 213 0200 FEFFFFEB 		bl	watchdogDelayUs
 214 0204 011CA0E3 		mov	r1, #256
 215 0208 960CA0E3 		mov	r0, #38400
 216 020c FEFFFFEB 		bl	uart0Init
 217 0210 58019FE5 		ldr	r0, .L33+4
 218 0214 FEFFFFEB 		bl	rprintf_devopen
 219 0218 FEFFFFEB 		bl	didSystemCrash
 220 021c 000050E3 		cmp	r0, #0
 221 0220 0300000A 		beq	.L29
 222 0224 48019FE5 		ldr	r0, .L33+8
 223 0228 FEFFFFEB 		bl	rprintf
 224 022c FEFFFFEB 		bl	printCrashInfo
 225 0230 FEFFFFEB 		bl	clearCrashInfo
 226              	.L29:
 227 0234 FEFFFFEB 		bl	cpuPrintMemoryInfo
 228 0238 38019FE5 		ldr	r0, .L33+12
 229 023c FEFFFFEB 		bl	rprintf_devopen
 230 0240 FEFFFFEB 		bl	xQueueCreateMutex
 231 0244 0F10A0E3 		mov	r1, #15
 232 0248 30008DE5 		str	r0, [sp, #48]
 233 024c 0100A0E3 		mov	r0, #1
 234 0250 FEFFFFEB 		bl	xQueueCreate
 235 0254 10008DE5 		str	r0, [sp, #16]
 236 0258 0100A0E3 		mov	r0, #1
 237 025c 0010A0E1 		mov	r1, r0
 238 0260 FEFFFFEB 		bl	xQueueCreate
 239 0264 10508DE2 		add	r5, sp, #16
 240 0268 14008DE5 		str	r0, [sp, #20]
 241 026c 08019FE5 		ldr	r0, .L33+16
 242 0270 FEFFFFEB 		bl	rprintf
 243 0274 0060A0E3 		mov	r6, #0
 244 0278 01C0A0E3 		mov	ip, #1
 245 027c 084085E2 		add	r4, r5, #8
 246 0280 F8009FE5 		ldr	r0, .L33+20
 247 0284 F8109FE5 		ldr	r1, .L33+24
 248 0288 062CA0E3 		mov	r2, #1536
 249 028c 0530A0E1 		mov	r3, r5
 250 0290 00C08DE5 		str	ip, [sp, #0]
 251 0294 50008DE9 		stmib	sp, {r4, r6}	@ phole stm
 252 0298 0C608DE5 		str	r6, [sp, #12]
 253 029c FEFFFFEB 		bl	xTaskGenericCreate
 254 02a0 010050E3 		cmp	r0, #1
 255 02a4 2400001A 		bne	.L30
 256 02a8 0CE085E2 		add	lr, r5, #12
 257 02ac 04C0A0E3 		mov	ip, #4
 258 02b0 D0009FE5 		ldr	r0, .L33+28
 259 02b4 D0109FE5 		ldr	r1, .L33+32
 260 02b8 4020A0E3 		mov	r2, #64
 261 02bc 0530A0E1 		mov	r3, r5
 262 02c0 00508DE8 		stmia	sp, {ip, lr}	@ phole stm
 263 02c4 08608DE5 		str	r6, [sp, #8]
 264 02c8 0C608DE5 		str	r6, [sp, #12]
 265 02cc FEFFFFEB 		bl	xTaskGenericCreate
 266 02d0 010050E3 		cmp	r0, #1
 267 02d4 1800001A 		bne	.L30
 268 02d8 1CE085E2 		add	lr, r5, #28
 269 02dc 03C0A0E3 		mov	ip, #3
 270 02e0 A8009FE5 		ldr	r0, .L33+36
 271 02e4 A8109FE5 		ldr	r1, .L33+40
 272 02e8 012BA0E3 		mov	r2, #1024
 273 02ec 0530A0E1 		mov	r3, r5
 274 02f0 00508DE8 		stmia	sp, {ip, lr}	@ phole stm
 275 02f4 08608DE5 		str	r6, [sp, #8]
 276 02f8 0C608DE5 		str	r6, [sp, #12]
 277 02fc FEFFFFEB 		bl	xTaskGenericCreate
 278 0300 010050E3 		cmp	r0, #1
 279 0304 00E0A0E1 		mov	lr, r0
 280 0308 0B00001A 		bne	.L30
 281 030c 18C085E2 		add	ip, r5, #24
 282 0310 0530A0E1 		mov	r3, r5
 283 0314 7C009FE5 		ldr	r0, .L33+44
 284 0318 7C109FE5 		ldr	r1, .L33+48
 285 031c 022CA0E3 		mov	r2, #512
 286 0320 00E08DE5 		str	lr, [sp, #0]
 287 0324 04C08DE5 		str	ip, [sp, #4]
 288 0328 0C608DE5 		str	r6, [sp, #12]
 289 032c 08608DE5 		str	r6, [sp, #8]
 290 0330 FEFFFFEB 		bl	xTaskGenericCreate
 291 0334 010050E3 		cmp	r0, #1
 292 0338 0100000A 		beq	.L31
 293              	.L30:
 294 033c 5C009FE5 		ldr	r0, .L33+52
 295 0340 FEFFFFEB 		bl	rprintf
 296              	.L31:
 297 0344 58009FE5 		ldr	r0, .L33+56
 298 0348 FEFFFFEB 		bl	rprintf
 299 034c FEFFFFEB 		bl	vTaskStartScheduler
 300 0350 18009FE5 		ldr	r0, .L33+4
 301 0354 FEFFFFEB 		bl	rprintf_devopen
 302 0358 48009FE5 		ldr	r0, .L33+60
 303 035c FEFFFFEB 		bl	rprintf
 304 0360 0000A0E3 		mov	r0, #0
 305 0364 38D08DE2 		add	sp, sp, #56
 306 0368 7080BDE8 		ldmfd	sp!, {r4, r5, r6, pc}
 307              	.L34:
 308              		.align	2
 309              	.L33:
 310 036c 80841E00 		.word	2000000
 311 0370 00000000 		.word	uart0PutCharPolling
 312 0374 17010000 		.word	.LC16
 313 0378 00000000 		.word	uart0PutChar
 314 037c 26010000 		.word	.LC17
 315 0380 00000000 		.word	uartUI
 316 0384 34010000 		.word	.LC18
 317 0388 00000000 		.word	diskTimer
 318 038c 3C010000 		.word	.LC19
 319 0390 00000000 		.word	mp3player
 320 0394 43010000 		.word	.LC20
 321 0398 00000000 		.word	buttonHandler
 322 039c 4D010000 		.word	.LC21
 323 03a0 5B010000 		.word	.LC22
 324 03a4 9B010000 		.word	.LC23
 325 03a8 B5010000 		.word	.LC24
 327              		.section	.rodata.str1.1
 328              	.LC25:
 329 01d1 6D703370 		.ascii	"mp3player()\000"
 329      6C617965 
 329      72282900 
 330              	.LC26:
 331 01dd 534F4E47 		.ascii	"SONG RECEIVED: %s\012\000"
 331      20524543 
 331      45495645 
 331      443A2025 
 331      730A00
 332              	.LC27:
 333 01f0 46696C65 		.ascii	"File opened, about to play %s\012\000"
 333      206F7065 
 333      6E65642C 
 333      2061626F 
 333      75742074 
 334              	.LC28:
 335 020f 73756363 		.ascii	"successful read\012\000"
 335      65737366 
 335      756C2072 
 335      6561640A 
 335      00
 336              	.LC29:
 337 0220 2A2A2A2A 		.ascii	"***** Playing mp3 ***** n\000"
 337      2A20506C 
 337      6179696E 
 337      67206D70 
 337      33202A2A 
 338              	.LC30:
 339 023a 4572726F 		.ascii	"Error taking SPI semaphore while playing mp3\012\000"
 339      72207461 
 339      6B696E67 
 339      20535049 
 339      2073656D 
 340              	.LC31:
 341 0268 436F756C 		.ascii	"Couldn't open file!\012\000"
 341      646E2774 
 341      206F7065 
 341      6E206669 
 341      6C65210A 
 342              		.text
 343              		.align	2
 344              		.global	mp3player
 346              	mp3player:
 347              		@ args = 0, pretend = 0, frame = 2616
 348              		@ frame_needed = 0, uses_anonymous_args = 0
 349 03ac F0472DE9 		stmfd	sp!, {r4, r5, r6, r7, r8, r9, sl, lr}
 350 03b0 A3DE4DE2 		sub	sp, sp, #2608
 351 03b4 08D04DE2 		sub	sp, sp, #8
 352 03b8 0070A0E1 		mov	r7, r0
 353 03bc 4C019FE5 		ldr	r0, .L52
 354 03c0 FEFFFFEB 		bl	rprintf
 355 03c4 08608DE2 		add	r6, sp, #8
 356 03c8 A39E8DE2 		add	r9, sp, #2608
 357 03cc 40819FE5 		ldr	r8, .L52+4
 358 03d0 086046E2 		sub	r6, r6, #8
 359 03d4 049089E2 		add	r9, r9, #4
 360 03d8 02A2A0E3 		mov	sl, #536870912
 361              	.L49:
 362 03dc A24E8DE2 		add	r4, sp, #2592
 363 03e0 054084E2 		add	r4, r4, #5
 364 03e4 000097E5 		ldr	r0, [r7, #0]
 365 03e8 0410A0E1 		mov	r1, r4
 366 03ec 0020E0E3 		mvn	r2, #0
 367 03f0 0030A0E3 		mov	r3, #0
 368 03f4 FEFFFFEB 		bl	xQueueGenericReceive
 369 03f8 000050E3 		cmp	r0, #0
 370 03fc F6FFFF0A 		beq	.L49
 371 0400 10019FE5 		ldr	r0, .L52+8
 372 0404 0410A0E1 		mov	r1, r4
 373 0408 025B8DE2 		add	r5, sp, #2048
 374 040c FEFFFFEB 		bl	rprintf
 375 0410 0500A0E1 		mov	r0, r5
 376 0414 0410A0E1 		mov	r1, r4
 377 0418 0120A0E3 		mov	r2, #1
 378 041c FEFFFFEB 		bl	f_open
 379 0420 000050E3 		cmp	r0, #0
 380 0424 3600001A 		bne	.L37
 381 0428 0410A0E1 		mov	r1, r4
 382 042c E8009FE5 		ldr	r0, .L52+12
 383 0430 FEFFFFEB 		bl	rprintf
 384 0434 023BA0E3 		mov	r3, #2048
 385 0438 343A8DE5 		str	r3, [sp, #2612]
 386 043c 2A0000EA 		b	.L50
 387              	.L43:
 388 0440 0500A0E1 		mov	r0, r5
 389 0444 0610A0E1 		mov	r1, r6
 390 0448 0930A0E1 		mov	r3, r9
 391 044c FEFFFFEB 		bl	f_read
 392 0450 004050E2 		subs	r4, r0, #0
 393 0454 2400001A 		bne	.L50
 394 0458 C0009FE5 		ldr	r0, .L52+16
 395 045c FEFFFFEB 		bl	rprintf
 396 0460 200097E5 		ldr	r0, [r7, #32]
 397 0464 0410A0E1 		mov	r1, r4
 398 0468 FA2FA0E3 		mov	r2, #1000
 399 046c 0430A0E1 		mov	r3, r4
 400 0470 FEFFFFEB 		bl	xQueueGenericReceive
 401 0474 000050E3 		cmp	r0, #0
 402 0478 1900000A 		beq	.L39
 403 047c A0009FE5 		ldr	r0, .L52+20
 404 0480 FEFFFFEB 		bl	rprintf
 405 0484 14A088E5 		str	sl, [r8, #20]
 406 0488 070000EA 		b	.L51
 407              	.L42:
 408 048c 003098E5 		ldr	r3, [r8, #0]
 409 0490 020913E3 		tst	r3, #32768
 410 0494 0300000A 		beq	.L41
 411 0498 380A52E5 		ldrb	r0, [r2, #-2616]	@ zero_extendqisi2
 412 049c 014084E2 		add	r4, r4, #1
 413 04a0 FEFFFFEB 		bl	rxTxByteSSPSPI
 414 04a4 000000EA 		b	.L51
 415              	.L41:
 416 04a8 FEFFFFEB 		bl	vTaskDelay
 417              	.L51:
 418 04ac A33E8DE2 		add	r3, sp, #2608
 419 04b0 083083E2 		add	r3, r3, #8
 420 04b4 042083E0 		add	r2, r3, r4
 421 04b8 343A9DE5 		ldr	r3, [sp, #2612]
 422 04bc 030054E1 		cmp	r4, r3
 423 04c0 0100A0E3 		mov	r0, #1
 424 04c4 F0FFFFBA 		blt	.L42
 425 04c8 0010A0E3 		mov	r1, #0
 426 04cc 200097E5 		ldr	r0, [r7, #32]
 427 04d0 0120A0E1 		mov	r2, r1
 428 04d4 0130A0E1 		mov	r3, r1
 429 04d8 1CA088E5 		str	sl, [r8, #28]
 430 04dc FEFFFFEB 		bl	xQueueGenericSend
 431 04e0 010000EA 		b	.L50
 432              	.L39:
 433 04e4 3C009FE5 		ldr	r0, .L52+24
 434 04e8 FEFFFFEB 		bl	rprintf
 435              	.L50:
 436 04ec 342A9DE5 		ldr	r2, [sp, #2612]
 437 04f0 020B52E3 		cmp	r2, #2048
 438 04f4 D1FFFF0A 		beq	.L43
 439 04f8 0500A0E1 		mov	r0, r5
 440 04fc FEFFFFEB 		bl	f_close
 441 0500 B5FFFFEA 		b	.L49
 442              	.L37:
 443 0504 20009FE5 		ldr	r0, .L52+28
 444 0508 FEFFFFEB 		bl	rprintf
 445 050c B2FFFFEA 		b	.L49
 446              	.L53:
 447              		.align	2
 448              	.L52:
 449 0510 D1010000 		.word	.LC25
 450 0514 008002E0 		.word	-536707072
 451 0518 DD010000 		.word	.LC26
 452 051c F0010000 		.word	.LC27
 453 0520 0F020000 		.word	.LC28
 454 0524 20020000 		.word	.LC29
 455 0528 3A020000 		.word	.LC30
 456 052c 68020000 		.word	.LC31
 458              		.align	2
 459              		.global	diskTimer
 461              	diskTimer:
 462              		@ args = 0, pretend = 0, frame = 0
 463              		@ frame_needed = 0, uses_anonymous_args = 0
 464 0530 04E02DE5 		str	lr, [sp, #-4]!
 465              	.L55:
 466 0534 0A00A0E3 		mov	r0, #10
 467 0538 FEFFFFEB 		bl	vTaskDelay
 468 053c FEFFFFEB 		bl	disk_timerproc
 469 0540 FBFFFFEA 		b	.L55
 471              		.global	paused
 472              		.bss
 473              		.align	2
 476              	paused:
 477 0000 00000000 		.space	4
 478              		.section	.rodata
 481              	__FUNCTION__.2025:
 482 000f 62757474 		.ascii	"buttonHandler\000"
 482      6F6E4861 
 482      6E646C65 
 482      7200
 483              		.ident	"GCC: (GNU) 4.3.2"
DEFINED SYMBOLS
                            *ABS*:00000000 main.c
/cygdrive/c/DOCUME~1/ADMINI~1/LOCALS~1/Temp/ccIhaGVk.s:41     .text:00000000 buttonHandler
/cygdrive/c/DOCUME~1/ADMINI~1/LOCALS~1/Temp/ccIhaGVk.s:44     .text:00000000 $a
/cygdrive/c/DOCUME~1/ADMINI~1/LOCALS~1/Temp/ccIhaGVk.s:163    .text:000001a8 $d
/cygdrive/c/DOCUME~1/ADMINI~1/LOCALS~1/Temp/ccIhaGVk.s:476    .bss:00000000 paused
/cygdrive/c/DOCUME~1/ADMINI~1/LOCALS~1/Temp/ccIhaGVk.s:481    .rodata:0000000f __FUNCTION__.2025
/cygdrive/c/DOCUME~1/ADMINI~1/LOCALS~1/Temp/ccIhaGVk.s:206    .text:000001f0 main
/cygdrive/c/DOCUME~1/ADMINI~1/LOCALS~1/Temp/ccIhaGVk.s:209    .text:000001f0 $a
/cygdrive/c/DOCUME~1/ADMINI~1/LOCALS~1/Temp/ccIhaGVk.s:310    .text:0000036c $d
/cygdrive/c/DOCUME~1/ADMINI~1/LOCALS~1/Temp/ccIhaGVk.s:461    .text:00000530 diskTimer
/cygdrive/c/DOCUME~1/ADMINI~1/LOCALS~1/Temp/ccIhaGVk.s:346    .text:000003ac mp3player
/cygdrive/c/DOCUME~1/ADMINI~1/LOCALS~1/Temp/ccIhaGVk.s:349    .text:000003ac $a
/cygdrive/c/DOCUME~1/ADMINI~1/LOCALS~1/Temp/ccIhaGVk.s:449    .text:00000510 $d
/cygdrive/c/DOCUME~1/ADMINI~1/LOCALS~1/Temp/ccIhaGVk.s:464    .text:00000530 $a
                             .bss:00000000 $d

UNDEFINED SYMBOLS
memcpy
memset
vTaskDelay
i2cReadDeviceRegister
rprintf
xQueueGenericSend
retGlobals
cpuSetupHardware
watchdogDelayUs
uart0Init
rprintf_devopen
didSystemCrash
printCrashInfo
clearCrashInfo
cpuPrintMemoryInfo
xQueueCreateMutex
xQueueCreate
xTaskGenericCreate
vTaskStartScheduler
uart0PutCharPolling
uart0PutChar
uartUI
xQueueGenericReceive
f_open
f_read
rxTxByteSSPSPI
f_close
disk_timerproc
