
lpc2148_FreeRTOS_v6_SD_MP3.elf:     file format elf32-littlearm

Sections:
Idx Name          Size      VMA       LMA       File off  Algn
  0 startup       00000168  00001000  00001000  00001000  2**2
                  CONTENTS, ALLOC, LOAD, READONLY, CODE
  1 prog          0000fa2c  00001168  00001168  00001168  2**2
                  CONTENTS, ALLOC, LOAD, READONLY, CODE
  2 .intvects     00000040  40000000  00010b94  00018000  2**2
                  CONTENTS, ALLOC, LOAD, READONLY, CODE
  3 .protected    00000078  40000040  40000040  00018918  2**2
                  CONTENTS, READONLY
  4 .data         00000860  400000b8  00010bd4  000180b8  2**2
                  CONTENTS, ALLOC, LOAD, DATA
  5 .bss          00000200  40000918  40000918  00018918  2**2
                  ALLOC
  6 .ARM.attributes 00000010  00000000  00000000  00018990  2**0
                  CONTENTS, READONLY
  7 .comment      0000044a  00000000  00000000  000189a0  2**0
                  CONTENTS, READONLY
  8 .debug_frame  00000868  00000000  00000000  00018dec  2**2
                  CONTENTS, READONLY, DEBUGGING
  9 .debug_line   00002a02  00000000  00000000  00019654  2**0
                  CONTENTS, READONLY, DEBUGGING
 10 .debug_info   0000eec2  00000000  00000000  0001c056  2**0
                  CONTENTS, READONLY, DEBUGGING
 11 .debug_abbrev 00002f08  00000000  00000000  0002af18  2**0
                  CONTENTS, READONLY, DEBUGGING
 12 .debug_aranges 00000480  00000000  00000000  0002de20  2**3
                  CONTENTS, READONLY, DEBUGGING
 13 .debug_loc    00004981  00000000  00000000  0002e2a0  2**0
                  CONTENTS, READONLY, DEBUGGING
 14 .debug_pubnames 0000069d  00000000  00000000  00032c21  2**0
                  CONTENTS, READONLY, DEBUGGING
 15 .debug_ranges 00000450  00000000  00000000  000332be  2**0
                  CONTENTS, READONLY, DEBUGGING
 16 .debug_str    000013e6  00000000  00000000  0003370e  2**0
                  CONTENTS, READONLY, DEBUGGING

Disassembly of section startup:

00001000 <__start_of_startup__>:
    1000:	e59ff018 	ldr	pc, [pc, #24]	; 1020 <_start>
    1004:	e59ff018 	ldr	pc, [pc, #24]	; 1024 <_undf>
    1008:	e59ff018 	ldr	pc, [pc, #24]	; 1028 <_swi>
    100c:	e59ff018 	ldr	pc, [pc, #24]	; 102c <_pabt>
    1010:	e59ff018 	ldr	pc, [pc, #24]	; 1030 <_dabt>
    1014:	e59ff004 	ldr	pc, [pc, #4]	; 1020 <_start>
    1018:	e51ffff0 	ldr	pc, [pc, #-4080]	; 30 <FIQ_STACK_SIZE+0x10>
    101c:	e59ff010 	ldr	pc, [pc, #16]	; 1034 <_fiq>

00001020 <_start>:
    1020:	00001168 	.word	0x00001168

00001024 <_undf>:
    1024:	00001038 	.word	0x00001038

00001028 <_swi>:
    1028:	00001074 	.word	0x00001074

0000102c <_pabt>:
    102c:	0000104c 	.word	0x0000104c

00001030 <_dabt>:
    1030:	00001060 	.word	0x00001060

00001034 <_fiq>:
    1034:	000071b4 	.word	0x000071b4

00001038 <__undf>:
    1038:	e59fd104 	ldr	sp, [pc, #260]	; 1144 <.sysreset+0x50>
    103c:	e88d1fff 	stm	sp, {r0, r1, r2, r3, r4, r5, r6, r7, r8, r9, sl, fp, ip}
    1040:	e24e0004 	sub	r0, lr, #4	; 0x4
    1044:	e3a01000 	mov	r1, #0	; 0x0
    1048:	ea00000a 	b	1078 <.abtstore>

0000104c <__pabt>:
    104c:	e59fd0f0 	ldr	sp, [pc, #240]	; 1144 <.sysreset+0x50>
    1050:	e88d1fff 	stm	sp, {r0, r1, r2, r3, r4, r5, r6, r7, r8, r9, sl, fp, ip}
    1054:	e24e0004 	sub	r0, lr, #4	; 0x4
    1058:	e3a01001 	mov	r1, #1	; 0x1
    105c:	ea000005 	b	1078 <.abtstore>

00001060 <__dabt>:
    1060:	e59fd0dc 	ldr	sp, [pc, #220]	; 1144 <.sysreset+0x50>
    1064:	e88d1fff 	stm	sp, {r0, r1, r2, r3, r4, r5, r6, r7, r8, r9, sl, fp, ip}
    1068:	e24e0008 	sub	r0, lr, #8	; 0x8
    106c:	e3a01002 	mov	r1, #2	; 0x2
    1070:	ea000000 	b	1078 <.abtstore>

00001074 <__swi>:
    1074:	ea001cbe 	b	8374 <vPortYieldProcessor>

00001078 <.abtstore>:
    1078:	e59f20c8 	ldr	r2, [pc, #200]	; 1148 <.sysreset+0x54>
    107c:	e5821000 	str	r1, [r2]
    1080:	e59f20c4 	ldr	r2, [pc, #196]	; 114c <.sysreset+0x58>
    1084:	e59f40c4 	ldr	r4, [pc, #196]	; 1150 <.sysreset+0x5c>
    1088:	e5923000 	ldr	r3, [r2]
    108c:	e1530004 	cmp	r3, r4
    1090:	15824000 	strne	r4, [r2]
    1094:	159f20b8 	ldrne	r2, [pc, #184]	; 1154 <.sysreset+0x60>
    1098:	13a04000 	movne	r4, #0	; 0x0
    109c:	15824000 	strne	r4, [r2]
    10a0:	e10f5000 	mrs	r5, CPSR
    10a4:	e14f6000 	mrs	r6, SPSR
    10a8:	e1a02006 	mov	r2, r6
    10ac:	e316000f 	tst	r6, #15	; 0xf
    10b0:	0386600f 	orreq	r6, r6, #15	; 0xf
    10b4:	e121f006 	msr	CPSR_c, r6
    10b8:	e1a0300e 	mov	r3, lr
    10bc:	e1a0400d 	mov	r4, sp
    10c0:	e121f005 	msr	CPSR_c, r5
    10c4:	e3510001 	cmp	r1, #1	; 0x1
    10c8:	03a01000 	moveq	r1, #0	; 0x0
    10cc:	15901000 	ldrne	r1, [r0]
    10d0:	e59fd080 	ldr	sp, [pc, #128]	; 1158 <.sysreset+0x64>
    10d4:	e88d001f 	stm	sp, {r0, r1, r2, r3, r4}
    10d8:	e59f107c 	ldr	r1, [pc, #124]	; 115c <.sysreset+0x68>
    10dc:	e3a02008 	mov	r2, #8	; 0x8

000010e0 <.abtcopy>:
    10e0:	e4940004 	ldr	r0, [r4], #4
    10e4:	e4810004 	str	r0, [r1], #4
    10e8:	e2522001 	subs	r2, r2, #1	; 0x1
    10ec:	cafffffb 	bgt	10e0 <.abtcopy>
    10f0:	eaffffff 	b	10f4 <.sysreset>

000010f4 <.sysreset>:
    10f4:	e59f1058 	ldr	r1, [pc, #88]	; 1154 <.sysreset+0x60>
    10f8:	e5910000 	ldr	r0, [r1]
    10fc:	e2800001 	add	r0, r0, #1	; 0x1
    1100:	e5810000 	str	r0, [r1]
    1104:	e3a0000f 	mov	r0, #15	; 0xf
    1108:	e59f1050 	ldr	r1, [pc, #80]	; 1160 <.sysreset+0x6c>
    110c:	e5810000 	str	r0, [r1]
    1110:	e3a00003 	mov	r0, #3	; 0x3
    1114:	e3a0120e 	mov	r1, #-536870912	; 0xe0000000
    1118:	e5810000 	str	r0, [r1]
    111c:	e59f0040 	ldr	r0, [pc, #64]	; 1164 <.sysreset+0x70>
    1120:	e3a0124e 	mov	r1, #-536870908	; 0xe0000004
    1124:	e5810000 	str	r0, [r1]
    1128:	e3a000aa 	mov	r0, #170	; 0xaa
    112c:	e3a0128e 	mov	r1, #-536870904	; 0xe0000008
    1130:	e5810000 	str	r0, [r1]
    1134:	e3a00055 	mov	r0, #85	; 0x55
    1138:	e3a0128e 	mov	r1, #-536870904	; 0xe0000008
    113c:	e5810000 	str	r0, [r1]
    1140:	eafffffe 	b	1140 <.sysreset+0x4c>
    1144:	40000064 	.word	0x40000064
    1148:	4000004c 	.word	0x4000004c
    114c:	40000044 	.word	0x40000044
    1150:	deadc0de 	.word	0xdeadc0de
    1154:	40000048 	.word	0x40000048
    1158:	40000050 	.word	0x40000050
    115c:	40000098 	.word	0x40000098
    1160:	e01fc180 	.word	0xe01fc180
    1164:	0001d4c0 	.word	0x0001d4c0

Disassembly of section prog:

00001168 <__start_of_prog__>:
    1168:	e59f1110 	ldr	r1, [pc, #272]	; 1280 <.end_ints_loop+0x94>
    116c:	e59f3110 	ldr	r3, [pc, #272]	; 1284 <.end_ints_loop+0x98>
    1170:	e0433001 	sub	r3, r3, r1
    1174:	e59f210c 	ldr	r2, [pc, #268]	; 1288 <.end_ints_loop+0x9c>

00001178 <.init_loop>:
    1178:	e4812004 	str	r2, [r1], #4
    117c:	e2533004 	subs	r3, r3, #4	; 0x4
    1180:	cafffffc 	bgt	1178 <.init_loop>

00001184 <.end_init_loop>:
    1184:	e59f1100 	ldr	r1, [pc, #256]	; 128c <.end_ints_loop+0xa0>
    1188:	e59f3100 	ldr	r3, [pc, #256]	; 1290 <.end_ints_loop+0xa4>
    118c:	e0533001 	subs	r3, r3, r1
    1190:	0a000003 	beq	11a4 <.end_clear_loop>
    1194:	e3a02000 	mov	r2, #0	; 0x0

00001198 <.clear_loop>:
    1198:	e4c12001 	strb	r2, [r1], #1
    119c:	e2533001 	subs	r3, r3, #1	; 0x1
    11a0:	cafffffc 	bgt	1198 <.clear_loop>

000011a4 <.end_clear_loop>:
    11a4:	e59f10d4 	ldr	r1, [pc, #212]	; 1280 <.end_ints_loop+0x94>
    11a8:	e59f20e4 	ldr	r2, [pc, #228]	; 1294 <.end_ints_loop+0xa8>
    11ac:	e59f30e4 	ldr	r3, [pc, #228]	; 1298 <.end_ints_loop+0xac>
    11b0:	e0533001 	subs	r3, r3, r1
    11b4:	0a000003 	beq	11c8 <.end_set_loop>

000011b8 <.set_loop>:
    11b8:	e4d24001 	ldrb	r4, [r2], #1
    11bc:	e4c14001 	strb	r4, [r1], #1
    11c0:	e2533001 	subs	r3, r3, #1	; 0x1
    11c4:	cafffffb 	bgt	11b8 <.set_loop>

000011c8 <.end_set_loop>:
    11c8:	e59f10cc 	ldr	r1, [pc, #204]	; 129c <.end_ints_loop+0xb0>
    11cc:	e59f20cc 	ldr	r2, [pc, #204]	; 12a0 <.end_ints_loop+0xb4>
    11d0:	e59f30cc 	ldr	r3, [pc, #204]	; 12a4 <.end_ints_loop+0xb8>
    11d4:	e0533001 	subs	r3, r3, r1
    11d8:	0a000003 	beq	11ec <.end_ints_loop>

000011dc <.ints_loop>:
    11dc:	e4d24001 	ldrb	r4, [r2], #1
    11e0:	e4c14001 	strb	r4, [r1], #1
    11e4:	e2533001 	subs	r3, r3, #1	; 0x1
    11e8:	cafffffb 	bgt	11dc <.ints_loop>

000011ec <.end_ints_loop>:
    11ec:	e59f10b4 	ldr	r1, [pc, #180]	; 12a8 <.end_ints_loop+0xbc>
    11f0:	e59f008c 	ldr	r0, [pc, #140]	; 1284 <.end_ints_loop+0x98>
    11f4:	e321f0db 	msr	CPSR_c, #219	; 0xdb
    11f8:	e1a0d000 	mov	sp, r0
    11fc:	e5810000 	str	r0, [r1]
    1200:	e2400010 	sub	r0, r0, #16	; 0x10
    1204:	e321f0d7 	msr	CPSR_c, #215	; 0xd7
    1208:	e1a0d000 	mov	sp, r0
    120c:	e5810004 	str	r0, [r1, #4]
    1210:	e5810008 	str	r0, [r1, #8]
    1214:	e2400010 	sub	r0, r0, #16	; 0x10
    1218:	e321f0d1 	msr	CPSR_c, #209	; 0xd1
    121c:	e1a0d000 	mov	sp, r0
    1220:	e581000c 	str	r0, [r1, #12]
    1224:	e5810010 	str	r0, [r1, #16]
    1228:	e2400020 	sub	r0, r0, #32	; 0x20
    122c:	e321f0d2 	msr	CPSR_c, #210	; 0xd2
    1230:	e1a0d000 	mov	sp, r0
    1234:	e5810014 	str	r0, [r1, #20]
    1238:	e5810018 	str	r0, [r1, #24]
    123c:	e2400c02 	sub	r0, r0, #512	; 0x200
    1240:	e321f0d3 	msr	CPSR_c, #211	; 0xd3
    1244:	e1a0d000 	mov	sp, r0
    1248:	e581001c 	str	r0, [r1, #28]
    124c:	e5810020 	str	r0, [r1, #32]
    1250:	e2402c01 	sub	r2, r0, #256	; 0x100
    1254:	e5812030 	str	r2, [r1, #48]
    1258:	e2400c02 	sub	r0, r0, #512	; 0x200
    125c:	e321f0df 	msr	CPSR_c, #223	; 0xdf
    1260:	e1a0d000 	mov	sp, r0
    1264:	e5810024 	str	r0, [r1, #36]
    1268:	e5810028 	str	r0, [r1, #40]
    126c:	e321f0d3 	msr	CPSR_c, #211	; 0xd3
    1270:	e3a00000 	mov	r0, #0	; 0x0
    1274:	e3a01000 	mov	r1, #0	; 0x0
    1278:	eb00007c 	bl	1470 <main>
    127c:	eafffffe 	b	127c <.end_ints_loop+0x90>
    1280:	400000b8 	.word	0x400000b8
    1284:	40007fdc 	.word	0x40007fdc
    1288:	e5e5e5e5 	.word	0xe5e5e5e5
    128c:	40000918 	.word	0x40000918
    1290:	40000b18 	.word	0x40000b18
    1294:	00010bd4 	.word	0x00010bd4
    1298:	40000918 	.word	0x40000918
    129c:	40000000 	.word	0x40000000
    12a0:	00010b94 	.word	0x00010b94
    12a4:	40000040 	.word	0x40000040
    12a8:	400000b8 	.word	0x400000b8

000012ac <i2cTimer>:
    12ac:	e92d41f0 	push	{r4, r5, r6, r7, r8, lr}
    12b0:	e1a06000 	mov	r6, r0
    12b4:	e24dd004 	sub	sp, sp, #4	; 0x4
    12b8:	e59f0190 	ldr	r0, [pc, #400]	; 1450 <i2cTimer+0x1a4>
    12bc:	eb0014fe 	bl	66bc <initialize_I2C0>
    12c0:	e59f818c 	ldr	r8, [pc, #396]	; 1454 <i2cTimer+0x1a8>
    12c4:	e3a05032 	mov	r5, #50	; 0x32
    12c8:	e3a000c8 	mov	r0, #200	; 0xc8
    12cc:	eb00210b 	bl	9700 <vTaskDelay>
    12d0:	e3a01001 	mov	r1, #1	; 0x1
    12d4:	e3a00040 	mov	r0, #64	; 0x40
    12d8:	eb0014cd 	bl	6614 <i2cReadDeviceRegister>
    12dc:	e1a04000 	mov	r4, r0
    12e0:	e3a01002 	mov	r1, #2	; 0x2
    12e4:	e3a00040 	mov	r0, #64	; 0x40
    12e8:	e1a02004 	mov	r2, r4
    12ec:	eb0014a2 	bl	657c <i2cWriteDeviceRegister>
    12f0:	e3540000 	cmp	r4, #0	; 0x0
    12f4:	0afffff3 	beq	12c8 <i2cTimer+0x1c>
    12f8:	e3540008 	cmp	r4, #8	; 0x8
    12fc:	0afffff1 	beq	12c8 <i2cTimer+0x1c>
    1300:	8a00000a 	bhi	1330 <i2cTimer+0x84>
    1304:	e3540002 	cmp	r4, #2	; 0x2
    1308:	0a000016 	beq	1368 <i2cTimer+0xbc>
    130c:	8a000002 	bhi	131c <i2cTimer+0x70>
    1310:	e3540001 	cmp	r4, #1	; 0x1
    1314:	1a00004a 	bne	1444 <i2cTimer+0x198>
    1318:	ea00000f 	b	135c <i2cTimer+0xb0>
    131c:	e3540003 	cmp	r4, #3	; 0x3
    1320:	0a000014 	beq	1378 <i2cTimer+0xcc>
    1324:	e3540004 	cmp	r4, #4	; 0x4
    1328:	1a000045 	bne	1444 <i2cTimer+0x198>
    132c:	eaffffe5 	b	12c8 <i2cTimer+0x1c>
    1330:	e3540020 	cmp	r4, #32	; 0x20
    1334:	0affffe3 	beq	12c8 <i2cTimer+0x1c>
    1338:	8a000002 	bhi	1348 <i2cTimer+0x9c>
    133c:	e3540010 	cmp	r4, #16	; 0x10
    1340:	1a00003f 	bne	1444 <i2cTimer+0x198>
    1344:	ea00000f 	b	1388 <i2cTimer+0xdc>
    1348:	e3540040 	cmp	r4, #64	; 0x40
    134c:	0affffdd 	beq	12c8 <i2cTimer+0x1c>
    1350:	e3540080 	cmp	r4, #128	; 0x80
    1354:	1a00003a 	bne	1444 <i2cTimer+0x198>
    1358:	ea000021 	b	13e4 <i2cTimer+0x138>
    135c:	e3550000 	cmp	r5, #0	; 0x0
    1360:	daffffd8 	ble	12c8 <i2cTimer+0x1c>
    1364:	e2455001 	sub	r5, r5, #1	; 0x1
    1368:	e1a00005 	mov	r0, r5
    136c:	e1a01005 	mov	r1, r5
    1370:	eb001575 	bl	694c <pcm1774_OutputVolume>
    1374:	eaffffd3 	b	12c8 <i2cTimer+0x1c>
    1378:	e5983000 	ldr	r3, [r8]
    137c:	e2233001 	eor	r3, r3, #1	; 0x1
    1380:	e5883000 	str	r3, [r8]
    1384:	eaffffcf 	b	12c8 <i2cTimer+0x1c>
    1388:	e3a01053 	mov	r1, #83	; 0x53
    138c:	e3a02064 	mov	r2, #100	; 0x64
    1390:	e3a03000 	mov	r3, #0	; 0x0
    1394:	e5960004 	ldr	r0, [r6, #4]
    1398:	eb001d95 	bl	89f4 <xQueueGenericSend>
    139c:	e3500000 	cmp	r0, #0	; 0x0
    13a0:	159f00b0 	ldrne	r0, [pc, #176]	; 1458 <i2cTimer+0x1ac>
    13a4:	059f00b0 	ldreq	r0, [pc, #176]	; 145c <i2cTimer+0x1b0>
    13a8:	eb001796 	bl	7208 <rprintf>
    13ac:	e3a00032 	mov	r0, #50	; 0x32
    13b0:	eb0020d2 	bl	9700 <vTaskDelay>
    13b4:	e3a00053 	mov	r0, #83	; 0x53
    13b8:	eb001896 	bl	7618 <retGlobals>
    13bc:	e1a0100d 	mov	r1, sp
    13c0:	e58d0000 	str	r0, [sp]
    13c4:	e3a02064 	mov	r2, #100	; 0x64
    13c8:	e5960000 	ldr	r0, [r6]
    13cc:	e3a03000 	mov	r3, #0	; 0x0
    13d0:	eb001d87 	bl	89f4 <xQueueGenericSend>
    13d4:	e3500000 	cmp	r0, #0	; 0x0
    13d8:	159f0080 	ldrne	r0, [pc, #128]	; 1460 <i2cTimer+0x1b4>
    13dc:	1a000019 	bne	1448 <i2cTimer+0x19c>
    13e0:	ea000015 	b	143c <i2cTimer+0x190>
    13e4:	e3a01050 	mov	r1, #80	; 0x50
    13e8:	e3a02064 	mov	r2, #100	; 0x64
    13ec:	e3a03000 	mov	r3, #0	; 0x0
    13f0:	e5960004 	ldr	r0, [r6, #4]
    13f4:	eb001d7e 	bl	89f4 <xQueueGenericSend>
    13f8:	e3500000 	cmp	r0, #0	; 0x0
    13fc:	159f0060 	ldrne	r0, [pc, #96]	; 1464 <i2cTimer+0x1b8>
    1400:	059f0054 	ldreq	r0, [pc, #84]	; 145c <i2cTimer+0x1b0>
    1404:	eb00177f 	bl	7208 <rprintf>
    1408:	e3a00032 	mov	r0, #50	; 0x32
    140c:	eb0020bb 	bl	9700 <vTaskDelay>
    1410:	e3a00053 	mov	r0, #83	; 0x53
    1414:	eb00187f 	bl	7618 <retGlobals>
    1418:	e1a0100d 	mov	r1, sp
    141c:	e58d0000 	str	r0, [sp]
    1420:	e3a02064 	mov	r2, #100	; 0x64
    1424:	e5960000 	ldr	r0, [r6]
    1428:	e3a03000 	mov	r3, #0	; 0x0
    142c:	eb001d70 	bl	89f4 <xQueueGenericSend>
    1430:	e3500000 	cmp	r0, #0	; 0x0
    1434:	159f002c 	ldrne	r0, [pc, #44]	; 1468 <i2cTimer+0x1bc>
    1438:	1a000002 	bne	1448 <i2cTimer+0x19c>
    143c:	e59f0018 	ldr	r0, [pc, #24]	; 145c <i2cTimer+0x1b0>
    1440:	ea000000 	b	1448 <i2cTimer+0x19c>
    1444:	e59f0020 	ldr	r0, [pc, #32]	; 146c <i2cTimer+0x1c0>
    1448:	eb00176e 	bl	7208 <rprintf>
    144c:	eaffff9d 	b	12c8 <i2cTimer+0x1c>
    1450:	00061a80 	.word	0x00061a80
    1454:	40000918 	.word	0x40000918
    1458:	00010064 	.word	0x00010064
    145c:	00010070 	.word	0x00010070
    1460:	00010088 	.word	0x00010088
    1464:	0001009d 	.word	0x0001009d
    1468:	000100ad 	.word	0x000100ad
    146c:	000100c6 	.word	0x000100c6

00001470 <main>:
    1470:	e92d4070 	push	{r4, r5, r6, lr}
    1474:	e24dd034 	sub	sp, sp, #52	; 0x34
    1478:	eb0015c7 	bl	6b9c <cpuSetupHardware>
    147c:	e59f015c 	ldr	r0, [pc, #348]	; 15e0 <main+0x170>
    1480:	eb00184d 	bl	75bc <watchdogDelayUs>
    1484:	e3a01c01 	mov	r1, #256	; 0x100
    1488:	e3a00c96 	mov	r0, #38400	; 0x9600
    148c:	eb001270 	bl	5e54 <uart0Init>
    1490:	e59f014c 	ldr	r0, [pc, #332]	; 15e4 <main+0x174>
    1494:	eb001747 	bl	71b8 <rprintf_devopen>
    1498:	eb001607 	bl	6cbc <didSystemCrash>
    149c:	e3500000 	cmp	r0, #0	; 0x0
    14a0:	0a000003 	beq	14b4 <main+0x44>
    14a4:	e59f013c 	ldr	r0, [pc, #316]	; 15e8 <main+0x178>
    14a8:	eb001756 	bl	7208 <rprintf>
    14ac:	eb001631 	bl	6d78 <printCrashInfo>
    14b0:	eb001619 	bl	6d1c <clearCrashInfo>
    14b4:	eb0015e1 	bl	6c40 <cpuPrintMemoryInfo>
    14b8:	e59f012c 	ldr	r0, [pc, #300]	; 15ec <main+0x17c>
    14bc:	eb00173d 	bl	71b8 <rprintf_devopen>
    14c0:	eb001d9d 	bl	8b3c <xQueueCreateMutex>
    14c4:	e58d002c 	str	r0, [sp, #44]
    14c8:	eb001d9b 	bl	8b3c <xQueueCreateMutex>
    14cc:	e3a0100f 	mov	r1, #15	; 0xf
    14d0:	e58d0030 	str	r0, [sp, #48]
    14d4:	e3a00001 	mov	r0, #1	; 0x1
    14d8:	eb001db3 	bl	8bac <xQueueCreate>
    14dc:	e28d5034 	add	r5, sp, #52	; 0x34
    14e0:	e5250024 	str	r0, [r5, #-36]!
    14e4:	e59f0104 	ldr	r0, [pc, #260]	; 15f0 <main+0x180>
    14e8:	eb001746 	bl	7208 <rprintf>
    14ec:	e3a06000 	mov	r6, #0	; 0x0
    14f0:	e3a0c001 	mov	ip, #1	; 0x1
    14f4:	e2854008 	add	r4, r5, #8	; 0x8
    14f8:	e59f00f4 	ldr	r0, [pc, #244]	; 15f4 <main+0x184>
    14fc:	e59f10f4 	ldr	r1, [pc, #244]	; 15f8 <main+0x188>
    1500:	e3a02c06 	mov	r2, #1536	; 0x600
    1504:	e1a03005 	mov	r3, r5
    1508:	e58dc000 	str	ip, [sp]
    150c:	e98d0050 	stmib	sp, {r4, r6}
    1510:	e58d600c 	str	r6, [sp, #12]
    1514:	eb0021e7 	bl	9cb8 <xTaskGenericCreate>
    1518:	e3500001 	cmp	r0, #1	; 0x1
    151c:	1a000023 	bne	15b0 <main+0x140>
    1520:	e3a0c004 	mov	ip, #4	; 0x4
    1524:	e285400c 	add	r4, r5, #12	; 0xc
    1528:	e59f00cc 	ldr	r0, [pc, #204]	; 15fc <main+0x18c>
    152c:	e59f10cc 	ldr	r1, [pc, #204]	; 1600 <main+0x190>
    1530:	e3a02040 	mov	r2, #64	; 0x40
    1534:	e1a03005 	mov	r3, r5
    1538:	e58dc000 	str	ip, [sp]
    153c:	e98d0050 	stmib	sp, {r4, r6}
    1540:	e58d600c 	str	r6, [sp, #12]
    1544:	eb0021db 	bl	9cb8 <xTaskGenericCreate>
    1548:	e3500001 	cmp	r0, #1	; 0x1
    154c:	1a000017 	bne	15b0 <main+0x140>
    1550:	e3a0c003 	mov	ip, #3	; 0x3
    1554:	e59f00a8 	ldr	r0, [pc, #168]	; 1604 <main+0x194>
    1558:	e59f10a8 	ldr	r1, [pc, #168]	; 1608 <main+0x198>
    155c:	e3a02b01 	mov	r2, #1024	; 0x400
    1560:	e1a03005 	mov	r3, r5
    1564:	e58dc000 	str	ip, [sp]
    1568:	e98d0050 	stmib	sp, {r4, r6}
    156c:	e58d600c 	str	r6, [sp, #12]
    1570:	eb0021d0 	bl	9cb8 <xTaskGenericCreate>
    1574:	e3500001 	cmp	r0, #1	; 0x1
    1578:	e1a0e000 	mov	lr, r0
    157c:	1a00000b 	bne	15b0 <main+0x140>
    1580:	e285c018 	add	ip, r5, #24	; 0x18
    1584:	e1a03005 	mov	r3, r5
    1588:	e59f007c 	ldr	r0, [pc, #124]	; 160c <main+0x19c>
    158c:	e59f107c 	ldr	r1, [pc, #124]	; 1610 <main+0x1a0>
    1590:	e3a02c02 	mov	r2, #512	; 0x200
    1594:	e58de000 	str	lr, [sp]
    1598:	e58dc004 	str	ip, [sp, #4]
    159c:	e58d600c 	str	r6, [sp, #12]
    15a0:	e58d6008 	str	r6, [sp, #8]
    15a4:	eb0021c3 	bl	9cb8 <xTaskGenericCreate>
    15a8:	e3500001 	cmp	r0, #1	; 0x1
    15ac:	0a000001 	beq	15b8 <main+0x148>
    15b0:	e59f005c 	ldr	r0, [pc, #92]	; 1614 <main+0x1a4>
    15b4:	eb001713 	bl	7208 <rprintf>
    15b8:	e59f0058 	ldr	r0, [pc, #88]	; 1618 <main+0x1a8>
    15bc:	eb001711 	bl	7208 <rprintf>
    15c0:	eb00224f 	bl	9f04 <vTaskStartScheduler>
    15c4:	e59f0018 	ldr	r0, [pc, #24]	; 15e4 <main+0x174>
    15c8:	eb0016fa 	bl	71b8 <rprintf_devopen>
    15cc:	e59f0048 	ldr	r0, [pc, #72]	; 161c <main+0x1ac>
    15d0:	eb00170c 	bl	7208 <rprintf>
    15d4:	e3a00000 	mov	r0, #0	; 0x0
    15d8:	e28dd034 	add	sp, sp, #52	; 0x34
    15dc:	e8bd8070 	pop	{r4, r5, r6, pc}
    15e0:	001e8480 	.word	0x001e8480
    15e4:	00005d48 	.word	0x00005d48
    15e8:	000100e7 	.word	0x000100e7
    15ec:	00005da0 	.word	0x00005da0
    15f0:	000100f6 	.word	0x000100f6
    15f4:	00007848 	.word	0x00007848
    15f8:	00010104 	.word	0x00010104
    15fc:	000017bc 	.word	0x000017bc
    1600:	0001010c 	.word	0x0001010c
    1604:	00001620 	.word	0x00001620
    1608:	00010752 	.word	0x00010752
    160c:	000012ac 	.word	0x000012ac
    1610:	00010113 	.word	0x00010113
    1614:	0001011c 	.word	0x0001011c
    1618:	0001015c 	.word	0x0001015c
    161c:	00010176 	.word	0x00010176

00001620 <mp3>:
    1620:	e92d4ff0 	push	{r4, r5, r6, r7, r8, r9, sl, fp, lr}
    1624:	e24ddea3 	sub	sp, sp, #2608	; 0xa30
    1628:	e24dd00c 	sub	sp, sp, #12	; 0xc
    162c:	e28d700c 	add	r7, sp, #12	; 0xc
    1630:	e28d8ea2 	add	r8, sp, #2592	; 0xa20
    1634:	e59fa168 	ldr	sl, [pc, #360]	; 17a4 <mp3+0x184>
    1638:	e1a06000 	mov	r6, r0
    163c:	e247700c 	sub	r7, r7, #12	; 0xc
    1640:	e2888005 	add	r8, r8, #5	; 0x5
    1644:	e5960000 	ldr	r0, [r6]
    1648:	e1a01008 	mov	r1, r8
    164c:	e3e02000 	mvn	r2, #0	; 0x0
    1650:	e3a03000 	mov	r3, #0	; 0x0
    1654:	eb001c2a 	bl	8704 <xQueueGenericReceive>
    1658:	e3500000 	cmp	r0, #0	; 0x0
    165c:	0afffff8 	beq	1644 <mp3+0x24>
    1660:	e59f0140 	ldr	r0, [pc, #320]	; 17a8 <mp3+0x188>
    1664:	e1a01008 	mov	r1, r8
    1668:	e28d4b02 	add	r4, sp, #2048	; 0x800
    166c:	eb0016e5 	bl	7208 <rprintf>
    1670:	e1a00004 	mov	r0, r4
    1674:	e1a01008 	mov	r1, r8
    1678:	e3a02001 	mov	r2, #1	; 0x1
    167c:	eb00105b 	bl	57f0 <f_open>
    1680:	e3500000 	cmp	r0, #0	; 0x0
    1684:	1a000039 	bne	1770 <mp3+0x150>
    1688:	e59f011c 	ldr	r0, [pc, #284]	; 17ac <mp3+0x18c>
    168c:	e28d5ea3 	add	r5, sp, #2608	; 0xa30
    1690:	eb0016dc 	bl	7208 <rprintf>
    1694:	e285500c 	add	r5, r5, #12	; 0xc
    1698:	e3a03b02 	mov	r3, #2048	; 0x800
    169c:	e5253008 	str	r3, [r5, #-8]!
    16a0:	e1a0b004 	mov	fp, r4
    16a4:	e3a09202 	mov	r9, #536870912	; 0x20000000
    16a8:	ea00002a 	b	1758 <mp3+0x138>
    16ac:	e1a0000b 	mov	r0, fp
    16b0:	e1a01007 	mov	r1, r7
    16b4:	e1a03005 	mov	r3, r5
    16b8:	eb000e8f 	bl	50fc <f_read>
    16bc:	e2504000 	subs	r4, r0, #0	; 0x0
    16c0:	1a000024 	bne	1758 <mp3+0x138>
    16c4:	e596001c 	ldr	r0, [r6, #28]
    16c8:	e1a01004 	mov	r1, r4
    16cc:	e3a02ffa 	mov	r2, #1000	; 0x3e8
    16d0:	e1a03004 	mov	r3, r4
    16d4:	eb001c0a 	bl	8704 <xQueueGenericReceive>
    16d8:	e3500000 	cmp	r0, #0	; 0x0
    16dc:	158a9014 	strne	r9, [sl, #20]
    16e0:	1a00000f 	bne	1724 <mp3+0x104>
    16e4:	ea000019 	b	1750 <mp3+0x130>
    16e8:	e59a3000 	ldr	r3, [sl]
    16ec:	e3130902 	tst	r3, #32768	; 0x8000
    16f0:	0a00000a 	beq	1720 <mp3+0x100>
    16f4:	e59f20b4 	ldr	r2, [pc, #180]	; 17b0 <mp3+0x190>
    16f8:	e5923000 	ldr	r3, [r2]
    16fc:	e3530000 	cmp	r3, #0	; 0x0
    1700:	1a000006 	bne	1720 <mp3+0x100>
    1704:	e28d2ea3 	add	r2, sp, #2608	; 0xa30
    1708:	e282200c 	add	r2, r2, #12	; 0xc
    170c:	e0823004 	add	r3, r2, r4
    1710:	e5530a3c 	ldrb	r0, [r3, #-2620]
    1714:	e2844001 	add	r4, r4, #1	; 0x1
    1718:	eb0014b8 	bl	6a00 <rxTxByteSSPSPI>
    171c:	ea000000 	b	1724 <mp3+0x104>
    1720:	eb001ff6 	bl	9700 <vTaskDelay>
    1724:	e59d3a34 	ldr	r3, [sp, #2612]
    1728:	e1540003 	cmp	r4, r3
    172c:	e3a00001 	mov	r0, #1	; 0x1
    1730:	baffffec 	blt	16e8 <mp3+0xc8>
    1734:	e3a01000 	mov	r1, #0	; 0x0
    1738:	e596001c 	ldr	r0, [r6, #28]
    173c:	e1a02001 	mov	r2, r1
    1740:	e1a03001 	mov	r3, r1
    1744:	e58a901c 	str	r9, [sl, #28]
    1748:	eb001ca9 	bl	89f4 <xQueueGenericSend>
    174c:	ea000001 	b	1758 <mp3+0x138>
    1750:	e59f005c 	ldr	r0, [pc, #92]	; 17b4 <mp3+0x194>
    1754:	eb0016ab 	bl	7208 <rprintf>
    1758:	e59d2a34 	ldr	r2, [sp, #2612]
    175c:	e3520b02 	cmp	r2, #2048	; 0x800
    1760:	0affffd1 	beq	16ac <mp3+0x8c>
    1764:	e1a0000b 	mov	r0, fp
    1768:	eb00101a 	bl	57d8 <f_close>
    176c:	ea000001 	b	1778 <mp3+0x158>
    1770:	e59f0040 	ldr	r0, [pc, #64]	; 17b8 <mp3+0x198>
    1774:	eb0016a3 	bl	7208 <rprintf>
    1778:	e28d1ea3 	add	r1, sp, #2608	; 0xa30
    177c:	e5960004 	ldr	r0, [r6, #4]
    1780:	e281100b 	add	r1, r1, #11	; 0xb
    1784:	e3e02000 	mvn	r2, #0	; 0x0
    1788:	e3a03000 	mov	r3, #0	; 0x0
    178c:	eb001bdc 	bl	8704 <xQueueGenericReceive>
    1790:	e3500000 	cmp	r0, #0	; 0x0
    1794:	0affffaa 	beq	1644 <mp3+0x24>
    1798:	e28d0b02 	add	r0, sp, #2048	; 0x800
    179c:	eb00100d 	bl	57d8 <f_close>
    17a0:	eaffffa7 	b	1644 <mp3+0x24>
    17a4:	e0028000 	.word	0xe0028000
    17a8:	00010192 	.word	0x00010192
    17ac:	000101a4 	.word	0x000101a4
    17b0:	40000918 	.word	0x40000918
    17b4:	000101c1 	.word	0x000101c1
    17b8:	000101ef 	.word	0x000101ef

000017bc <diskTimer>:
    17bc:	e52de004 	push	{lr}		; (str lr, [sp, #-4]!)
    17c0:	e3a0000a 	mov	r0, #10	; 0xa
    17c4:	eb001fcd 	bl	9700 <vTaskDelay>
    17c8:	eb00002c 	bl	1880 <disk_timerproc>
    17cc:	eafffffb 	b	17c0 <diskTimer+0x4>

000017d0 <diskio_initializeSPIMutex>:
    17d0:	e59f3004 	ldr	r3, [pc, #4]	; 17dc <diskio_initializeSPIMutex+0xc>
    17d4:	e5830000 	str	r0, [r3]
    17d8:	e12fff1e 	bx	lr
    17dc:	40000a78 	.word	0x40000a78

000017e0 <initialize_SdCardSignals>:
    17e0:	e59f1054 	ldr	r1, [pc, #84]	; 183c <initialize_SdCardSignals+0x5c>
    17e4:	e5913000 	ldr	r3, [r1]
    17e8:	e3c33603 	bic	r3, r3, #3145728	; 0x300000
    17ec:	e5813000 	str	r3, [r1]
    17f0:	e59f2048 	ldr	r2, [pc, #72]	; 1840 <initialize_SdCardSignals+0x60>
    17f4:	e5923008 	ldr	r3, [r2, #8]
    17f8:	e3833b01 	orr	r3, r3, #1024	; 0x400
    17fc:	e5823008 	str	r3, [r2, #8]
    1800:	e3a03b01 	mov	r3, #1024	; 0x400
    1804:	e5823004 	str	r3, [r2, #4]
    1808:	e5913004 	ldr	r3, [r1, #4]
    180c:	e3c33003 	bic	r3, r3, #3	; 0x3
    1810:	e5813004 	str	r3, [r1, #4]
    1814:	e5913004 	ldr	r3, [r1, #4]
    1818:	e3c33b03 	bic	r3, r3, #3072	; 0xc00
    181c:	e5813004 	str	r3, [r1, #4]
    1820:	e5923008 	ldr	r3, [r2, #8]
    1824:	e3c33602 	bic	r3, r3, #2097152	; 0x200000
    1828:	e5823008 	str	r3, [r2, #8]
    182c:	e5923008 	ldr	r3, [r2, #8]
    1830:	e3c33801 	bic	r3, r3, #65536	; 0x10000
    1834:	e5823008 	str	r3, [r2, #8]
    1838:	e12fff1e 	bx	lr
    183c:	e002c000 	.word	0xe002c000
    1840:	e0028000 	.word	0xe0028000

00001844 <power_on>:
    1844:	e12fff1e 	bx	lr

00001848 <chk_power>:
    1848:	e59f3010 	ldr	r3, [pc, #16]	; 1860 <chk_power+0x18>
    184c:	e5930000 	ldr	r0, [r3]
    1850:	e1a00820 	lsr	r0, r0, #16
    1854:	e2200001 	eor	r0, r0, #1	; 0x1
    1858:	e2000001 	and	r0, r0, #1	; 0x1
    185c:	e12fff1e 	bx	lr
    1860:	e0028000 	.word	0xe0028000

00001864 <disk_status>:
    1864:	e31000ff 	tst	r0, #255	; 0xff
    1868:	059f300c 	ldreq	r3, [pc, #12]	; 187c <disk_status+0x18>
    186c:	05d33000 	ldrbeq	r3, [r3]
    1870:	13a00001 	movne	r0, #1	; 0x1
    1874:	020300ff 	andeq	r0, r3, #255	; 0xff
    1878:	e12fff1e 	bx	lr
    187c:	400000f8 	.word	0x400000f8

00001880 <disk_timerproc>:
    1880:	e59f2068 	ldr	r2, [pc, #104]	; 18f0 <disk_timerproc+0x70>
    1884:	e5d23000 	ldrb	r3, [r2]
    1888:	e21330ff 	ands	r3, r3, #255	; 0xff
    188c:	12433001 	subne	r3, r3, #1	; 0x1
    1890:	120330ff 	andne	r3, r3, #255	; 0xff
    1894:	15c23000 	strbne	r3, [r2]
    1898:	e59f2054 	ldr	r2, [pc, #84]	; 18f4 <disk_timerproc+0x74>
    189c:	e5d23000 	ldrb	r3, [r2]
    18a0:	e21330ff 	ands	r3, r3, #255	; 0xff
    18a4:	12433001 	subne	r3, r3, #1	; 0x1
    18a8:	120330ff 	andne	r3, r3, #255	; 0xff
    18ac:	15c23000 	strbne	r3, [r2]
    18b0:	e59f1040 	ldr	r1, [pc, #64]	; 18f8 <disk_timerproc+0x78>
    18b4:	e59f3040 	ldr	r3, [pc, #64]	; 18fc <disk_timerproc+0x7c>
    18b8:	e5d12000 	ldrb	r2, [r1]
    18bc:	e5933000 	ldr	r3, [r3]
    18c0:	e3a03000 	mov	r3, #0	; 0x0
    18c4:	e5c13000 	strb	r3, [r1]
    18c8:	e5d13000 	ldrb	r3, [r1]
    18cc:	e1520003 	cmp	r2, r3
    18d0:	112fff1e 	bxne	lr
    18d4:	e59f2024 	ldr	r2, [pc, #36]	; 1900 <disk_timerproc+0x80>
    18d8:	e5d23000 	ldrb	r3, [r2]
    18dc:	e20330f9 	and	r3, r3, #249	; 0xf9
    18e0:	e5d10000 	ldrb	r0, [r1]
    18e4:	e5d11000 	ldrb	r1, [r1]
    18e8:	e5c23000 	strb	r3, [r2]
    18ec:	e12fff1e 	bx	lr
    18f0:	40000a7c 	.word	0x40000a7c
    18f4:	40000a75 	.word	0x40000a75
    18f8:	4000091c 	.word	0x4000091c
    18fc:	e0028000 	.word	0xe0028000
    1900:	400000f8 	.word	0x400000f8

00001904 <rcvr_datablock>:
    1904:	e59f2098 	ldr	r2, [pc, #152]	; 19a4 <rcvr_datablock+0xa0>
    1908:	e3a0300a 	mov	r3, #10	; 0xa
    190c:	e92d4070 	push	{r4, r5, r6, lr}
    1910:	e5c23000 	strb	r3, [r2]
    1914:	e1a04000 	mov	r4, r0
    1918:	e1a05001 	mov	r5, r1
    191c:	e1a06002 	mov	r6, r2
    1920:	e3a000ff 	mov	r0, #255	; 0xff
    1924:	eb001435 	bl	6a00 <rxTxByteSSPSPI>
    1928:	e35000ff 	cmp	r0, #255	; 0xff
    192c:	1a000003 	bne	1940 <rcvr_datablock+0x3c>
    1930:	e5d63000 	ldrb	r3, [r6]
    1934:	e3530000 	cmp	r3, #0	; 0x0
    1938:	1afffff8 	bne	1920 <rcvr_datablock+0x1c>
    193c:	ea000016 	b	199c <rcvr_datablock+0x98>
    1940:	e35000fe 	cmp	r0, #254	; 0xfe
    1944:	1a000014 	bne	199c <rcvr_datablock+0x98>
    1948:	e3a000ff 	mov	r0, #255	; 0xff
    194c:	eb00142b 	bl	6a00 <rxTxByteSSPSPI>
    1950:	e5c40000 	strb	r0, [r4]
    1954:	e3a000ff 	mov	r0, #255	; 0xff
    1958:	eb001428 	bl	6a00 <rxTxByteSSPSPI>
    195c:	e5c40001 	strb	r0, [r4, #1]
    1960:	e3a000ff 	mov	r0, #255	; 0xff
    1964:	eb001425 	bl	6a00 <rxTxByteSSPSPI>
    1968:	e5c40002 	strb	r0, [r4, #2]
    196c:	e3a000ff 	mov	r0, #255	; 0xff
    1970:	eb001422 	bl	6a00 <rxTxByteSSPSPI>
    1974:	e2555004 	subs	r5, r5, #4	; 0x4
    1978:	e5c40003 	strb	r0, [r4, #3]
    197c:	e2844004 	add	r4, r4, #4	; 0x4
    1980:	1afffff0 	bne	1948 <rcvr_datablock+0x44>
    1984:	e3a000ff 	mov	r0, #255	; 0xff
    1988:	eb00141c 	bl	6a00 <rxTxByteSSPSPI>
    198c:	e3a000ff 	mov	r0, #255	; 0xff
    1990:	eb00141a 	bl	6a00 <rxTxByteSSPSPI>
    1994:	e3a00001 	mov	r0, #1	; 0x1
    1998:	e8bd8070 	pop	{r4, r5, r6, pc}
    199c:	e3a00000 	mov	r0, #0	; 0x0
    19a0:	e8bd8070 	pop	{r4, r5, r6, pc}
    19a4:	40000a7c 	.word	0x40000a7c

000019a8 <wait_ready>:
    19a8:	e92d4010 	push	{r4, lr}
    19ac:	e59f402c 	ldr	r4, [pc, #44]	; 19e0 <wait_ready+0x38>
    19b0:	e3a03032 	mov	r3, #50	; 0x32
    19b4:	e3a000ff 	mov	r0, #255	; 0xff
    19b8:	e5c43000 	strb	r3, [r4]
    19bc:	eb00140f 	bl	6a00 <rxTxByteSSPSPI>
    19c0:	e3a000ff 	mov	r0, #255	; 0xff
    19c4:	eb00140d 	bl	6a00 <rxTxByteSSPSPI>
    19c8:	e35000ff 	cmp	r0, #255	; 0xff
    19cc:	08bd8010 	popeq	{r4, pc}
    19d0:	e5d43000 	ldrb	r3, [r4]
    19d4:	e3530000 	cmp	r3, #0	; 0x0
    19d8:	1afffff8 	bne	19c0 <wait_ready+0x18>
    19dc:	e8bd8010 	pop	{r4, pc}
    19e0:	40000a75 	.word	0x40000a75

000019e4 <send_cmd>:
    19e4:	e92d4070 	push	{r4, r5, r6, lr}
    19e8:	e20040ff 	and	r4, r0, #255	; 0xff
    19ec:	e3140080 	tst	r4, #128	; 0x80
    19f0:	e1a06000 	mov	r6, r0
    19f4:	e1a05001 	mov	r5, r1
    19f8:	0a000005 	beq	1a14 <send_cmd+0x30>
    19fc:	e3a00077 	mov	r0, #119	; 0x77
    1a00:	e3a01000 	mov	r1, #0	; 0x0
    1a04:	ebfffff6 	bl	19e4 <send_cmd>
    1a08:	e3500001 	cmp	r0, #1	; 0x1
    1a0c:	88bd8070 	pophi	{r4, r5, r6, pc}
    1a10:	e206407f 	and	r4, r6, #127	; 0x7f
    1a14:	e59f2098 	ldr	r2, [pc, #152]	; 1ab4 <send_cmd+0xd0>
    1a18:	e3a03b01 	mov	r3, #1024	; 0x400
    1a1c:	e5823004 	str	r3, [r2, #4]
    1a20:	e582300c 	str	r3, [r2, #12]
    1a24:	ebffffdf 	bl	19a8 <wait_ready>
    1a28:	e35000ff 	cmp	r0, #255	; 0xff
    1a2c:	13a000ff 	movne	r0, #255	; 0xff
    1a30:	18bd8070 	popne	{r4, r5, r6, pc}
    1a34:	e1a00004 	mov	r0, r4
    1a38:	eb0013f0 	bl	6a00 <rxTxByteSSPSPI>
    1a3c:	e1a00c25 	lsr	r0, r5, #24
    1a40:	eb0013ee 	bl	6a00 <rxTxByteSSPSPI>
    1a44:	e1a00825 	lsr	r0, r5, #16
    1a48:	e20000ff 	and	r0, r0, #255	; 0xff
    1a4c:	eb0013eb 	bl	6a00 <rxTxByteSSPSPI>
    1a50:	e1a00425 	lsr	r0, r5, #8
    1a54:	e20000ff 	and	r0, r0, #255	; 0xff
    1a58:	eb0013e8 	bl	6a00 <rxTxByteSSPSPI>
    1a5c:	e20500ff 	and	r0, r5, #255	; 0xff
    1a60:	eb0013e6 	bl	6a00 <rxTxByteSSPSPI>
    1a64:	e3540040 	cmp	r4, #64	; 0x40
    1a68:	03a00095 	moveq	r0, #149	; 0x95
    1a6c:	0a000002 	beq	1a7c <send_cmd+0x98>
    1a70:	e3540048 	cmp	r4, #72	; 0x48
    1a74:	13a00001 	movne	r0, #1	; 0x1
    1a78:	03a00087 	moveq	r0, #135	; 0x87
    1a7c:	eb0013df 	bl	6a00 <rxTxByteSSPSPI>
    1a80:	e354004c 	cmp	r4, #76	; 0x4c
    1a84:	1a000001 	bne	1a90 <send_cmd+0xac>
    1a88:	e3a000ff 	mov	r0, #255	; 0xff
    1a8c:	eb0013db 	bl	6a00 <rxTxByteSSPSPI>
    1a90:	e3a0400a 	mov	r4, #10	; 0xa
    1a94:	e3a000ff 	mov	r0, #255	; 0xff
    1a98:	eb0013d8 	bl	6a00 <rxTxByteSSPSPI>
    1a9c:	e3100080 	tst	r0, #128	; 0x80
    1aa0:	e2443001 	sub	r3, r4, #1	; 0x1
    1aa4:	08bd8070 	popeq	{r4, r5, r6, pc}
    1aa8:	e21340ff 	ands	r4, r3, #255	; 0xff
    1aac:	1afffff8 	bne	1a94 <send_cmd+0xb0>
    1ab0:	e8bd8070 	pop	{r4, r5, r6, pc}
    1ab4:	e0028000 	.word	0xe0028000

00001ab8 <xmit_datablock>:
    1ab8:	e92d4030 	push	{r4, r5, lr}
    1abc:	e1a05000 	mov	r5, r0
    1ac0:	e20140ff 	and	r4, r1, #255	; 0xff
    1ac4:	ebffffb7 	bl	19a8 <wait_ready>
    1ac8:	e35000ff 	cmp	r0, #255	; 0xff
    1acc:	13a00000 	movne	r0, #0	; 0x0
    1ad0:	18bd8030 	popne	{r4, r5, pc}
    1ad4:	e1a00004 	mov	r0, r4
    1ad8:	eb0013c8 	bl	6a00 <rxTxByteSSPSPI>
    1adc:	e35400fd 	cmp	r4, #253	; 0xfd
    1ae0:	03a00001 	moveq	r0, #1	; 0x1
    1ae4:	08bd8030 	popeq	{r4, r5, pc}
    1ae8:	e1a04005 	mov	r4, r5
    1aec:	e2855c02 	add	r5, r5, #512	; 0x200
    1af0:	e5d40000 	ldrb	r0, [r4]
    1af4:	eb0013c1 	bl	6a00 <rxTxByteSSPSPI>
    1af8:	e5d40001 	ldrb	r0, [r4, #1]
    1afc:	e2844002 	add	r4, r4, #2	; 0x2
    1b00:	eb0013be 	bl	6a00 <rxTxByteSSPSPI>
    1b04:	e1540005 	cmp	r4, r5
    1b08:	1afffff8 	bne	1af0 <xmit_datablock+0x38>
    1b0c:	e3a000ff 	mov	r0, #255	; 0xff
    1b10:	eb0013ba 	bl	6a00 <rxTxByteSSPSPI>
    1b14:	e3a000ff 	mov	r0, #255	; 0xff
    1b18:	eb0013b8 	bl	6a00 <rxTxByteSSPSPI>
    1b1c:	e3a000ff 	mov	r0, #255	; 0xff
    1b20:	eb0013b6 	bl	6a00 <rxTxByteSSPSPI>
    1b24:	e200001f 	and	r0, r0, #31	; 0x1f
    1b28:	e3500005 	cmp	r0, #5	; 0x5
    1b2c:	13a00000 	movne	r0, #0	; 0x0
    1b30:	03a00001 	moveq	r0, #1	; 0x1
    1b34:	e8bd8030 	pop	{r4, r5, pc}

00001b38 <release_spi>:
    1b38:	e59f3030 	ldr	r3, [pc, #48]	; 1b70 <release_spi+0x38>
    1b3c:	e3a02b01 	mov	r2, #1024	; 0x400
    1b40:	e5832004 	str	r2, [r3, #4]
    1b44:	e52de004 	push	{lr}		; (str lr, [sp, #-4]!)
    1b48:	e3a000ff 	mov	r0, #255	; 0xff
    1b4c:	eb0013ab 	bl	6a00 <rxTxByteSSPSPI>
    1b50:	e59f301c 	ldr	r3, [pc, #28]	; 1b74 <release_spi+0x3c>
    1b54:	e5933000 	ldr	r3, [r3]
    1b58:	e3a01000 	mov	r1, #0	; 0x0
    1b5c:	e5930000 	ldr	r0, [r3]
    1b60:	e1a02001 	mov	r2, r1
    1b64:	e1a03001 	mov	r3, r1
    1b68:	e49de004 	pop	{lr}		; (ldr lr, [sp], #4)
    1b6c:	ea001ba0 	b	89f4 <xQueueGenericSend>
    1b70:	e0028000 	.word	0xe0028000
    1b74:	40000a78 	.word	0x40000a78

00001b78 <get_spi>:
    1b78:	e59f3030 	ldr	r3, [pc, #48]	; 1bb0 <get_spi+0x38>
    1b7c:	e5933000 	ldr	r3, [r3]
    1b80:	e3a01000 	mov	r1, #0	; 0x0
    1b84:	e59f2028 	ldr	r2, [pc, #40]	; 1bb4 <get_spi+0x3c>
    1b88:	e52de004 	push	{lr}		; (str lr, [sp, #-4]!)
    1b8c:	e5930000 	ldr	r0, [r3]
    1b90:	e1a03001 	mov	r3, r1
    1b94:	eb001ada 	bl	8704 <xQueueGenericReceive>
    1b98:	e3500000 	cmp	r0, #0	; 0x0
    1b9c:	159f3014 	ldrne	r3, [pc, #20]	; 1bb8 <get_spi+0x40>
    1ba0:	13a02b01 	movne	r2, #1024	; 0x400
    1ba4:	1583200c 	strne	r2, [r3, #12]
    1ba8:	13a00001 	movne	r0, #1	; 0x1
    1bac:	e49df004 	pop	{pc}		; (ldr pc, [sp], #4)
    1bb0:	40000a78 	.word	0x40000a78
    1bb4:	00000bb8 	.word	0x00000bb8
    1bb8:	e0028000 	.word	0xe0028000

00001bbc <getSDCardInfo>:
    1bbc:	e92d40f0 	push	{r4, r5, r6, r7, lr}
    1bc0:	e1a04000 	mov	r4, r0
    1bc4:	ebffffeb 	bl	1b78 <get_spi>
    1bc8:	e3500000 	cmp	r0, #0	; 0x0
    1bcc:	08bd80f0 	popeq	{r4, r5, r6, r7, pc}
    1bd0:	e3a0004a 	mov	r0, #74	; 0x4a
    1bd4:	e3a01000 	mov	r1, #0	; 0x0
    1bd8:	ebffff81 	bl	19e4 <send_cmd>
    1bdc:	e3500000 	cmp	r0, #0	; 0x0
    1be0:	0a000002 	beq	1bf0 <getSDCardInfo+0x34>
    1be4:	ebffffd3 	bl	1b38 <release_spi>
    1be8:	e3a00000 	mov	r0, #0	; 0x0
    1bec:	e8bd80f0 	pop	{r4, r5, r6, r7, pc}
    1bf0:	e3a000ff 	mov	r0, #255	; 0xff
    1bf4:	eb001381 	bl	6a00 <rxTxByteSSPSPI>
    1bf8:	e35000fe 	cmp	r0, #254	; 0xfe
    1bfc:	1afffffb 	bne	1bf0 <getSDCardInfo+0x34>
    1c00:	e1a06004 	mov	r6, r4
    1c04:	e3a05000 	mov	r5, #0	; 0x0
    1c08:	e3a07060 	mov	r7, #96	; 0x60
    1c0c:	e3a000ff 	mov	r0, #255	; 0xff
    1c10:	eb00137a 	bl	6a00 <rxTxByteSSPSPI>
    1c14:	e355000e 	cmp	r5, #14	; 0xe
    1c18:	979ff105 	ldrls	pc, [pc, r5, lsl #2]
    1c1c:	ea000022 	b	1cac <getSDCardInfo+0xf0>
    1c20:	00001c5c 	.word	0x00001c5c
    1c24:	00001c64 	.word	0x00001c64
    1c28:	00001c64 	.word	0x00001c64
    1c2c:	00001c6c 	.word	0x00001c6c
    1c30:	00001c6c 	.word	0x00001c6c
    1c34:	00001c6c 	.word	0x00001c6c
    1c38:	00001c6c 	.word	0x00001c6c
    1c3c:	00001c6c 	.word	0x00001c6c
    1c40:	00001c74 	.word	0x00001c74
    1c44:	00001c7c 	.word	0x00001c7c
    1c48:	00001c7c 	.word	0x00001c7c
    1c4c:	00001c7c 	.word	0x00001c7c
    1c50:	00001c7c 	.word	0x00001c7c
    1c54:	00001c8c 	.word	0x00001c8c
    1c58:	00001c98 	.word	0x00001c98
    1c5c:	e5c40000 	strb	r0, [r4]
    1c60:	ea000011 	b	1cac <getSDCardInfo+0xf0>
    1c64:	e5c60000 	strb	r0, [r6]
    1c68:	ea00000f 	b	1cac <getSDCardInfo+0xf0>
    1c6c:	e5c60001 	strb	r0, [r6, #1]
    1c70:	ea00000d 	b	1cac <getSDCardInfo+0xf0>
    1c74:	e5c4000a 	strb	r0, [r4, #10]
    1c78:	ea00000b 	b	1cac <getSDCardInfo+0xf0>
    1c7c:	e594300c 	ldr	r3, [r4, #12]
    1c80:	e1833710 	orr	r3, r3, r0, lsl r7
    1c84:	e584300c 	str	r3, [r4, #12]
    1c88:	ea000007 	b	1cac <getSDCardInfo+0xf0>
    1c8c:	e1a03200 	lsl	r3, r0, #4
    1c90:	e5c43010 	strb	r3, [r4, #16]
    1c94:	ea000004 	b	1cac <getSDCardInfo+0xf0>
    1c98:	e5d43010 	ldrb	r3, [r4, #16]
    1c9c:	e200200f 	and	r2, r0, #15	; 0xf
    1ca0:	e1833220 	orr	r3, r3, r0, lsr #4
    1ca4:	e5c43010 	strb	r3, [r4, #16]
    1ca8:	e5c42011 	strb	r2, [r4, #17]
    1cac:	e2853001 	add	r3, r5, #1	; 0x1
    1cb0:	e20350ff 	and	r5, r3, #255	; 0xff
    1cb4:	e3550012 	cmp	r5, #18	; 0x12
    1cb8:	e2866001 	add	r6, r6, #1	; 0x1
    1cbc:	e2477008 	sub	r7, r7, #8	; 0x8
    1cc0:	1affffd1 	bne	1c0c <getSDCardInfo+0x50>
    1cc4:	ebffff9b 	bl	1b38 <release_spi>
    1cc8:	e3a00001 	mov	r0, #1	; 0x1
    1ccc:	e8bd80f0 	pop	{r4, r5, r6, r7, pc}

00001cd0 <disk_write>:
    1cd0:	e31000ff 	tst	r0, #255	; 0xff
    1cd4:	e92d4070 	push	{r4, r5, r6, lr}
    1cd8:	03a00000 	moveq	r0, #0	; 0x0
    1cdc:	13a00001 	movne	r0, #1	; 0x1
    1ce0:	e21340ff 	ands	r4, r3, #255	; 0xff
    1ce4:	03800001 	orreq	r0, r0, #1	; 0x1
    1ce8:	e3500000 	cmp	r0, #0	; 0x0
    1cec:	e1a06001 	mov	r6, r1
    1cf0:	e1a05002 	mov	r5, r2
    1cf4:	13a00004 	movne	r0, #4	; 0x4
    1cf8:	18bd8070 	popne	{r4, r5, r6, pc}
    1cfc:	e59f20dc 	ldr	r2, [pc, #220]	; 1de0 <disk_write+0x110>
    1d00:	e5d23000 	ldrb	r3, [r2]
    1d04:	e3130001 	tst	r3, #1	; 0x1
    1d08:	13a00003 	movne	r0, #3	; 0x3
    1d0c:	18bd8070 	popne	{r4, r5, r6, pc}
    1d10:	e5d23000 	ldrb	r3, [r2]
    1d14:	e3130004 	tst	r3, #4	; 0x4
    1d18:	13a00002 	movne	r0, #2	; 0x2
    1d1c:	18bd8070 	popne	{r4, r5, r6, pc}
    1d20:	ebffff94 	bl	1b78 <get_spi>
    1d24:	e3500000 	cmp	r0, #0	; 0x0
    1d28:	02800001 	addeq	r0, r0, #1	; 0x1
    1d2c:	08bd8070 	popeq	{r4, r5, r6, pc}
    1d30:	e59f30ac 	ldr	r3, [pc, #172]	; 1de4 <disk_write+0x114>
    1d34:	e5d33000 	ldrb	r3, [r3]
    1d38:	e3130008 	tst	r3, #8	; 0x8
    1d3c:	01a05485 	lsleq	r5, r5, #9
    1d40:	e3540001 	cmp	r4, #1	; 0x1
    1d44:	1a00000a 	bne	1d74 <disk_write+0xa4>
    1d48:	e1a01005 	mov	r1, r5
    1d4c:	e3a00058 	mov	r0, #88	; 0x58
    1d50:	ebffff23 	bl	19e4 <send_cmd>
    1d54:	e3500000 	cmp	r0, #0	; 0x0
    1d58:	1a00001c 	bne	1dd0 <disk_write+0x100>
    1d5c:	e1a00006 	mov	r0, r6
    1d60:	e3a010fe 	mov	r1, #254	; 0xfe
    1d64:	ebffff53 	bl	1ab8 <xmit_datablock>
    1d68:	e2704001 	rsbs	r4, r0, #1	; 0x1
    1d6c:	33a04000 	movcc	r4, #0	; 0x0
    1d70:	ea000016 	b	1dd0 <disk_write+0x100>
    1d74:	e3130006 	tst	r3, #6	; 0x6
    1d78:	13a000d7 	movne	r0, #215	; 0xd7
    1d7c:	11a01004 	movne	r1, r4
    1d80:	1bffff17 	blne	19e4 <send_cmd>
    1d84:	e1a01005 	mov	r1, r5
    1d88:	e3a00059 	mov	r0, #89	; 0x59
    1d8c:	ebffff14 	bl	19e4 <send_cmd>
    1d90:	e3500000 	cmp	r0, #0	; 0x0
    1d94:	1a00000d 	bne	1dd0 <disk_write+0x100>
    1d98:	e1a00006 	mov	r0, r6
    1d9c:	e3a010fc 	mov	r1, #252	; 0xfc
    1da0:	ebffff44 	bl	1ab8 <xmit_datablock>
    1da4:	e3500000 	cmp	r0, #0	; 0x0
    1da8:	e2443001 	sub	r3, r4, #1	; 0x1
    1dac:	e2866c02 	add	r6, r6, #512	; 0x200
    1db0:	0a000001 	beq	1dbc <disk_write+0xec>
    1db4:	e21340ff 	ands	r4, r3, #255	; 0xff
    1db8:	1afffff6 	bne	1d98 <disk_write+0xc8>
    1dbc:	e3a00000 	mov	r0, #0	; 0x0
    1dc0:	e3a010fd 	mov	r1, #253	; 0xfd
    1dc4:	ebffff3b 	bl	1ab8 <xmit_datablock>
    1dc8:	e3500000 	cmp	r0, #0	; 0x0
    1dcc:	03a04001 	moveq	r4, #1	; 0x1
    1dd0:	ebffff58 	bl	1b38 <release_spi>
    1dd4:	e2540000 	subs	r0, r4, #0	; 0x0
    1dd8:	13a00001 	movne	r0, #1	; 0x1
    1ddc:	e8bd8070 	pop	{r4, r5, r6, pc}
    1de0:	400000f8 	.word	0x400000f8
    1de4:	40000a74 	.word	0x40000a74

00001de8 <disk_read>:
    1de8:	e31000ff 	tst	r0, #255	; 0xff
    1dec:	e92d4070 	push	{r4, r5, r6, lr}
    1df0:	03a00000 	moveq	r0, #0	; 0x0
    1df4:	13a00001 	movne	r0, #1	; 0x1
    1df8:	e21360ff 	ands	r6, r3, #255	; 0xff
    1dfc:	03800001 	orreq	r0, r0, #1	; 0x1
    1e00:	e3500000 	cmp	r0, #0	; 0x0
    1e04:	e1a05001 	mov	r5, r1
    1e08:	e1a04002 	mov	r4, r2
    1e0c:	13a00004 	movne	r0, #4	; 0x4
    1e10:	18bd8070 	popne	{r4, r5, r6, pc}
    1e14:	e59f30b4 	ldr	r3, [pc, #180]	; 1ed0 <disk_read+0xe8>
    1e18:	e5d33000 	ldrb	r3, [r3]
    1e1c:	e3130001 	tst	r3, #1	; 0x1
    1e20:	13a00003 	movne	r0, #3	; 0x3
    1e24:	18bd8070 	popne	{r4, r5, r6, pc}
    1e28:	ebffff52 	bl	1b78 <get_spi>
    1e2c:	e3500000 	cmp	r0, #0	; 0x0
    1e30:	02800001 	addeq	r0, r0, #1	; 0x1
    1e34:	08bd8070 	popeq	{r4, r5, r6, pc}
    1e38:	e59f3094 	ldr	r3, [pc, #148]	; 1ed4 <disk_read+0xec>
    1e3c:	e5d33000 	ldrb	r3, [r3]
    1e40:	e3130008 	tst	r3, #8	; 0x8
    1e44:	01a04484 	lsleq	r4, r4, #9
    1e48:	e3560001 	cmp	r6, #1	; 0x1
    1e4c:	1a00000a 	bne	1e7c <disk_read+0x94>
    1e50:	e1a01004 	mov	r1, r4
    1e54:	e3a00051 	mov	r0, #81	; 0x51
    1e58:	ebfffee1 	bl	19e4 <send_cmd>
    1e5c:	e3500000 	cmp	r0, #0	; 0x0
    1e60:	1a000016 	bne	1ec0 <disk_read+0xd8>
    1e64:	e1a00005 	mov	r0, r5
    1e68:	e3a01c02 	mov	r1, #512	; 0x200
    1e6c:	ebfffea4 	bl	1904 <rcvr_datablock>
    1e70:	e2706001 	rsbs	r6, r0, #1	; 0x1
    1e74:	33a06000 	movcc	r6, #0	; 0x0
    1e78:	ea000010 	b	1ec0 <disk_read+0xd8>
    1e7c:	e1a01004 	mov	r1, r4
    1e80:	e3a00052 	mov	r0, #82	; 0x52
    1e84:	ebfffed6 	bl	19e4 <send_cmd>
    1e88:	e3500000 	cmp	r0, #0	; 0x0
    1e8c:	1a00000b 	bne	1ec0 <disk_read+0xd8>
    1e90:	e1a00005 	mov	r0, r5
    1e94:	e3a01c02 	mov	r1, #512	; 0x200
    1e98:	ebfffe99 	bl	1904 <rcvr_datablock>
    1e9c:	e3500000 	cmp	r0, #0	; 0x0
    1ea0:	e2463001 	sub	r3, r6, #1	; 0x1
    1ea4:	e2855c02 	add	r5, r5, #512	; 0x200
    1ea8:	0a000001 	beq	1eb4 <disk_read+0xcc>
    1eac:	e21360ff 	ands	r6, r3, #255	; 0xff
    1eb0:	1afffff6 	bne	1e90 <disk_read+0xa8>
    1eb4:	e3a0004c 	mov	r0, #76	; 0x4c
    1eb8:	e3a01000 	mov	r1, #0	; 0x0
    1ebc:	ebfffec8 	bl	19e4 <send_cmd>
    1ec0:	ebffff1c 	bl	1b38 <release_spi>
    1ec4:	e2560000 	subs	r0, r6, #0	; 0x0
    1ec8:	13a00001 	movne	r0, #1	; 0x1
    1ecc:	e8bd8070 	pop	{r4, r5, r6, pc}
    1ed0:	400000f8 	.word	0x400000f8
    1ed4:	40000a74 	.word	0x40000a74

00001ed8 <power_off>:
    1ed8:	e52de004 	push	{lr}		; (str lr, [sp, #-4]!)
    1edc:	ebffff25 	bl	1b78 <get_spi>
    1ee0:	e3500000 	cmp	r0, #0	; 0x0
    1ee4:	049df004 	popeq	{pc}		; (ldreq pc, [sp], #4)
    1ee8:	ebfffeae 	bl	19a8 <wait_ready>
    1eec:	ebffff11 	bl	1b38 <release_spi>
    1ef0:	e59f200c 	ldr	r2, [pc, #12]	; 1f04 <power_off+0x2c>
    1ef4:	e5d23000 	ldrb	r3, [r2]
    1ef8:	e3833001 	orr	r3, r3, #1	; 0x1
    1efc:	e5c23000 	strb	r3, [r2]
    1f00:	e49df004 	pop	{pc}		; (ldr pc, [sp], #4)
    1f04:	400000f8 	.word	0x400000f8

00001f08 <disk_ioctl>:
    1f08:	e92d4070 	push	{r4, r5, r6, lr}
    1f0c:	e21000ff 	ands	r0, r0, #255	; 0xff
    1f10:	e24dd010 	sub	sp, sp, #16	; 0x10
    1f14:	e1a05002 	mov	r5, r2
    1f18:	e20110ff 	and	r1, r1, #255	; 0xff
    1f1c:	1a0000d4 	bne	2274 <disk_ioctl+0x36c>
    1f20:	e3510004 	cmp	r1, #4	; 0x4
    1f24:	1a000015 	bne	1f80 <disk_ioctl+0x78>
    1f28:	e5d23000 	ldrb	r3, [r2]
    1f2c:	e3530001 	cmp	r3, #1	; 0x1
    1f30:	0a0000d1 	beq	227c <disk_ioctl+0x374>
    1f34:	3a000002 	bcc	1f44 <disk_ioctl+0x3c>
    1f38:	e3530002 	cmp	r3, #2	; 0x2
    1f3c:	1a0000cc 	bne	2274 <disk_ioctl+0x36c>
    1f40:	ea000006 	b	1f60 <disk_ioctl+0x58>
    1f44:	e59f3340 	ldr	r3, [pc, #832]	; 228c <disk_ioctl+0x384>
    1f48:	e5933000 	ldr	r3, [r3]
    1f4c:	e2130801 	ands	r0, r3, #65536	; 0x10000
    1f50:	1a0000c9 	bne	227c <disk_ioctl+0x374>
    1f54:	e1a04000 	mov	r4, r0
    1f58:	ebffffde 	bl	1ed8 <power_off>
    1f5c:	ea0000c7 	b	2280 <disk_ioctl+0x378>
    1f60:	e59f3324 	ldr	r3, [pc, #804]	; 228c <disk_ioctl+0x384>
    1f64:	e5933000 	ldr	r3, [r3]
    1f68:	e1a03823 	lsr	r3, r3, #16
    1f6c:	e2233001 	eor	r3, r3, #1	; 0x1
    1f70:	e2033001 	and	r3, r3, #1	; 0x1
    1f74:	e5c23001 	strb	r3, [r2, #1]
    1f78:	e1a04000 	mov	r4, r0
    1f7c:	ea0000bf 	b	2280 <disk_ioctl+0x378>
    1f80:	e59f3308 	ldr	r3, [pc, #776]	; 2290 <disk_ioctl+0x388>
    1f84:	e5d33000 	ldrb	r3, [r3]
    1f88:	e3130001 	tst	r3, #1	; 0x1
    1f8c:	13a04003 	movne	r4, #3	; 0x3
    1f90:	1a0000ba 	bne	2280 <disk_ioctl+0x378>
    1f94:	e351000e 	cmp	r1, #14	; 0xe
    1f98:	979ff101 	ldrls	pc, [pc, r1, lsl #2]
    1f9c:	ea00000e 	b	1fdc <disk_ioctl+0xd4>
    1fa0:	00001fe4 	.word	0x00001fe4
    1fa4:	00002004 	.word	0x00002004
    1fa8:	0000209c 	.word	0x0000209c
    1fac:	000020a8 	.word	0x000020a8
    1fb0:	00001fdc 	.word	0x00001fdc
    1fb4:	00001fdc 	.word	0x00001fdc
    1fb8:	00001fdc 	.word	0x00001fdc
    1fbc:	00001fdc 	.word	0x00001fdc
    1fc0:	00001fdc 	.word	0x00001fdc
    1fc4:	00001fdc 	.word	0x00001fdc
    1fc8:	000021a4 	.word	0x000021a4
    1fcc:	000021b4 	.word	0x000021b4
    1fd0:	000021bc 	.word	0x000021bc
    1fd4:	000021dc 	.word	0x000021dc
    1fd8:	00002230 	.word	0x00002230
    1fdc:	e3a04004 	mov	r4, #4	; 0x4
    1fe0:	ea0000a1 	b	226c <disk_ioctl+0x364>
    1fe4:	ebfffee3 	bl	1b78 <get_spi>
    1fe8:	e3500000 	cmp	r0, #0	; 0x0
    1fec:	03a04001 	moveq	r4, #1	; 0x1
    1ff0:	0a0000a2 	beq	2280 <disk_ioctl+0x378>
    1ff4:	ebfffe6b 	bl	19a8 <wait_ready>
    1ff8:	e35000ff 	cmp	r0, #255	; 0xff
    1ffc:	1a000099 	bne	2268 <disk_ioctl+0x360>
    2000:	ea000096 	b	2260 <disk_ioctl+0x358>
    2004:	e3a00049 	mov	r0, #73	; 0x49
    2008:	e3a01000 	mov	r1, #0	; 0x0
    200c:	ebfffe74 	bl	19e4 <send_cmd>
    2010:	e2504000 	subs	r4, r0, #0	; 0x0
    2014:	1a000093 	bne	2268 <disk_ioctl+0x360>
    2018:	e1a0000d 	mov	r0, sp
    201c:	e3a01010 	mov	r1, #16	; 0x10
    2020:	ebfffe37 	bl	1904 <rcvr_datablock>
    2024:	e3500000 	cmp	r0, #0	; 0x0
    2028:	0a00008e 	beq	2268 <disk_ioctl+0x360>
    202c:	e5dd3000 	ldrb	r3, [sp]
    2030:	e1a03323 	lsr	r3, r3, #6
    2034:	e3530001 	cmp	r3, #1	; 0x1
    2038:	e5dde009 	ldrb	lr, [sp, #9]
    203c:	e5ddc008 	ldrb	ip, [sp, #8]
    2040:	028e3001 	addeq	r3, lr, #1	; 0x1
    2044:	0083340c 	addeq	r3, r3, ip, lsl #8
    2048:	01a03803 	lsleq	r3, r3, #16
    204c:	01a03323 	lsreq	r3, r3, #6
    2050:	0a00002e 	beq	2110 <disk_ioctl+0x208>
    2054:	e5dd3005 	ldrb	r3, [sp, #5]
    2058:	e5dd100a 	ldrb	r1, [sp, #10]
    205c:	e5dd2007 	ldrb	r2, [sp, #7]
    2060:	e203300f 	and	r3, r3, #15	; 0xf
    2064:	e08333a1 	add	r3, r3, r1, lsr #7
    2068:	e5dd0006 	ldrb	r0, [sp, #6]
    206c:	e1a02102 	lsl	r2, r2, #2
    2070:	e082232c 	add	r2, r2, ip, lsr #6
    2074:	e2833002 	add	r3, r3, #2	; 0x2
    2078:	e20e1003 	and	r1, lr, #3	; 0x3
    207c:	e0833081 	add	r3, r3, r1, lsl #1
    2080:	e2822001 	add	r2, r2, #1	; 0x1
    2084:	e2000003 	and	r0, r0, #3	; 0x3
    2088:	e0822500 	add	r2, r2, r0, lsl #10
    208c:	e2433009 	sub	r3, r3, #9	; 0x9
    2090:	e1a02312 	lsl	r2, r2, r3
    2094:	e5852000 	str	r2, [r5]
    2098:	ea000073 	b	226c <disk_ioctl+0x364>
    209c:	e3a03c02 	mov	r3, #512	; 0x200
    20a0:	e1c230b0 	strh	r3, [r2]
    20a4:	ea00006d 	b	2260 <disk_ioctl+0x358>
    20a8:	e59f41e4 	ldr	r4, [pc, #484]	; 2294 <disk_ioctl+0x38c>
    20ac:	e5d43000 	ldrb	r3, [r4]
    20b0:	e2131004 	ands	r1, r3, #4	; 0x4
    20b4:	0a000017 	beq	2118 <disk_ioctl+0x210>
    20b8:	e3a000cd 	mov	r0, #205	; 0xcd
    20bc:	e3a01000 	mov	r1, #0	; 0x0
    20c0:	ebfffe47 	bl	19e4 <send_cmd>
    20c4:	e3500000 	cmp	r0, #0	; 0x0
    20c8:	1a000066 	bne	2268 <disk_ioctl+0x360>
    20cc:	e28000ff 	add	r0, r0, #255	; 0xff
    20d0:	eb00124a 	bl	6a00 <rxTxByteSSPSPI>
    20d4:	e1a0000d 	mov	r0, sp
    20d8:	e3a01010 	mov	r1, #16	; 0x10
    20dc:	ebfffe08 	bl	1904 <rcvr_datablock>
    20e0:	e3500000 	cmp	r0, #0	; 0x0
    20e4:	0a00005f 	beq	2268 <disk_ioctl+0x360>
    20e8:	e3a04030 	mov	r4, #48	; 0x30
    20ec:	e3a000ff 	mov	r0, #255	; 0xff
    20f0:	eb001242 	bl	6a00 <rxTxByteSSPSPI>
    20f4:	e2443001 	sub	r3, r4, #1	; 0x1
    20f8:	e21340ff 	ands	r4, r3, #255	; 0xff
    20fc:	1afffffa 	bne	20ec <disk_ioctl+0x1e4>
    2100:	e5dd200a 	ldrb	r2, [sp, #10]
    2104:	e3a03010 	mov	r3, #16	; 0x10
    2108:	e1a02222 	lsr	r2, r2, #4
    210c:	e1a03213 	lsl	r3, r3, r2
    2110:	e5853000 	str	r3, [r5]
    2114:	ea000054 	b	226c <disk_ioctl+0x364>
    2118:	e3a00049 	mov	r0, #73	; 0x49
    211c:	ebfffe30 	bl	19e4 <send_cmd>
    2120:	e2506000 	subs	r6, r0, #0	; 0x0
    2124:	1a00004f 	bne	2268 <disk_ioctl+0x360>
    2128:	e1a0000d 	mov	r0, sp
    212c:	e3a01010 	mov	r1, #16	; 0x10
    2130:	ebfffdf3 	bl	1904 <rcvr_datablock>
    2134:	e3500000 	cmp	r0, #0	; 0x0
    2138:	0a00004a 	beq	2268 <disk_ioctl+0x360>
    213c:	e5d43000 	ldrb	r3, [r4]
    2140:	e2130002 	ands	r0, r3, #2	; 0x2
    2144:	e5dd100a 	ldrb	r1, [sp, #10]
    2148:	e5dd200b 	ldrb	r2, [sp, #11]
    214c:	0a000009 	beq	2178 <disk_ioctl+0x270>
    2150:	e5dd300d 	ldrb	r3, [sp, #13]
    2154:	e1a023a2 	lsr	r2, r2, #7
    2158:	e2822001 	add	r2, r2, #1	; 0x1
    215c:	e201103f 	and	r1, r1, #63	; 0x3f
    2160:	e1a03323 	lsr	r3, r3, #6
    2164:	e0822081 	add	r2, r2, r1, lsl #1
    2168:	e2433001 	sub	r3, r3, #1	; 0x1
    216c:	e1a02312 	lsl	r2, r2, r3
    2170:	e5852000 	str	r2, [r5]
    2174:	ea00002b 	b	2228 <disk_ioctl+0x320>
    2178:	e1a032a2 	lsr	r3, r2, #5
    217c:	e201107c 	and	r1, r1, #124	; 0x7c
    2180:	e1a01121 	lsr	r1, r1, #2
    2184:	e2833001 	add	r3, r3, #1	; 0x1
    2188:	e2022003 	and	r2, r2, #3	; 0x3
    218c:	e0833182 	add	r3, r3, r2, lsl #3
    2190:	e2811001 	add	r1, r1, #1	; 0x1
    2194:	e0030391 	mul	r3, r1, r3
    2198:	e1a04000 	mov	r4, r0
    219c:	e5853000 	str	r3, [r5]
    21a0:	ea000031 	b	226c <disk_ioctl+0x364>
    21a4:	e59f30e8 	ldr	r3, [pc, #232]	; 2294 <disk_ioctl+0x38c>
    21a8:	e5d33000 	ldrb	r3, [r3]
    21ac:	e5c23000 	strb	r3, [r2]
    21b0:	ea00002a 	b	2260 <disk_ioctl+0x358>
    21b4:	e3a00049 	mov	r0, #73	; 0x49
    21b8:	ea000000 	b	21c0 <disk_ioctl+0x2b8>
    21bc:	e3a0004a 	mov	r0, #74	; 0x4a
    21c0:	e3a01000 	mov	r1, #0	; 0x0
    21c4:	ebfffe06 	bl	19e4 <send_cmd>
    21c8:	e3500000 	cmp	r0, #0	; 0x0
    21cc:	01a00005 	moveq	r0, r5
    21d0:	03a01010 	moveq	r1, #16	; 0x10
    21d4:	1a000023 	bne	2268 <disk_ioctl+0x360>
    21d8:	ea00001d 	b	2254 <disk_ioctl+0x34c>
    21dc:	e3a0007a 	mov	r0, #122	; 0x7a
    21e0:	e3a01000 	mov	r1, #0	; 0x0
    21e4:	ebfffdfe 	bl	19e4 <send_cmd>
    21e8:	e2506000 	subs	r6, r0, #0	; 0x0
    21ec:	1a00001d 	bne	2268 <disk_ioctl+0x360>
    21f0:	e28000ff 	add	r0, r0, #255	; 0xff
    21f4:	eb001201 	bl	6a00 <rxTxByteSSPSPI>
    21f8:	e1a04005 	mov	r4, r5
    21fc:	e4c40001 	strb	r0, [r4], #1
    2200:	e3a000ff 	mov	r0, #255	; 0xff
    2204:	eb0011fd 	bl	6a00 <rxTxByteSSPSPI>
    2208:	e5c50001 	strb	r0, [r5, #1]
    220c:	e3a000ff 	mov	r0, #255	; 0xff
    2210:	eb0011fa 	bl	6a00 <rxTxByteSSPSPI>
    2214:	e5c40001 	strb	r0, [r4, #1]
    2218:	e3a000ff 	mov	r0, #255	; 0xff
    221c:	eb0011f7 	bl	6a00 <rxTxByteSSPSPI>
    2220:	e2844001 	add	r4, r4, #1	; 0x1
    2224:	e5c40001 	strb	r0, [r4, #1]
    2228:	e1a04006 	mov	r4, r6
    222c:	ea00000e 	b	226c <disk_ioctl+0x364>
    2230:	e3a000cd 	mov	r0, #205	; 0xcd
    2234:	e3a01000 	mov	r1, #0	; 0x0
    2238:	ebfffde9 	bl	19e4 <send_cmd>
    223c:	e3500000 	cmp	r0, #0	; 0x0
    2240:	1a000008 	bne	2268 <disk_ioctl+0x360>
    2244:	e28000ff 	add	r0, r0, #255	; 0xff
    2248:	eb0011ec 	bl	6a00 <rxTxByteSSPSPI>
    224c:	e1a00005 	mov	r0, r5
    2250:	e3a01040 	mov	r1, #64	; 0x40
    2254:	ebfffdaa 	bl	1904 <rcvr_datablock>
    2258:	e3500000 	cmp	r0, #0	; 0x0
    225c:	0a000001 	beq	2268 <disk_ioctl+0x360>
    2260:	e3a04000 	mov	r4, #0	; 0x0
    2264:	ea000000 	b	226c <disk_ioctl+0x364>
    2268:	e3a04001 	mov	r4, #1	; 0x1
    226c:	ebfffe31 	bl	1b38 <release_spi>
    2270:	ea000002 	b	2280 <disk_ioctl+0x378>
    2274:	e3a04004 	mov	r4, #4	; 0x4
    2278:	ea000000 	b	2280 <disk_ioctl+0x378>
    227c:	e3a04000 	mov	r4, #0	; 0x0
    2280:	e1a00004 	mov	r0, r4
    2284:	e28dd010 	add	sp, sp, #16	; 0x10
    2288:	e8bd8070 	pop	{r4, r5, r6, pc}
    228c:	e0028000 	.word	0xe0028000
    2290:	400000f8 	.word	0x400000f8
    2294:	40000a74 	.word	0x40000a74

00002298 <disk_initialize>:
    2298:	e92d4070 	push	{r4, r5, r6, lr}
    229c:	e31000ff 	tst	r0, #255	; 0xff
    22a0:	e24dd004 	sub	sp, sp, #4	; 0x4
    22a4:	1a000073 	bne	2478 <disk_initialize+0x1e0>
    22a8:	e59f21d4 	ldr	r2, [pc, #468]	; 2484 <disk_initialize+0x1ec>
    22ac:	e5d23000 	ldrb	r3, [r2]
    22b0:	e3130002 	tst	r3, #2	; 0x2
    22b4:	15d23000 	ldrbne	r3, [r2]
    22b8:	1a00006c 	bne	2470 <disk_initialize+0x1d8>
    22bc:	e3a000c8 	mov	r0, #200	; 0xc8
    22c0:	eb0011da 	bl	6a30 <setSSPSPI_Divider>
    22c4:	e3a0400a 	mov	r4, #10	; 0xa
    22c8:	e3a000ff 	mov	r0, #255	; 0xff
    22cc:	eb0011cb 	bl	6a00 <rxTxByteSSPSPI>
    22d0:	e2443001 	sub	r3, r4, #1	; 0x1
    22d4:	e21340ff 	ands	r4, r3, #255	; 0xff
    22d8:	1afffffa 	bne	22c8 <disk_initialize+0x30>
    22dc:	ebfffe25 	bl	1b78 <get_spi>
    22e0:	e3500000 	cmp	r0, #0	; 0x0
    22e4:	0a000063 	beq	2478 <disk_initialize+0x1e0>
    22e8:	e3a00040 	mov	r0, #64	; 0x40
    22ec:	e1a01004 	mov	r1, r4
    22f0:	ebfffdbb 	bl	19e4 <send_cmd>
    22f4:	e3500001 	cmp	r0, #1	; 0x1
    22f8:	1a00004c 	bne	2430 <disk_initialize+0x198>
    22fc:	e59f5184 	ldr	r5, [pc, #388]	; 2488 <disk_initialize+0x1f0>
    2300:	e3a03064 	mov	r3, #100	; 0x64
    2304:	e2800047 	add	r0, r0, #71	; 0x47
    2308:	e59f117c 	ldr	r1, [pc, #380]	; 248c <disk_initialize+0x1f4>
    230c:	e5c53000 	strb	r3, [r5]
    2310:	ebfffdb3 	bl	19e4 <send_cmd>
    2314:	e3500001 	cmp	r0, #1	; 0x1
    2318:	1a00002b 	bne	23cc <disk_initialize+0x134>
    231c:	e1a0500d 	mov	r5, sp
    2320:	e3a000ff 	mov	r0, #255	; 0xff
    2324:	eb0011b5 	bl	6a00 <rxTxByteSSPSPI>
    2328:	e7c50004 	strb	r0, [r5, r4]
    232c:	e2844001 	add	r4, r4, #1	; 0x1
    2330:	e3540004 	cmp	r4, #4	; 0x4
    2334:	1afffff9 	bne	2320 <disk_initialize+0x88>
    2338:	e5dd3002 	ldrb	r3, [sp, #2]
    233c:	e3530001 	cmp	r3, #1	; 0x1
    2340:	1a00003a 	bne	2430 <disk_initialize+0x198>
    2344:	e5dd3003 	ldrb	r3, [sp, #3]
    2348:	e35300aa 	cmp	r3, #170	; 0xaa
    234c:	1a000037 	bne	2430 <disk_initialize+0x198>
    2350:	e59f4130 	ldr	r4, [pc, #304]	; 2488 <disk_initialize+0x1f0>
    2354:	e5d43000 	ldrb	r3, [r4]
    2358:	e3530000 	cmp	r3, #0	; 0x0
    235c:	e3a000e9 	mov	r0, #233	; 0xe9
    2360:	e3a01101 	mov	r1, #1073741824	; 0x40000000
    2364:	0a000002 	beq	2374 <disk_initialize+0xdc>
    2368:	ebfffd9d 	bl	19e4 <send_cmd>
    236c:	e3500000 	cmp	r0, #0	; 0x0
    2370:	1afffff7 	bne	2354 <disk_initialize+0xbc>
    2374:	e59f310c 	ldr	r3, [pc, #268]	; 2488 <disk_initialize+0x1f0>
    2378:	e5d33000 	ldrb	r3, [r3]
    237c:	e3530000 	cmp	r3, #0	; 0x0
    2380:	0a00002a 	beq	2430 <disk_initialize+0x198>
    2384:	e3a0007a 	mov	r0, #122	; 0x7a
    2388:	e3a01000 	mov	r1, #0	; 0x0
    238c:	ebfffd94 	bl	19e4 <send_cmd>
    2390:	e3500000 	cmp	r0, #0	; 0x0
    2394:	1a000025 	bne	2430 <disk_initialize+0x198>
    2398:	e1a04000 	mov	r4, r0
    239c:	e1a0500d 	mov	r5, sp
    23a0:	e3a000ff 	mov	r0, #255	; 0xff
    23a4:	eb001195 	bl	6a00 <rxTxByteSSPSPI>
    23a8:	e7c50004 	strb	r0, [r5, r4]
    23ac:	e2844001 	add	r4, r4, #1	; 0x1
    23b0:	e3540004 	cmp	r4, #4	; 0x4
    23b4:	1afffff9 	bne	23a0 <disk_initialize+0x108>
    23b8:	e5dd3000 	ldrb	r3, [sp]
    23bc:	e3130040 	tst	r3, #64	; 0x40
    23c0:	13a0400c 	movne	r4, #12	; 0xc
    23c4:	03a04004 	moveq	r4, #4	; 0x4
    23c8:	ea000019 	b	2434 <disk_initialize+0x19c>
    23cc:	e1a01004 	mov	r1, r4
    23d0:	e3a000e9 	mov	r0, #233	; 0xe9
    23d4:	ebfffd82 	bl	19e4 <send_cmd>
    23d8:	e3500002 	cmp	r0, #2	; 0x2
    23dc:	e1a06005 	mov	r6, r5
    23e0:	33a04002 	movcc	r4, #2	; 0x2
    23e4:	23a04001 	movcs	r4, #1	; 0x1
    23e8:	33a050e9 	movcc	r5, #233	; 0xe9
    23ec:	23a05041 	movcs	r5, #65	; 0x41
    23f0:	e5d63000 	ldrb	r3, [r6]
    23f4:	e3a01000 	mov	r1, #0	; 0x0
    23f8:	e1530001 	cmp	r3, r1
    23fc:	e1a00005 	mov	r0, r5
    2400:	0a000002 	beq	2410 <disk_initialize+0x178>
    2404:	ebfffd76 	bl	19e4 <send_cmd>
    2408:	e3500000 	cmp	r0, #0	; 0x0
    240c:	1afffff7 	bne	23f0 <disk_initialize+0x158>
    2410:	e59f3070 	ldr	r3, [pc, #112]	; 2488 <disk_initialize+0x1f0>
    2414:	e5d33000 	ldrb	r3, [r3]
    2418:	e3530000 	cmp	r3, #0	; 0x0
    241c:	0a000004 	beq	2434 <disk_initialize+0x19c>
    2420:	e3a01c02 	mov	r1, #512	; 0x200
    2424:	e3a00050 	mov	r0, #80	; 0x50
    2428:	ebfffd6d 	bl	19e4 <send_cmd>
    242c:	ea000000 	b	2434 <disk_initialize+0x19c>
    2430:	e3a04000 	mov	r4, #0	; 0x0
    2434:	e59f3054 	ldr	r3, [pc, #84]	; 2490 <disk_initialize+0x1f8>
    2438:	e5c34000 	strb	r4, [r3]
    243c:	ebfffdbd 	bl	1b38 <release_spi>
    2440:	e3540000 	cmp	r4, #0	; 0x0
    2444:	0a000006 	beq	2464 <disk_initialize+0x1cc>
    2448:	e59f2034 	ldr	r2, [pc, #52]	; 2484 <disk_initialize+0x1ec>
    244c:	e5d23000 	ldrb	r3, [r2]
    2450:	e20330fe 	and	r3, r3, #254	; 0xfe
    2454:	e3a00002 	mov	r0, #2	; 0x2
    2458:	e5c23000 	strb	r3, [r2]
    245c:	eb001173 	bl	6a30 <setSSPSPI_Divider>
    2460:	ea000000 	b	2468 <disk_initialize+0x1d0>
    2464:	ebfffe9b 	bl	1ed8 <power_off>
    2468:	e59f3014 	ldr	r3, [pc, #20]	; 2484 <disk_initialize+0x1ec>
    246c:	e5d33000 	ldrb	r3, [r3]
    2470:	e20300ff 	and	r0, r3, #255	; 0xff
    2474:	ea000000 	b	247c <disk_initialize+0x1e4>
    2478:	e3a00001 	mov	r0, #1	; 0x1
    247c:	e28dd004 	add	sp, sp, #4	; 0x4
    2480:	e8bd8070 	pop	{r4, r5, r6, pc}
    2484:	400000f8 	.word	0x400000f8
    2488:	40000a7c 	.word	0x40000a7c
    248c:	000001aa 	.word	0x000001aa
    2490:	40000a74 	.word	0x40000a74

00002494 <clust2sect>:
    2494:	e590301c 	ldr	r3, [r0, #28]
    2498:	e2411002 	sub	r1, r1, #2	; 0x2
    249c:	e2433002 	sub	r3, r3, #2	; 0x2
    24a0:	e1510003 	cmp	r1, r3
    24a4:	3590202c 	ldrcc	r2, [r0, #44]
    24a8:	35d03002 	ldrbcc	r3, [r0, #2]
    24ac:	23a00000 	movcs	r0, #0	; 0x0
    24b0:	30202193 	mlacc	r0, r3, r1, r2
    24b4:	e12fff1e 	bx	lr

000024b8 <gen_numname>:
    24b8:	e92d4010 	push	{r4, lr}
    24bc:	e1a03803 	lsl	r3, r3, #16
    24c0:	e1a04000 	mov	r4, r0
    24c4:	e24dd008 	sub	sp, sp, #8	; 0x8
    24c8:	e1a00823 	lsr	r0, r3, #16
    24cc:	e3a0c000 	mov	ip, #0	; 0x0
    24d0:	e7d1300c 	ldrb	r3, [r1, ip]
    24d4:	e7c4300c 	strb	r3, [r4, ip]
    24d8:	e28cc001 	add	ip, ip, #1	; 0x1
    24dc:	e35c000b 	cmp	ip, #11	; 0xb
    24e0:	1afffffa 	bne	24d0 <gen_numname+0x18>
    24e4:	e3500005 	cmp	r0, #5	; 0x5
    24e8:	9a000009 	bls	2514 <gen_numname+0x5c>
    24ec:	e1a0c002 	mov	ip, r2
    24f0:	e1a03780 	lsl	r3, r0, #15
    24f4:	e1dc10b0 	ldrh	r1, [ip]
    24f8:	e18330a0 	orr	r3, r3, r0, lsr #1
    24fc:	e1fc20b2 	ldrh	r2, [ip, #2]!
    2500:	e0833001 	add	r3, r3, r1
    2504:	e1a03803 	lsl	r3, r3, #16
    2508:	e3520000 	cmp	r2, #0	; 0x0
    250c:	e1a00823 	lsr	r0, r3, #16
    2510:	1afffff6 	bne	24f0 <gen_numname+0x38>
    2514:	e3a01007 	mov	r1, #7	; 0x7
    2518:	e1a0200d 	mov	r2, sp
    251c:	e200300f 	and	r3, r0, #15	; 0xf
    2520:	e2833030 	add	r3, r3, #48	; 0x30
    2524:	e3530039 	cmp	r3, #57	; 0x39
    2528:	82833007 	addhi	r3, r3, #7	; 0x7
    252c:	e1b00220 	lsrs	r0, r0, #4
    2530:	e7c23001 	strb	r3, [r2, r1]
    2534:	e2411001 	sub	r1, r1, #1	; 0x1
    2538:	1afffff7 	bne	251c <gen_numname+0x64>
    253c:	e28d3008 	add	r3, sp, #8	; 0x8
    2540:	e0832001 	add	r2, r3, r1
    2544:	e3a0307e 	mov	r3, #126	; 0x7e
    2548:	e5423008 	strb	r3, [r2, #-8]
    254c:	e1a02000 	mov	r2, r0
    2550:	ea000000 	b	2558 <gen_numname+0xa0>
    2554:	e2822001 	add	r2, r2, #1	; 0x1
    2558:	e1520001 	cmp	r2, r1
    255c:	2a000002 	bcs	256c <gen_numname+0xb4>
    2560:	e7d43002 	ldrb	r3, [r4, r2]
    2564:	e3530020 	cmp	r3, #32	; 0x20
    2568:	1afffff9 	bne	2554 <gen_numname+0x9c>
    256c:	e0840002 	add	r0, r4, r2
    2570:	e28dc008 	add	ip, sp, #8	; 0x8
    2574:	e3510007 	cmp	r1, #7	; 0x7
    2578:	e08c3001 	add	r3, ip, r1
    257c:	95533008 	ldrbls	r3, [r3, #-8]
    2580:	e2822001 	add	r2, r2, #1	; 0x1
    2584:	83a03020 	movhi	r3, #32	; 0x20
    2588:	92811001 	addls	r1, r1, #1	; 0x1
    258c:	e3520007 	cmp	r2, #7	; 0x7
    2590:	e4c03001 	strb	r3, [r0], #1
    2594:	9afffff5 	bls	2570 <gen_numname+0xb8>
    2598:	e28dd008 	add	sp, sp, #8	; 0x8
    259c:	e8bd8010 	pop	{r4, pc}

000025a0 <check_fs>:
    25a0:	e92d4010 	push	{r4, lr}
    25a4:	e1a04000 	mov	r4, r0
    25a8:	e1a02001 	mov	r2, r1
    25ac:	e5d00001 	ldrb	r0, [r0, #1]
    25b0:	e2841034 	add	r1, r4, #52	; 0x34
    25b4:	e3a03001 	mov	r3, #1	; 0x1
    25b8:	ebfffe0a 	bl	1de8 <disk_read>
    25bc:	e250c000 	subs	ip, r0, #0	; 0x0
    25c0:	13a00003 	movne	r0, #3	; 0x3
    25c4:	18bd8010 	popne	{r4, pc}
    25c8:	e5d43233 	ldrb	r3, [r4, #563]
    25cc:	e5d42232 	ldrb	r2, [r4, #562]
    25d0:	e1822403 	orr	r2, r2, r3, lsl #8
    25d4:	e59f306c 	ldr	r3, [pc, #108]	; 2648 <check_fs+0xa8>
    25d8:	e1520003 	cmp	r2, r3
    25dc:	13a00002 	movne	r0, #2	; 0x2
    25e0:	18bd8010 	popne	{r4, pc}
    25e4:	e5d4306c 	ldrb	r3, [r4, #108]
    25e8:	e5d4206d 	ldrb	r2, [r4, #109]
    25ec:	e1a03803 	lsl	r3, r3, #16
    25f0:	e5d4106a 	ldrb	r1, [r4, #106]
    25f4:	e1833c02 	orr	r3, r3, r2, lsl #24
    25f8:	e5d4206b 	ldrb	r2, [r4, #107]
    25fc:	e1833001 	orr	r3, r3, r1
    2600:	e59f0044 	ldr	r0, [pc, #68]	; 264c <check_fs+0xac>
    2604:	e1833402 	orr	r3, r3, r2, lsl #8
    2608:	e3c334ff 	bic	r3, r3, #-16777216	; 0xff000000
    260c:	e1530000 	cmp	r3, r0
    2610:	01a0000c 	moveq	r0, ip
    2614:	08bd8010 	popeq	{r4, pc}
    2618:	e5d43088 	ldrb	r3, [r4, #136]
    261c:	e5d42089 	ldrb	r2, [r4, #137]
    2620:	e5d41086 	ldrb	r1, [r4, #134]
    2624:	e1a03803 	lsl	r3, r3, #16
    2628:	e1833c02 	orr	r3, r3, r2, lsl #24
    262c:	e5d42087 	ldrb	r2, [r4, #135]
    2630:	e1833001 	orr	r3, r3, r1
    2634:	e1833402 	orr	r3, r3, r2, lsl #8
    2638:	e3c334ff 	bic	r3, r3, #-16777216	; 0xff000000
    263c:	e0530000 	subs	r0, r3, r0
    2640:	13a00001 	movne	r0, #1	; 0x1
    2644:	e8bd8010 	pop	{r4, pc}
    2648:	0000aa55 	.word	0x0000aa55
    264c:	00544146 	.word	0x00544146

00002650 <chk_mounted>:
    2650:	e92d45f0 	push	{r4, r5, r6, r7, r8, sl, lr}
    2654:	e590c000 	ldr	ip, [r0]
    2658:	e5dc3000 	ldrb	r3, [ip]
    265c:	e2434030 	sub	r4, r3, #48	; 0x30
    2660:	e3540009 	cmp	r4, #9	; 0x9
    2664:	e20260ff 	and	r6, r2, #255	; 0xff
    2668:	8a000007 	bhi	268c <chk_mounted+0x3c>
    266c:	e5dc3001 	ldrb	r3, [ip, #1]
    2670:	e353003a 	cmp	r3, #58	; 0x3a
    2674:	1a000004 	bne	268c <chk_mounted+0x3c>
    2678:	e3540000 	cmp	r4, #0	; 0x0
    267c:	e28c3002 	add	r3, ip, #2	; 0x2
    2680:	e5803000 	str	r3, [r0]
    2684:	13a0000b 	movne	r0, #11	; 0xb
    2688:	18bd85f0 	popne	{r4, r5, r6, r7, r8, sl, pc}
    268c:	e59f33e4 	ldr	r3, [pc, #996]	; 2a78 <chk_mounted+0x428>
    2690:	e5935000 	ldr	r5, [r3]
    2694:	e3550000 	cmp	r5, #0	; 0x0
    2698:	e5815000 	str	r5, [r1]
    269c:	03a0000c 	moveq	r0, #12	; 0xc
    26a0:	08bd85f0 	popeq	{r4, r5, r6, r7, r8, sl, pc}
    26a4:	e595000c 	ldr	r0, [r5, #12]
    26a8:	eb000d88 	bl	5cd0 <ff_req_grant>
    26ac:	e3500000 	cmp	r0, #0	; 0x0
    26b0:	0280000f 	addeq	r0, r0, #15	; 0xf
    26b4:	08bd85f0 	popeq	{r4, r5, r6, r7, r8, sl, pc}
    26b8:	e5d53000 	ldrb	r3, [r5]
    26bc:	e3530000 	cmp	r3, #0	; 0x0
    26c0:	0a000008 	beq	26e8 <chk_mounted+0x98>
    26c4:	e5d50001 	ldrb	r0, [r5, #1]
    26c8:	ebfffc65 	bl	1864 <disk_status>
    26cc:	e3100001 	tst	r0, #1	; 0x1
    26d0:	1a000004 	bne	26e8 <chk_mounted+0x98>
    26d4:	e3560000 	cmp	r6, #0	; 0x0
    26d8:	0a0000e2 	beq	2a68 <chk_mounted+0x418>
    26dc:	e3100004 	tst	r0, #4	; 0x4
    26e0:	1a0000de 	bne	2a60 <chk_mounted+0x410>
    26e4:	ea0000df 	b	2a68 <chk_mounted+0x418>
    26e8:	e3a00000 	mov	r0, #0	; 0x0
    26ec:	e5c50000 	strb	r0, [r5]
    26f0:	e5c50001 	strb	r0, [r5, #1]
    26f4:	ebfffee7 	bl	2298 <disk_initialize>
    26f8:	e3100001 	tst	r0, #1	; 0x1
    26fc:	13a00003 	movne	r0, #3	; 0x3
    2700:	18bd85f0 	popne	{r4, r5, r6, r7, r8, sl, pc}
    2704:	e3560000 	cmp	r6, #0	; 0x0
    2708:	0a000001 	beq	2714 <chk_mounted+0xc4>
    270c:	e3100004 	tst	r0, #4	; 0x4
    2710:	1a0000d2 	bne	2a60 <chk_mounted+0x410>
    2714:	e1a00005 	mov	r0, r5
    2718:	e3a01000 	mov	r1, #0	; 0x0
    271c:	ebffff9f 	bl	25a0 <check_fs>
    2720:	e3500001 	cmp	r0, #1	; 0x1
    2724:	13a0a000 	movne	sl, #0	; 0x0
    2728:	1a00000f 	bne	276c <chk_mounted+0x11c>
    272c:	e5d531f6 	ldrb	r3, [r5, #502]
    2730:	e3530000 	cmp	r3, #0	; 0x0
    2734:	e2853e1f 	add	r3, r5, #496	; 0x1f0
    2738:	e2833002 	add	r3, r3, #2	; 0x2
    273c:	0a0000cb 	beq	2a70 <chk_mounted+0x420>
    2740:	e5d3300a 	ldrb	r3, [r3, #10]
    2744:	e5d521fd 	ldrb	r2, [r5, #509]
    2748:	e5d511fa 	ldrb	r1, [r5, #506]
    274c:	e1a03803 	lsl	r3, r3, #16
    2750:	e1833c02 	orr	r3, r3, r2, lsl #24
    2754:	e5d521fb 	ldrb	r2, [r5, #507]
    2758:	e1833001 	orr	r3, r3, r1
    275c:	e183a402 	orr	sl, r3, r2, lsl #8
    2760:	e1a00005 	mov	r0, r5
    2764:	e1a0100a 	mov	r1, sl
    2768:	ebffff8c 	bl	25a0 <check_fs>
    276c:	e3500003 	cmp	r0, #3	; 0x3
    2770:	03a00001 	moveq	r0, #1	; 0x1
    2774:	08bd85f0 	popeq	{r4, r5, r6, r7, r8, sl, pc}
    2778:	e3500000 	cmp	r0, #0	; 0x0
    277c:	1a0000bb 	bne	2a70 <chk_mounted+0x420>
    2780:	e5d52040 	ldrb	r2, [r5, #64]
    2784:	e5d5303f 	ldrb	r3, [r5, #63]
    2788:	e1833402 	orr	r3, r3, r2, lsl #8
    278c:	e3530c02 	cmp	r3, #512	; 0x200
    2790:	1a0000b6 	bne	2a70 <chk_mounted+0x420>
    2794:	e5d5204b 	ldrb	r2, [r5, #75]
    2798:	e5d5304a 	ldrb	r3, [r5, #74]
    279c:	e1934402 	orrs	r4, r3, r2, lsl #8
    27a0:	1a000007 	bne	27c4 <chk_mounted+0x174>
    27a4:	e5d5305a 	ldrb	r3, [r5, #90]
    27a8:	e5d5205b 	ldrb	r2, [r5, #91]
    27ac:	e1a03803 	lsl	r3, r3, #16
    27b0:	e5d51058 	ldrb	r1, [r5, #88]
    27b4:	e1833c02 	orr	r3, r3, r2, lsl #24
    27b8:	e5d52059 	ldrb	r2, [r5, #89]
    27bc:	e1833001 	orr	r3, r3, r1
    27c0:	e1834402 	orr	r4, r3, r2, lsl #8
    27c4:	e5d5e044 	ldrb	lr, [r5, #68]
    27c8:	e24e3001 	sub	r3, lr, #1	; 0x1
    27cc:	e3530001 	cmp	r3, #1	; 0x1
    27d0:	e5854020 	str	r4, [r5, #32]
    27d4:	e5c5e003 	strb	lr, [r5, #3]
    27d8:	8a0000a4 	bhi	2a70 <chk_mounted+0x420>
    27dc:	e5d52041 	ldrb	r2, [r5, #65]
    27e0:	e3520000 	cmp	r2, #0	; 0x0
    27e4:	e5c52002 	strb	r2, [r5, #2]
    27e8:	0a0000a0 	beq	2a70 <chk_mounted+0x420>
    27ec:	e2423001 	sub	r3, r2, #1	; 0x1
    27f0:	e1130002 	tst	r3, r2
    27f4:	1a00009d 	bne	2a70 <chk_mounted+0x420>
    27f8:	e5d52046 	ldrb	r2, [r5, #70]
    27fc:	e5d53045 	ldrb	r3, [r5, #69]
    2800:	e183c402 	orr	ip, r3, r2, lsl #8
    2804:	e31c000f 	tst	ip, #15	; 0xf
    2808:	e1c5c0b8 	strh	ip, [r5, #8]
    280c:	1a000097 	bne	2a70 <chk_mounted+0x420>
    2810:	e5d52048 	ldrb	r2, [r5, #72]
    2814:	e5d53047 	ldrb	r3, [r5, #71]
    2818:	e1930402 	orrs	r0, r3, r2, lsl #8
    281c:	1a000007 	bne	2840 <chk_mounted+0x1f0>
    2820:	e5d53056 	ldrb	r3, [r5, #86]
    2824:	e5d52057 	ldrb	r2, [r5, #87]
    2828:	e1a03803 	lsl	r3, r3, #16
    282c:	e5d51054 	ldrb	r1, [r5, #84]
    2830:	e1833c02 	orr	r3, r3, r2, lsl #24
    2834:	e5d52055 	ldrb	r2, [r5, #85]
    2838:	e1833001 	orr	r3, r3, r1
    283c:	e1830402 	orr	r0, r3, r2, lsl #8
    2840:	e5d52043 	ldrb	r2, [r5, #67]
    2844:	e5d53042 	ldrb	r3, [r5, #66]
    2848:	e1936402 	orrs	r6, r3, r2, lsl #8
    284c:	0a000087 	beq	2a70 <chk_mounted+0x420>
    2850:	e008049e 	mul	r8, lr, r4
    2854:	e086322c 	add	r3, r6, ip, lsr #4
    2858:	e0834008 	add	r4, r3, r8
    285c:	e1500004 	cmp	r0, r4
    2860:	3a000082 	bcc	2a70 <chk_mounted+0x420>
    2864:	e0640000 	rsb	r0, r4, r0
    2868:	e5d51002 	ldrb	r1, [r5, #2]
    286c:	eb001de7 	bl	a010 <__aeabi_uidiv>
    2870:	e3500000 	cmp	r0, #0	; 0x0
    2874:	0a00007d 	beq	2a70 <chk_mounted+0x420>
    2878:	e59f31fc 	ldr	r3, [pc, #508]	; 2a7c <chk_mounted+0x42c>
    287c:	e1500003 	cmp	r0, r3
    2880:	93a07001 	movls	r7, #1	; 0x1
    2884:	9a000003 	bls	2898 <chk_mounted+0x248>
    2888:	e59f31f0 	ldr	r3, [pc, #496]	; 2a80 <chk_mounted+0x430>
    288c:	e1500003 	cmp	r0, r3
    2890:	93a07002 	movls	r7, #2	; 0x2
    2894:	83a07003 	movhi	r7, #3	; 0x3
    2898:	e084300a 	add	r3, r4, sl
    289c:	e2800002 	add	r0, r0, #2	; 0x2
    28a0:	e08a2006 	add	r2, sl, r6
    28a4:	e3570003 	cmp	r7, #3	; 0x3
    28a8:	e585302c 	str	r3, [r5, #44]
    28ac:	e585001c 	str	r0, [r5, #28]
    28b0:	e5852024 	str	r2, [r5, #36]
    28b4:	e1d530b8 	ldrh	r3, [r5, #8]
    28b8:	1a00000c 	bne	28f0 <chk_mounted+0x2a0>
    28bc:	e3530000 	cmp	r3, #0	; 0x0
    28c0:	1a00006a 	bne	2a70 <chk_mounted+0x420>
    28c4:	e5d53062 	ldrb	r3, [r5, #98]
    28c8:	e5d52063 	ldrb	r2, [r5, #99]
    28cc:	e1a03803 	lsl	r3, r3, #16
    28d0:	e5d51060 	ldrb	r1, [r5, #96]
    28d4:	e1833c02 	orr	r3, r3, r2, lsl #24
    28d8:	e5d52061 	ldrb	r2, [r5, #97]
    28dc:	e1833001 	orr	r3, r3, r1
    28e0:	e1833402 	orr	r3, r3, r2, lsl #8
    28e4:	e5853028 	str	r3, [r5, #40]
    28e8:	e1a00100 	lsl	r0, r0, #2
    28ec:	ea000009 	b	2918 <chk_mounted+0x2c8>
    28f0:	e3530000 	cmp	r3, #0	; 0x0
    28f4:	0a00005d 	beq	2a70 <chk_mounted+0x420>
    28f8:	e0883002 	add	r3, r8, r2
    28fc:	e3570002 	cmp	r7, #2	; 0x2
    2900:	e5853028 	str	r3, [r5, #40]
    2904:	13a03003 	movne	r3, #3	; 0x3
    2908:	10020093 	mulne	r2, r3, r0
    290c:	12003001 	andne	r3, r0, #1	; 0x1
    2910:	01a00080 	lsleq	r0, r0, #1
    2914:	108300a2 	addne	r0, r3, r2, lsr #1
    2918:	e2803f7f 	add	r3, r0, #508	; 0x1fc
    291c:	e5952020 	ldr	r2, [r5, #32]
    2920:	e2833003 	add	r3, r3, #3	; 0x3
    2924:	e15204a3 	cmp	r2, r3, lsr #9
    2928:	3a000050 	bcc	2a70 <chk_mounted+0x420>
    292c:	e3a01000 	mov	r1, #0	; 0x0
    2930:	e3e03000 	mvn	r3, #0	; 0x0
    2934:	e3570003 	cmp	r7, #3	; 0x3
    2938:	e5853014 	str	r3, [r5, #20]
    293c:	e5851010 	str	r1, [r5, #16]
    2940:	1a000039 	bne	2a2c <chk_mounted+0x3dc>
    2944:	e5d53065 	ldrb	r3, [r5, #101]
    2948:	e5d52064 	ldrb	r2, [r5, #100]
    294c:	e1822403 	orr	r2, r2, r3, lsl #8
    2950:	e08a2002 	add	r2, sl, r2
    2954:	e5c51005 	strb	r1, [r5, #5]
    2958:	e5852018 	str	r2, [r5, #24]
    295c:	e5d50001 	ldrb	r0, [r5, #1]
    2960:	e2851034 	add	r1, r5, #52	; 0x34
    2964:	e3a03001 	mov	r3, #1	; 0x1
    2968:	ebfffd1e 	bl	1de8 <disk_read>
    296c:	e3500000 	cmp	r0, #0	; 0x0
    2970:	1a00002d 	bne	2a2c <chk_mounted+0x3dc>
    2974:	e5d53233 	ldrb	r3, [r5, #563]
    2978:	e5d52232 	ldrb	r2, [r5, #562]
    297c:	e1822403 	orr	r2, r2, r3, lsl #8
    2980:	e59f30fc 	ldr	r3, [pc, #252]	; 2a84 <chk_mounted+0x434>
    2984:	e1520003 	cmp	r2, r3
    2988:	1a000027 	bne	2a2c <chk_mounted+0x3dc>
    298c:	e5d53036 	ldrb	r3, [r5, #54]
    2990:	e5d52037 	ldrb	r2, [r5, #55]
    2994:	e1a03803 	lsl	r3, r3, #16
    2998:	e5d51034 	ldrb	r1, [r5, #52]
    299c:	e1833c02 	orr	r3, r3, r2, lsl #24
    29a0:	e5d52035 	ldrb	r2, [r5, #53]
    29a4:	e1833001 	orr	r3, r3, r1
    29a8:	e1833402 	orr	r3, r3, r2, lsl #8
    29ac:	e59f20d4 	ldr	r2, [pc, #212]	; 2a88 <chk_mounted+0x438>
    29b0:	e1530002 	cmp	r3, r2
    29b4:	1a00001c 	bne	2a2c <chk_mounted+0x3dc>
    29b8:	e5d5321a 	ldrb	r3, [r5, #538]
    29bc:	e5d5221b 	ldrb	r2, [r5, #539]
    29c0:	e1a03803 	lsl	r3, r3, #16
    29c4:	e5d51218 	ldrb	r1, [r5, #536]
    29c8:	e1833c02 	orr	r3, r3, r2, lsl #24
    29cc:	e5d52219 	ldrb	r2, [r5, #537]
    29d0:	e1833001 	orr	r3, r3, r1
    29d4:	e1833402 	orr	r3, r3, r2, lsl #8
    29d8:	e59f20ac 	ldr	r2, [pc, #172]	; 2a8c <chk_mounted+0x43c>
    29dc:	e1530002 	cmp	r3, r2
    29e0:	1a000011 	bne	2a2c <chk_mounted+0x3dc>
    29e4:	e5d53222 	ldrb	r3, [r5, #546]
    29e8:	e5d5221e 	ldrb	r2, [r5, #542]
    29ec:	e5d51223 	ldrb	r1, [r5, #547]
    29f0:	e5d5021f 	ldrb	r0, [r5, #543]
    29f4:	e1a03803 	lsl	r3, r3, #16
    29f8:	e1a02802 	lsl	r2, r2, #16
    29fc:	e5d5c220 	ldrb	ip, [r5, #544]
    2a00:	e5d5421c 	ldrb	r4, [r5, #540]
    2a04:	e1833c01 	orr	r3, r3, r1, lsl #24
    2a08:	e1822c00 	orr	r2, r2, r0, lsl #24
    2a0c:	e5d51221 	ldrb	r1, [r5, #545]
    2a10:	e5d5021d 	ldrb	r0, [r5, #541]
    2a14:	e183300c 	orr	r3, r3, ip
    2a18:	e1822004 	orr	r2, r2, r4
    2a1c:	e1833401 	orr	r3, r3, r1, lsl #8
    2a20:	e1822400 	orr	r2, r2, r0, lsl #8
    2a24:	e5853010 	str	r3, [r5, #16]
    2a28:	e5852014 	str	r2, [r5, #20]
    2a2c:	e5c57000 	strb	r7, [r5]
    2a30:	e59f3058 	ldr	r3, [pc, #88]	; 2a90 <chk_mounted+0x440>
    2a34:	e1d320b0 	ldrh	r2, [r3]
    2a38:	e2822001 	add	r2, r2, #1	; 0x1
    2a3c:	e1a02802 	lsl	r2, r2, #16
    2a40:	e3a01000 	mov	r1, #0	; 0x0
    2a44:	e1a02822 	lsr	r2, r2, #16
    2a48:	e1c320b0 	strh	r2, [r3]
    2a4c:	e5851030 	str	r1, [r5, #48]
    2a50:	e1c520b6 	strh	r2, [r5, #6]
    2a54:	e5c51004 	strb	r1, [r5, #4]
    2a58:	e1a00001 	mov	r0, r1
    2a5c:	e8bd85f0 	pop	{r4, r5, r6, r7, r8, sl, pc}
    2a60:	e3a0000a 	mov	r0, #10	; 0xa
    2a64:	e8bd85f0 	pop	{r4, r5, r6, r7, r8, sl, pc}
    2a68:	e3a00000 	mov	r0, #0	; 0x0
    2a6c:	e8bd85f0 	pop	{r4, r5, r6, r7, r8, sl, pc}
    2a70:	e3a0000d 	mov	r0, #13	; 0xd
    2a74:	e8bd85f0 	pop	{r4, r5, r6, r7, r8, sl, pc}
    2a78:	40000920 	.word	0x40000920
    2a7c:	00000ff5 	.word	0x00000ff5
    2a80:	0000fff5 	.word	0x0000fff5
    2a84:	0000aa55 	.word	0x0000aa55
    2a88:	41615252 	.word	0x41615252
    2a8c:	61417272 	.word	0x61417272
    2a90:	40000924 	.word	0x40000924

00002a94 <validate>:
    2a94:	e92d4010 	push	{r4, lr}
    2a98:	e1a01801 	lsl	r1, r1, #16
    2a9c:	e2504000 	subs	r4, r0, #0	; 0x0
    2aa0:	e1a01821 	lsr	r1, r1, #16
    2aa4:	0a00000f 	beq	2ae8 <validate+0x54>
    2aa8:	e5d43000 	ldrb	r3, [r4]
    2aac:	e3530000 	cmp	r3, #0	; 0x0
    2ab0:	0a00000c 	beq	2ae8 <validate+0x54>
    2ab4:	e1d430b6 	ldrh	r3, [r4, #6]
    2ab8:	e1530001 	cmp	r3, r1
    2abc:	1a000009 	bne	2ae8 <validate+0x54>
    2ac0:	e594000c 	ldr	r0, [r4, #12]
    2ac4:	eb000c81 	bl	5cd0 <ff_req_grant>
    2ac8:	e3500000 	cmp	r0, #0	; 0x0
    2acc:	0280000f 	addeq	r0, r0, #15	; 0xf
    2ad0:	08bd8010 	popeq	{r4, pc}
    2ad4:	e5d40001 	ldrb	r0, [r4, #1]
    2ad8:	ebfffb61 	bl	1864 <disk_status>
    2adc:	e2100001 	ands	r0, r0, #1	; 0x1
    2ae0:	13a00003 	movne	r0, #3	; 0x3
    2ae4:	e8bd8010 	pop	{r4, pc}
    2ae8:	e3a00009 	mov	r0, #9	; 0x9
    2aec:	e8bd8010 	pop	{r4, pc}

00002af0 <get_fileinfo>:
    2af0:	e5903010 	ldr	r3, [r0, #16]
    2af4:	e3530000 	cmp	r3, #0	; 0x0
    2af8:	e92d41f0 	push	{r4, r5, r6, r7, r8, lr}
    2afc:	e1a07000 	mov	r7, r0
    2b00:	e1a05001 	mov	r5, r1
    2b04:	e2814009 	add	r4, r1, #9	; 0x9
    2b08:	0a00003c 	beq	2c00 <get_fileinfo+0x110>
    2b0c:	e590c014 	ldr	ip, [r0, #20]
    2b10:	e5dc800c 	ldrb	r8, [ip, #12]
    2b14:	e1a00004 	mov	r0, r4
    2b18:	e3a01000 	mov	r1, #0	; 0x0
    2b1c:	e2086008 	and	r6, r8, #8	; 0x8
    2b20:	e7dc3001 	ldrb	r3, [ip, r1]
    2b24:	e3530020 	cmp	r3, #32	; 0x20
    2b28:	0a00000c 	beq	2b60 <get_fileinfo+0x70>
    2b2c:	e3530005 	cmp	r3, #5	; 0x5
    2b30:	03a030e5 	moveq	r3, #229	; 0xe5
    2b34:	e3560000 	cmp	r6, #0	; 0x0
    2b38:	e2800001 	add	r0, r0, #1	; 0x1
    2b3c:	e2432041 	sub	r2, r3, #65	; 0x41
    2b40:	0a000002 	beq	2b50 <get_fileinfo+0x60>
    2b44:	e3520019 	cmp	r2, #25	; 0x19
    2b48:	e2832020 	add	r2, r3, #32	; 0x20
    2b4c:	920230ff 	andls	r3, r2, #255	; 0xff
    2b50:	e7c43001 	strb	r3, [r4, r1]
    2b54:	e2811001 	add	r1, r1, #1	; 0x1
    2b58:	e3510008 	cmp	r1, #8	; 0x8
    2b5c:	1affffef 	bne	2b20 <get_fileinfo+0x30>
    2b60:	e5dc3008 	ldrb	r3, [ip, #8]
    2b64:	e3530020 	cmp	r3, #32	; 0x20
    2b68:	0a000010 	beq	2bb0 <get_fileinfo+0xc0>
    2b6c:	e3a0302e 	mov	r3, #46	; 0x2e
    2b70:	e4c03001 	strb	r3, [r0], #1
    2b74:	e2084010 	and	r4, r8, #16	; 0x10
    2b78:	e3a01008 	mov	r1, #8	; 0x8
    2b7c:	e7dc3001 	ldrb	r3, [ip, r1]
    2b80:	e3530020 	cmp	r3, #32	; 0x20
    2b84:	e2811001 	add	r1, r1, #1	; 0x1
    2b88:	e2432041 	sub	r2, r3, #65	; 0x41
    2b8c:	0a000007 	beq	2bb0 <get_fileinfo+0xc0>
    2b90:	e3540000 	cmp	r4, #0	; 0x0
    2b94:	0a000002 	beq	2ba4 <get_fileinfo+0xb4>
    2b98:	e3520019 	cmp	r2, #25	; 0x19
    2b9c:	e2832020 	add	r2, r3, #32	; 0x20
    2ba0:	920230ff 	andls	r3, r2, #255	; 0xff
    2ba4:	e351000b 	cmp	r1, #11	; 0xb
    2ba8:	e4c03001 	strb	r3, [r0], #1
    2bac:	1afffff2 	bne	2b7c <get_fileinfo+0x8c>
    2bb0:	e5dc300b 	ldrb	r3, [ip, #11]
    2bb4:	e5c53008 	strb	r3, [r5, #8]
    2bb8:	e5dc301e 	ldrb	r3, [ip, #30]
    2bbc:	e5dc201f 	ldrb	r2, [ip, #31]
    2bc0:	e5dc101c 	ldrb	r1, [ip, #28]
    2bc4:	e1a03803 	lsl	r3, r3, #16
    2bc8:	e1833c02 	orr	r3, r3, r2, lsl #24
    2bcc:	e5dc201d 	ldrb	r2, [ip, #29]
    2bd0:	e1833001 	orr	r3, r3, r1
    2bd4:	e1833402 	orr	r3, r3, r2, lsl #8
    2bd8:	e5853000 	str	r3, [r5]
    2bdc:	e5dc2019 	ldrb	r2, [ip, #25]
    2be0:	e5dc3018 	ldrb	r3, [ip, #24]
    2be4:	e1833402 	orr	r3, r3, r2, lsl #8
    2be8:	e1c530b4 	strh	r3, [r5, #4]
    2bec:	e5dc3016 	ldrb	r3, [ip, #22]
    2bf0:	e5dc2017 	ldrb	r2, [ip, #23]
    2bf4:	e1833402 	orr	r3, r3, r2, lsl #8
    2bf8:	e1c530b6 	strh	r3, [r5, #6]
    2bfc:	e1a04000 	mov	r4, r0
    2c00:	e3a01000 	mov	r1, #0	; 0x0
    2c04:	e5c41000 	strb	r1, [r4]
    2c08:	e5956018 	ldr	r6, [r5, #24]
    2c0c:	e1560001 	cmp	r6, r1
    2c10:	08bd81f0 	popeq	{r4, r5, r6, r7, r8, pc}
    2c14:	e595301c 	ldr	r3, [r5, #28]
    2c18:	e1530001 	cmp	r3, r1
    2c1c:	08bd81f0 	popeq	{r4, r5, r6, r7, r8, pc}
    2c20:	e5973010 	ldr	r3, [r7, #16]
    2c24:	e1530001 	cmp	r3, r1
    2c28:	0a000016 	beq	2c88 <get_fileinfo+0x198>
    2c2c:	e1d722b0 	ldrh	r2, [r7, #32]
    2c30:	e59f3060 	ldr	r3, [pc, #96]	; 2c98 <get_fileinfo+0x1a8>
    2c34:	e1520003 	cmp	r2, r3
    2c38:	1597701c 	ldrne	r7, [r7, #28]
    2c3c:	11a04001 	movne	r4, r1
    2c40:	1a000009 	bne	2c6c <get_fileinfo+0x17c>
    2c44:	ea00000f 	b	2c88 <get_fileinfo+0x198>
    2c48:	eb000bed 	bl	5c04 <ff_convert>
    2c4c:	e3500000 	cmp	r0, #0	; 0x0
    2c50:	0a00000c 	beq	2c88 <get_fileinfo+0x198>
    2c54:	e595301c 	ldr	r3, [r5, #28]
    2c58:	e2433001 	sub	r3, r3, #1	; 0x1
    2c5c:	e1540003 	cmp	r4, r3
    2c60:	2a000008 	bcs	2c88 <get_fileinfo+0x198>
    2c64:	e7c60004 	strb	r0, [r6, r4]
    2c68:	e2844001 	add	r4, r4, #1	; 0x1
    2c6c:	e1a03084 	lsl	r3, r4, #1
    2c70:	e19730b3 	ldrh	r3, [r7, r3]
    2c74:	e3a01000 	mov	r1, #0	; 0x0
    2c78:	e1530001 	cmp	r3, r1
    2c7c:	e1a00003 	mov	r0, r3
    2c80:	1afffff0 	bne	2c48 <get_fileinfo+0x158>
    2c84:	ea000000 	b	2c8c <get_fileinfo+0x19c>
    2c88:	e3a04000 	mov	r4, #0	; 0x0
    2c8c:	e3a03000 	mov	r3, #0	; 0x0
    2c90:	e7c63004 	strb	r3, [r6, r4]
    2c94:	e8bd81f0 	pop	{r4, r5, r6, r7, r8, pc}
    2c98:	0000ffff 	.word	0x0000ffff

00002c9c <move_window>:
    2c9c:	e92d41f0 	push	{r4, r5, r6, r7, r8, lr}
    2ca0:	e5906030 	ldr	r6, [r0, #48]
    2ca4:	e1560001 	cmp	r6, r1
    2ca8:	e1a04000 	mov	r4, r0
    2cac:	e1a07001 	mov	r7, r1
    2cb0:	0a000029 	beq	2d5c <move_window+0xc0>
    2cb4:	e5d03004 	ldrb	r3, [r0, #4]
    2cb8:	e3530000 	cmp	r3, #0	; 0x0
    2cbc:	0a00001a 	beq	2d2c <move_window+0x90>
    2cc0:	e2808034 	add	r8, r0, #52	; 0x34
    2cc4:	e1a01008 	mov	r1, r8
    2cc8:	e5d00001 	ldrb	r0, [r0, #1]
    2ccc:	e1a02006 	mov	r2, r6
    2cd0:	e3a03001 	mov	r3, #1	; 0x1
    2cd4:	ebfffbfd 	bl	1cd0 <disk_write>
    2cd8:	e3500000 	cmp	r0, #0	; 0x0
    2cdc:	1a00001c 	bne	2d54 <move_window+0xb8>
    2ce0:	e2842020 	add	r2, r4, #32	; 0x20
    2ce4:	e892000c 	ldm	r2, {r2, r3}
    2ce8:	e0823003 	add	r3, r2, r3
    2cec:	e1560003 	cmp	r6, r3
    2cf0:	e5c40004 	strb	r0, [r4, #4]
    2cf4:	35d45003 	ldrbcc	r5, [r4, #3]
    2cf8:	3a000007 	bcc	2d1c <move_window+0x80>
    2cfc:	ea00000a 	b	2d2c <move_window+0x90>
    2d00:	e5942020 	ldr	r2, [r4, #32]
    2d04:	e0866002 	add	r6, r6, r2
    2d08:	e5d40001 	ldrb	r0, [r4, #1]
    2d0c:	e1a02006 	mov	r2, r6
    2d10:	ebfffbee 	bl	1cd0 <disk_write>
    2d14:	e2453001 	sub	r3, r5, #1	; 0x1
    2d18:	e20350ff 	and	r5, r3, #255	; 0xff
    2d1c:	e3a03001 	mov	r3, #1	; 0x1
    2d20:	e1550003 	cmp	r5, r3
    2d24:	e1a01008 	mov	r1, r8
    2d28:	8afffff4 	bhi	2d00 <move_window+0x64>
    2d2c:	e3570000 	cmp	r7, #0	; 0x0
    2d30:	0a000009 	beq	2d5c <move_window+0xc0>
    2d34:	e5d40001 	ldrb	r0, [r4, #1]
    2d38:	e2841034 	add	r1, r4, #52	; 0x34
    2d3c:	e1a02007 	mov	r2, r7
    2d40:	e3a03001 	mov	r3, #1	; 0x1
    2d44:	ebfffc27 	bl	1de8 <disk_read>
    2d48:	e3500000 	cmp	r0, #0	; 0x0
    2d4c:	05847030 	streq	r7, [r4, #48]
    2d50:	08bd81f0 	popeq	{r4, r5, r6, r7, r8, pc}
    2d54:	e3a00001 	mov	r0, #1	; 0x1
    2d58:	e8bd81f0 	pop	{r4, r5, r6, r7, r8, pc}
    2d5c:	e3a00000 	mov	r0, #0	; 0x0
    2d60:	e8bd81f0 	pop	{r4, r5, r6, r7, r8, pc}

00002d64 <put_fat>:
    2d64:	e3510001 	cmp	r1, #1	; 0x1
    2d68:	e92d45f0 	push	{r4, r5, r6, r7, r8, sl, lr}
    2d6c:	e1a04001 	mov	r4, r1
    2d70:	e1a08002 	mov	r8, r2
    2d74:	e1a05000 	mov	r5, r0
    2d78:	9a000058 	bls	2ee0 <put_fat+0x17c>
    2d7c:	e590301c 	ldr	r3, [r0, #28]
    2d80:	e1510003 	cmp	r1, r3
    2d84:	2a000055 	bcs	2ee0 <put_fat+0x17c>
    2d88:	e5d03000 	ldrb	r3, [r0]
    2d8c:	e3530002 	cmp	r3, #2	; 0x2
    2d90:	0a00002c 	beq	2e48 <put_fat+0xe4>
    2d94:	e3530003 	cmp	r3, #3	; 0x3
    2d98:	0a000037 	beq	2e7c <put_fat+0x118>
    2d9c:	e3530001 	cmp	r3, #1	; 0x1
    2da0:	13a07002 	movne	r7, #2	; 0x2
    2da4:	1a00004a 	bne	2ed4 <put_fat+0x170>
    2da8:	e5901024 	ldr	r1, [r0, #36]
    2dac:	e08460a4 	add	r6, r4, r4, lsr #1
    2db0:	e08114a6 	add	r1, r1, r6, lsr #9
    2db4:	ebffffb8 	bl	2c9c <move_window>
    2db8:	e2507000 	subs	r7, r0, #0	; 0x0
    2dbc:	1a000044 	bne	2ed4 <put_fat+0x170>
    2dc0:	e1a02b86 	lsl	r2, r6, #23
    2dc4:	e214a001 	ands	sl, r4, #1	; 0x1
    2dc8:	e1a02ba2 	lsr	r2, r2, #23
    2dcc:	10853002 	addne	r3, r5, r2
    2dd0:	15d33034 	ldrbne	r3, [r3, #52]
    2dd4:	e20810ff 	and	r1, r8, #255	; 0xff
    2dd8:	1203300f 	andne	r3, r3, #15	; 0xf
    2ddc:	11833201 	orrne	r3, r3, r1, lsl #4
    2de0:	120300ff 	andne	r0, r3, #255	; 0xff
    2de4:	01a00001 	moveq	r0, r1
    2de8:	e0853002 	add	r3, r5, r2
    2dec:	e5951024 	ldr	r1, [r5, #36]
    2df0:	e5c30034 	strb	r0, [r3, #52]
    2df4:	e2864001 	add	r4, r6, #1	; 0x1
    2df8:	e3a03001 	mov	r3, #1	; 0x1
    2dfc:	e5c53004 	strb	r3, [r5, #4]
    2e00:	e08114a4 	add	r1, r1, r4, lsr #9
    2e04:	e1a00005 	mov	r0, r5
    2e08:	ebffffa3 	bl	2c9c <move_window>
    2e0c:	e2507000 	subs	r7, r0, #0	; 0x0
    2e10:	1a00002f 	bne	2ed4 <put_fat+0x170>
    2e14:	e1a01b84 	lsl	r1, r4, #23
    2e18:	e35a0000 	cmp	sl, #0	; 0x0
    2e1c:	e1a01ba1 	lsr	r1, r1, #23
    2e20:	00853001 	addeq	r3, r5, r1
    2e24:	05d33034 	ldrbeq	r3, [r3, #52]
    2e28:	11a03228 	lsrne	r3, r8, #4
    2e2c:	01a02a08 	lsleq	r2, r8, #20
    2e30:	03c3300f 	biceq	r3, r3, #15	; 0xf
    2e34:	120320ff 	andne	r2, r3, #255	; 0xff
    2e38:	01832e22 	orreq	r2, r3, r2, lsr #28
    2e3c:	e0853001 	add	r3, r5, r1
    2e40:	e5c32034 	strb	r2, [r3, #52]
    2e44:	ea000022 	b	2ed4 <put_fat+0x170>
    2e48:	e5901024 	ldr	r1, [r0, #36]
    2e4c:	e0811424 	add	r1, r1, r4, lsr #8
    2e50:	ebffff91 	bl	2c9c <move_window>
    2e54:	e2507000 	subs	r7, r0, #0	; 0x0
    2e58:	1a00001d 	bne	2ed4 <put_fat+0x170>
    2e5c:	e1a03084 	lsl	r3, r4, #1
    2e60:	e1a03b83 	lsl	r3, r3, #23
    2e64:	e1a03ba3 	lsr	r3, r3, #23
    2e68:	e0851003 	add	r1, r5, r3
    2e6c:	e1a02428 	lsr	r2, r8, #8
    2e70:	e5c18034 	strb	r8, [r1, #52]
    2e74:	e5c12035 	strb	r2, [r1, #53]
    2e78:	ea000015 	b	2ed4 <put_fat+0x170>
    2e7c:	e5901024 	ldr	r1, [r0, #36]
    2e80:	e08113a4 	add	r1, r1, r4, lsr #7
    2e84:	ebffff84 	bl	2c9c <move_window>
    2e88:	e2507000 	subs	r7, r0, #0	; 0x0
    2e8c:	1a000010 	bne	2ed4 <put_fat+0x170>
    2e90:	e1a02104 	lsl	r2, r4, #2
    2e94:	e1a02b82 	lsl	r2, r2, #23
    2e98:	e1a02ba2 	lsr	r2, r2, #23
    2e9c:	e2821034 	add	r1, r2, #52	; 0x34
    2ea0:	e0851001 	add	r1, r5, r1
    2ea4:	e5d13003 	ldrb	r3, [r1, #3]
    2ea8:	e1a03c03 	lsl	r3, r3, #24
    2eac:	e203320f 	and	r3, r3, #-268435456	; 0xf0000000
    2eb0:	e1833008 	orr	r3, r3, r8
    2eb4:	e0852002 	add	r2, r5, r2
    2eb8:	e1a00c23 	lsr	r0, r3, #24
    2ebc:	e1a0c423 	lsr	ip, r3, #8
    2ec0:	e1a04823 	lsr	r4, r3, #16
    2ec4:	e5c23034 	strb	r3, [r2, #52]
    2ec8:	e5c10003 	strb	r0, [r1, #3]
    2ecc:	e5c1c001 	strb	ip, [r1, #1]
    2ed0:	e5c14002 	strb	r4, [r1, #2]
    2ed4:	e3a03001 	mov	r3, #1	; 0x1
    2ed8:	e5c53004 	strb	r3, [r5, #4]
    2edc:	ea000000 	b	2ee4 <put_fat+0x180>
    2ee0:	e3a07002 	mov	r7, #2	; 0x2
    2ee4:	e1a00007 	mov	r0, r7
    2ee8:	e8bd85f0 	pop	{r4, r5, r6, r7, r8, sl, pc}

00002eec <get_fat>:
    2eec:	e3510001 	cmp	r1, #1	; 0x1
    2ef0:	e92d40f0 	push	{r4, r5, r6, r7, lr}
    2ef4:	e1a06001 	mov	r6, r1
    2ef8:	e1a05000 	mov	r5, r0
    2efc:	9a000046 	bls	301c <get_fat+0x130>
    2f00:	e590301c 	ldr	r3, [r0, #28]
    2f04:	e1510003 	cmp	r1, r3
    2f08:	2a000043 	bcs	301c <get_fat+0x130>
    2f0c:	e5d03000 	ldrb	r3, [r0]
    2f10:	e3530002 	cmp	r3, #2	; 0x2
    2f14:	0a00001e 	beq	2f94 <get_fat+0xa8>
    2f18:	e3530003 	cmp	r3, #3	; 0x3
    2f1c:	0a000029 	beq	2fc8 <get_fat+0xdc>
    2f20:	e3530001 	cmp	r3, #1	; 0x1
    2f24:	1a00003e 	bne	3024 <get_fat+0x138>
    2f28:	e5901024 	ldr	r1, [r0, #36]
    2f2c:	e08640a6 	add	r4, r6, r6, lsr #1
    2f30:	e08114a4 	add	r1, r1, r4, lsr #9
    2f34:	ebffff58 	bl	2c9c <move_window>
    2f38:	e3500000 	cmp	r0, #0	; 0x0
    2f3c:	1a000038 	bne	3024 <get_fat+0x138>
    2f40:	e5951024 	ldr	r1, [r5, #36]
    2f44:	e1a03b84 	lsl	r3, r4, #23
    2f48:	e1a03ba3 	lsr	r3, r3, #23
    2f4c:	e2844001 	add	r4, r4, #1	; 0x1
    2f50:	e0853003 	add	r3, r5, r3
    2f54:	e08114a4 	add	r1, r1, r4, lsr #9
    2f58:	e1a00005 	mov	r0, r5
    2f5c:	e5d37034 	ldrb	r7, [r3, #52]
    2f60:	ebffff4d 	bl	2c9c <move_window>
    2f64:	e3500000 	cmp	r0, #0	; 0x0
    2f68:	1a00002d 	bne	3024 <get_fat+0x138>
    2f6c:	e1a03b84 	lsl	r3, r4, #23
    2f70:	e1a03ba3 	lsr	r3, r3, #23
    2f74:	e0853003 	add	r3, r5, r3
    2f78:	e5d33034 	ldrb	r3, [r3, #52]
    2f7c:	e3160001 	tst	r6, #1	; 0x1
    2f80:	e1870403 	orr	r0, r7, r3, lsl #8
    2f84:	01a00a00 	lsleq	r0, r0, #20
    2f88:	11a00220 	lsrne	r0, r0, #4
    2f8c:	01a00a20 	lsreq	r0, r0, #20
    2f90:	e8bd80f0 	pop	{r4, r5, r6, r7, pc}
    2f94:	e5901024 	ldr	r1, [r0, #36]
    2f98:	e0811426 	add	r1, r1, r6, lsr #8
    2f9c:	ebffff3e 	bl	2c9c <move_window>
    2fa0:	e3500000 	cmp	r0, #0	; 0x0
    2fa4:	1a00001e 	bne	3024 <get_fat+0x138>
    2fa8:	e1a03086 	lsl	r3, r6, #1
    2fac:	e1a03b83 	lsl	r3, r3, #23
    2fb0:	e1a03ba3 	lsr	r3, r3, #23
    2fb4:	e0851003 	add	r1, r5, r3
    2fb8:	e5d12034 	ldrb	r2, [r1, #52]
    2fbc:	e5d13035 	ldrb	r3, [r1, #53]
    2fc0:	e1820403 	orr	r0, r2, r3, lsl #8
    2fc4:	e8bd80f0 	pop	{r4, r5, r6, r7, pc}
    2fc8:	e5901024 	ldr	r1, [r0, #36]
    2fcc:	e08113a6 	add	r1, r1, r6, lsr #7
    2fd0:	ebffff31 	bl	2c9c <move_window>
    2fd4:	e3500000 	cmp	r0, #0	; 0x0
    2fd8:	1a000011 	bne	3024 <get_fat+0x138>
    2fdc:	e1a02106 	lsl	r2, r6, #2
    2fe0:	e1a02b82 	lsl	r2, r2, #23
    2fe4:	e1a02ba2 	lsr	r2, r2, #23
    2fe8:	e2821034 	add	r1, r2, #52	; 0x34
    2fec:	e0851001 	add	r1, r5, r1
    2ff0:	e5d13003 	ldrb	r3, [r1, #3]
    2ff4:	e5d10002 	ldrb	r0, [r1, #2]
    2ff8:	e0852002 	add	r2, r5, r2
    2ffc:	e1a03c03 	lsl	r3, r3, #24
    3000:	e5d11001 	ldrb	r1, [r1, #1]
    3004:	e1833800 	orr	r3, r3, r0, lsl #16
    3008:	e5d22034 	ldrb	r2, [r2, #52]
    300c:	e1833401 	orr	r3, r3, r1, lsl #8
    3010:	e1833002 	orr	r3, r3, r2
    3014:	e3c3020f 	bic	r0, r3, #-268435456	; 0xf0000000
    3018:	e8bd80f0 	pop	{r4, r5, r6, r7, pc}
    301c:	e3a00001 	mov	r0, #1	; 0x1
    3020:	e8bd80f0 	pop	{r4, r5, r6, r7, pc}
    3024:	e3e00000 	mvn	r0, #0	; 0x0
    3028:	e8bd80f0 	pop	{r4, r5, r6, r7, pc}

0000302c <dir_sdi>:
    302c:	e92d4070 	push	{r4, r5, r6, lr}
    3030:	e1a04000 	mov	r4, r0
    3034:	e5900008 	ldr	r0, [r0, #8]
    3038:	e1a01801 	lsl	r1, r1, #16
    303c:	e1a05821 	lsr	r5, r1, #16
    3040:	e3500001 	cmp	r0, #1	; 0x1
    3044:	e1c450b6 	strh	r5, [r4, #6]
    3048:	0a00003d 	beq	3144 <dir_sdi+0x118>
    304c:	e5942000 	ldr	r2, [r4]
    3050:	e592301c 	ldr	r3, [r2, #28]
    3054:	e1500003 	cmp	r0, r3
    3058:	2a000039 	bcs	3144 <dir_sdi+0x118>
    305c:	e3500000 	cmp	r0, #0	; 0x0
    3060:	1a00000e 	bne	30a0 <dir_sdi+0x74>
    3064:	e5d23000 	ldrb	r3, [r2]
    3068:	e3530003 	cmp	r3, #3	; 0x3
    306c:	1a000002 	bne	307c <dir_sdi+0x50>
    3070:	e5920028 	ldr	r0, [r2, #40]
    3074:	e3500000 	cmp	r0, #0	; 0x0
    3078:	1a000008 	bne	30a0 <dir_sdi+0x74>
    307c:	e5942000 	ldr	r2, [r4]
    3080:	e1d230b8 	ldrh	r3, [r2, #8]
    3084:	e1530005 	cmp	r3, r5
    3088:	e3a03000 	mov	r3, #0	; 0x0
    308c:	e584300c 	str	r3, [r4, #12]
    3090:	85923028 	ldrhi	r3, [r2, #40]
    3094:	80833225 	addhi	r3, r3, r5, lsr #4
    3098:	8a000020 	bhi	3120 <dir_sdi+0xf4>
    309c:	ea000028 	b	3144 <dir_sdi+0x118>
    30a0:	e5d23002 	ldrb	r3, [r2, #2]
    30a4:	e1a06203 	lsl	r6, r3, #4
    30a8:	ea00000e 	b	30e8 <dir_sdi+0xbc>
    30ac:	e5940000 	ldr	r0, [r4]
    30b0:	ebffff8d 	bl	2eec <get_fat>
    30b4:	e0663005 	rsb	r3, r6, r5
    30b8:	e1a03803 	lsl	r3, r3, #16
    30bc:	e3700001 	cmn	r0, #1	; 0x1
    30c0:	e1a05823 	lsr	r5, r3, #16
    30c4:	1a000001 	bne	30d0 <dir_sdi+0xa4>
    30c8:	e2800002 	add	r0, r0, #2	; 0x2
    30cc:	e8bd8070 	pop	{r4, r5, r6, pc}
    30d0:	e3500001 	cmp	r0, #1	; 0x1
    30d4:	9a00001a 	bls	3144 <dir_sdi+0x118>
    30d8:	e5943000 	ldr	r3, [r4]
    30dc:	e593301c 	ldr	r3, [r3, #28]
    30e0:	e1500003 	cmp	r0, r3
    30e4:	2a000016 	bcs	3144 <dir_sdi+0x118>
    30e8:	e1550006 	cmp	r5, r6
    30ec:	e1a01000 	mov	r1, r0
    30f0:	2affffed 	bcs	30ac <dir_sdi+0x80>
    30f4:	e594c000 	ldr	ip, [r4]
    30f8:	e584000c 	str	r0, [r4, #12]
    30fc:	e59c301c 	ldr	r3, [ip, #28]
    3100:	e2400002 	sub	r0, r0, #2	; 0x2
    3104:	e2433002 	sub	r3, r3, #2	; 0x2
    3108:	e1500003 	cmp	r0, r3
    310c:	35dc3002 	ldrbcc	r3, [ip, #2]
    3110:	359c202c 	ldrcc	r2, [ip, #44]
    3114:	302c2093 	mlacc	ip, r3, r0, r2
    3118:	23a0c000 	movcs	ip, #0	; 0x0
    311c:	e08c3225 	add	r3, ip, r5, lsr #4
    3120:	e5843010 	str	r3, [r4, #16]
    3124:	e205300f 	and	r3, r5, #15	; 0xf
    3128:	e1a03283 	lsl	r3, r3, #5
    312c:	e5942000 	ldr	r2, [r4]
    3130:	e2833034 	add	r3, r3, #52	; 0x34
    3134:	e0822003 	add	r2, r2, r3
    3138:	e5842014 	str	r2, [r4, #20]
    313c:	e3a00000 	mov	r0, #0	; 0x0
    3140:	e8bd8070 	pop	{r4, r5, r6, pc}
    3144:	e3a00002 	mov	r0, #2	; 0x2
    3148:	e8bd8070 	pop	{r4, r5, r6, pc}

0000314c <create_chain>:
    314c:	e92d40f0 	push	{r4, r5, r6, r7, lr}
    3150:	e2517000 	subs	r7, r1, #0	; 0x0
    3154:	e1a06000 	mov	r6, r0
    3158:	1a000006 	bne	3178 <create_chain+0x2c>
    315c:	e5904010 	ldr	r4, [r0, #16]
    3160:	e3540000 	cmp	r4, #0	; 0x0
    3164:	0a00000b 	beq	3198 <create_chain+0x4c>
    3168:	e590301c 	ldr	r3, [r0, #28]
    316c:	e1540003 	cmp	r4, r3
    3170:	2a000008 	bcs	3198 <create_chain+0x4c>
    3174:	ea000008 	b	319c <create_chain+0x50>
    3178:	ebffff5b 	bl	2eec <get_fat>
    317c:	e3500001 	cmp	r0, #1	; 0x1
    3180:	9a000033 	bls	3254 <create_chain+0x108>
    3184:	e596301c 	ldr	r3, [r6, #28]
    3188:	e1500003 	cmp	r0, r3
    318c:	21a04007 	movcs	r4, r7
    3190:	2a000001 	bcs	319c <create_chain+0x50>
    3194:	e8bd80f0 	pop	{r4, r5, r6, r7, pc}
    3198:	e3a04001 	mov	r4, #1	; 0x1
    319c:	e1a05004 	mov	r5, r4
    31a0:	e596301c 	ldr	r3, [r6, #28]
    31a4:	e2855001 	add	r5, r5, #1	; 0x1
    31a8:	e1550003 	cmp	r5, r3
    31ac:	e1a00006 	mov	r0, r6
    31b0:	3a000002 	bcc	31c0 <create_chain+0x74>
    31b4:	e3540001 	cmp	r4, #1	; 0x1
    31b8:	9a000027 	bls	325c <create_chain+0x110>
    31bc:	e3a05002 	mov	r5, #2	; 0x2
    31c0:	e1a01005 	mov	r1, r5
    31c4:	ebffff48 	bl	2eec <get_fat>
    31c8:	e3500000 	cmp	r0, #0	; 0x0
    31cc:	0a000005 	beq	31e8 <create_chain+0x9c>
    31d0:	e3700001 	cmn	r0, #1	; 0x1
    31d4:	13500001 	cmpne	r0, #1	; 0x1
    31d8:	08bd80f0 	popeq	{r4, r5, r6, r7, pc}
    31dc:	e1550004 	cmp	r5, r4
    31e0:	1affffee 	bne	31a0 <create_chain+0x54>
    31e4:	ea00001c 	b	325c <create_chain+0x110>
    31e8:	e1a00006 	mov	r0, r6
    31ec:	e1a01005 	mov	r1, r5
    31f0:	e3e0220f 	mvn	r2, #-268435456	; 0xf0000000
    31f4:	ebfffeda 	bl	2d64 <put_fat>
    31f8:	e2703001 	rsbs	r3, r0, #1	; 0x1
    31fc:	33a03000 	movcc	r3, #0	; 0x0
    3200:	e3570000 	cmp	r7, #0	; 0x0
    3204:	03a03000 	moveq	r3, #0	; 0x0
    3208:	e3530000 	cmp	r3, #0	; 0x0
    320c:	11a01007 	movne	r1, r7
    3210:	11a00006 	movne	r0, r6
    3214:	11a02005 	movne	r2, r5
    3218:	1bfffed1 	blne	2d64 <put_fat>
    321c:	e3500000 	cmp	r0, #0	; 0x0
    3220:	1a000008 	bne	3248 <create_chain+0xfc>
    3224:	e5962014 	ldr	r2, [r6, #20]
    3228:	e3720001 	cmn	r2, #1	; 0x1
    322c:	12422001 	subne	r2, r2, #1	; 0x1
    3230:	13a03001 	movne	r3, #1	; 0x1
    3234:	e5865010 	str	r5, [r6, #16]
    3238:	15c63005 	strbne	r3, [r6, #5]
    323c:	15862014 	strne	r2, [r6, #20]
    3240:	e1a00005 	mov	r0, r5
    3244:	e8bd80f0 	pop	{r4, r5, r6, r7, pc}
    3248:	e3500001 	cmp	r0, #1	; 0x1
    324c:	03e00000 	mvneq	r0, #0	; 0x0
    3250:	08bd80f0 	popeq	{r4, r5, r6, r7, pc}
    3254:	e3a00001 	mov	r0, #1	; 0x1
    3258:	e8bd80f0 	pop	{r4, r5, r6, r7, pc}
    325c:	e3a00000 	mov	r0, #0	; 0x0
    3260:	e8bd80f0 	pop	{r4, r5, r6, r7, pc}

00003264 <remove_chain>:
    3264:	e3510001 	cmp	r1, #1	; 0x1
    3268:	e92d4070 	push	{r4, r5, r6, lr}
    326c:	e1a05001 	mov	r5, r1
    3270:	e1a04000 	mov	r4, r0
    3274:	9a00001f 	bls	32f8 <remove_chain+0x94>
    3278:	e590301c 	ldr	r3, [r0, #28]
    327c:	e1510003 	cmp	r1, r3
    3280:	33a06001 	movcc	r6, #1	; 0x1
    3284:	3a000015 	bcc	32e0 <remove_chain+0x7c>
    3288:	ea00001a 	b	32f8 <remove_chain+0x94>
    328c:	ebffff16 	bl	2eec <get_fat>
    3290:	e2503000 	subs	r3, r0, #0	; 0x0
    3294:	e1a01005 	mov	r1, r5
    3298:	e3a02000 	mov	r2, #0	; 0x0
    329c:	e1a00004 	mov	r0, r4
    32a0:	e1a05003 	mov	r5, r3
    32a4:	0a000015 	beq	3300 <remove_chain+0x9c>
    32a8:	e3530001 	cmp	r3, #1	; 0x1
    32ac:	0a000011 	beq	32f8 <remove_chain+0x94>
    32b0:	e3730001 	cmn	r3, #1	; 0x1
    32b4:	1a000001 	bne	32c0 <remove_chain+0x5c>
    32b8:	e3a00001 	mov	r0, #1	; 0x1
    32bc:	e8bd8070 	pop	{r4, r5, r6, pc}
    32c0:	ebfffea7 	bl	2d64 <put_fat>
    32c4:	e3500000 	cmp	r0, #0	; 0x0
    32c8:	18bd8070 	popne	{r4, r5, r6, pc}
    32cc:	e5943014 	ldr	r3, [r4, #20]
    32d0:	e3730001 	cmn	r3, #1	; 0x1
    32d4:	e2833001 	add	r3, r3, #1	; 0x1
    32d8:	15843014 	strne	r3, [r4, #20]
    32dc:	15c46005 	strbne	r6, [r4, #5]
    32e0:	e594301c 	ldr	r3, [r4, #28]
    32e4:	e1550003 	cmp	r5, r3
    32e8:	e1a01005 	mov	r1, r5
    32ec:	e1a00004 	mov	r0, r4
    32f0:	3affffe5 	bcc	328c <remove_chain+0x28>
    32f4:	ea000001 	b	3300 <remove_chain+0x9c>
    32f8:	e3a00002 	mov	r0, #2	; 0x2
    32fc:	e8bd8070 	pop	{r4, r5, r6, pc}
    3300:	e3a00000 	mov	r0, #0	; 0x0
    3304:	e8bd8070 	pop	{r4, r5, r6, pc}

00003308 <dir_next>:
    3308:	e1d030b6 	ldrh	r3, [r0, #6]
    330c:	e2833001 	add	r3, r3, #1	; 0x1
    3310:	e1a02803 	lsl	r2, r3, #16
    3314:	e92d45f0 	push	{r4, r5, r6, r7, r8, sl, lr}
    3318:	e1b07822 	lsrs	r7, r2, #16
    331c:	e1a04000 	mov	r4, r0
    3320:	e1a05001 	mov	r5, r1
    3324:	0a000066 	beq	34c4 <dir_next+0x1bc>
    3328:	e5903010 	ldr	r3, [r0, #16]
    332c:	e3530000 	cmp	r3, #0	; 0x0
    3330:	0a000063 	beq	34c4 <dir_next+0x1bc>
    3334:	e217a00f 	ands	sl, r7, #15	; 0xf
    3338:	1a000059 	bne	34a4 <dir_next+0x19c>
    333c:	e590100c 	ldr	r1, [r0, #12]
    3340:	e2833001 	add	r3, r3, #1	; 0x1
    3344:	e3510000 	cmp	r1, #0	; 0x0
    3348:	e5803010 	str	r3, [r0, #16]
    334c:	e5900000 	ldr	r0, [r0]
    3350:	1a000003 	bne	3364 <dir_next+0x5c>
    3354:	e1d030b8 	ldrh	r3, [r0, #8]
    3358:	e1530007 	cmp	r3, r7
    335c:	8a000050 	bhi	34a4 <dir_next+0x19c>
    3360:	ea000057 	b	34c4 <dir_next+0x1bc>
    3364:	e5d03002 	ldrb	r3, [r0, #2]
    3368:	e2433001 	sub	r3, r3, #1	; 0x1
    336c:	e0133a22 	ands	r3, r3, r2, lsr #20
    3370:	1a00004b 	bne	34a4 <dir_next+0x19c>
    3374:	ebfffedc 	bl	2eec <get_fat>
    3378:	e3500001 	cmp	r0, #1	; 0x1
    337c:	e1a06000 	mov	r6, r0
    3380:	9a000051 	bls	34cc <dir_next+0x1c4>
    3384:	e3700001 	cmn	r0, #1	; 0x1
    3388:	0a000051 	beq	34d4 <dir_next+0x1cc>
    338c:	e5940000 	ldr	r0, [r4]
    3390:	e590301c 	ldr	r3, [r0, #28]
    3394:	e1560003 	cmp	r6, r3
    3398:	3a000036 	bcc	3478 <dir_next+0x170>
    339c:	e3550000 	cmp	r5, #0	; 0x0
    33a0:	0a000047 	beq	34c4 <dir_next+0x1bc>
    33a4:	e594100c 	ldr	r1, [r4, #12]
    33a8:	ebffff67 	bl	314c <create_chain>
    33ac:	e2506000 	subs	r6, r0, #0	; 0x0
    33b0:	02800007 	addeq	r0, r0, #7	; 0x7
    33b4:	08bd85f0 	popeq	{r4, r5, r6, r7, r8, sl, pc}
    33b8:	e3560001 	cmp	r6, #1	; 0x1
    33bc:	0a000042 	beq	34cc <dir_next+0x1c4>
    33c0:	e3760001 	cmn	r6, #1	; 0x1
    33c4:	0a000042 	beq	34d4 <dir_next+0x1cc>
    33c8:	e5940000 	ldr	r0, [r4]
    33cc:	e3a01000 	mov	r1, #0	; 0x0
    33d0:	ebfffe31 	bl	2c9c <move_window>
    33d4:	e3500000 	cmp	r0, #0	; 0x0
    33d8:	1a00003d 	bne	34d4 <dir_next+0x1cc>
    33dc:	e5943000 	ldr	r3, [r4]
    33e0:	e1a02000 	mov	r2, r0
    33e4:	e2833034 	add	r3, r3, #52	; 0x34
    33e8:	e7c32000 	strb	r2, [r3, r0]
    33ec:	e2800001 	add	r0, r0, #1	; 0x1
    33f0:	e3500c02 	cmp	r0, #512	; 0x200
    33f4:	1afffffb 	bne	33e8 <dir_next+0xe0>
    33f8:	e5941000 	ldr	r1, [r4]
    33fc:	e591301c 	ldr	r3, [r1, #28]
    3400:	e246c002 	sub	ip, r6, #2	; 0x2
    3404:	e2433002 	sub	r3, r3, #2	; 0x2
    3408:	e15c0003 	cmp	ip, r3
    340c:	35d12002 	ldrbcc	r2, [r1, #2]
    3410:	3591302c 	ldrcc	r3, [r1, #44]
    3414:	30203c92 	mlacc	r0, r2, ip, r3
    3418:	22400c02 	subcs	r0, r0, #512	; 0x200
    341c:	e5810030 	str	r0, [r1, #48]
    3420:	e3a05000 	mov	r5, #0	; 0x0
    3424:	e3a08001 	mov	r8, #1	; 0x1
    3428:	ea00000a 	b	3458 <dir_next+0x150>
    342c:	e5c28004 	strb	r8, [r2, #4]
    3430:	e5940000 	ldr	r0, [r4]
    3434:	ebfffe18 	bl	2c9c <move_window>
    3438:	e2853001 	add	r3, r5, #1	; 0x1
    343c:	e3500000 	cmp	r0, #0	; 0x0
    3440:	e20350ff 	and	r5, r3, #255	; 0xff
    3444:	1a000022 	bne	34d4 <dir_next+0x1cc>
    3448:	e5942000 	ldr	r2, [r4]
    344c:	e5923030 	ldr	r3, [r2, #48]
    3450:	e2833001 	add	r3, r3, #1	; 0x1
    3454:	e5823030 	str	r3, [r2, #48]
    3458:	e5942000 	ldr	r2, [r4]
    345c:	e5d23002 	ldrb	r3, [r2, #2]
    3460:	e1530005 	cmp	r3, r5
    3464:	e3a01000 	mov	r1, #0	; 0x0
    3468:	8affffef 	bhi	342c <dir_next+0x124>
    346c:	e5923030 	ldr	r3, [r2, #48]
    3470:	e0653003 	rsb	r3, r5, r3
    3474:	e5823030 	str	r3, [r2, #48]
    3478:	e5941000 	ldr	r1, [r4]
    347c:	e584600c 	str	r6, [r4, #12]
    3480:	e591301c 	ldr	r3, [r1, #28]
    3484:	e2460002 	sub	r0, r6, #2	; 0x2
    3488:	e2433002 	sub	r3, r3, #2	; 0x2
    348c:	e1500003 	cmp	r0, r3
    3490:	3591202c 	ldrcc	r2, [r1, #44]
    3494:	35d13002 	ldrbcc	r3, [r1, #2]
    3498:	30212093 	mlacc	r1, r3, r0, r2
    349c:	23a01000 	movcs	r1, #0	; 0x0
    34a0:	e5841010 	str	r1, [r4, #16]
    34a4:	e1a0328a 	lsl	r3, sl, #5
    34a8:	e5942000 	ldr	r2, [r4]
    34ac:	e2833034 	add	r3, r3, #52	; 0x34
    34b0:	e0822003 	add	r2, r2, r3
    34b4:	e5842014 	str	r2, [r4, #20]
    34b8:	e1c470b6 	strh	r7, [r4, #6]
    34bc:	e3a00000 	mov	r0, #0	; 0x0
    34c0:	e8bd85f0 	pop	{r4, r5, r6, r7, r8, sl, pc}
    34c4:	e3a00004 	mov	r0, #4	; 0x4
    34c8:	e8bd85f0 	pop	{r4, r5, r6, r7, r8, sl, pc}
    34cc:	e3a00002 	mov	r0, #2	; 0x2
    34d0:	e8bd85f0 	pop	{r4, r5, r6, r7, r8, sl, pc}
    34d4:	e3a00001 	mov	r0, #1	; 0x1
    34d8:	e8bd85f0 	pop	{r4, r5, r6, r7, r8, sl, pc}

000034dc <dir_find>:
    34dc:	e92d4ff0 	push	{r4, r5, r6, r7, r8, r9, sl, fp, lr}
    34e0:	e3a01000 	mov	r1, #0	; 0x0
    34e4:	e1a08000 	mov	r8, r0
    34e8:	ebfffecf 	bl	302c <dir_sdi>
    34ec:	e3500000 	cmp	r0, #0	; 0x0
    34f0:	18bd8ff0 	popne	{r4, r5, r6, r7, r8, r9, sl, fp, pc}
    34f4:	e3a040ff 	mov	r4, #255	; 0xff
    34f8:	e1a09004 	mov	r9, r4
    34fc:	e5980000 	ldr	r0, [r8]
    3500:	e5981010 	ldr	r1, [r8, #16]
    3504:	ebfffde4 	bl	2c9c <move_window>
    3508:	e3500000 	cmp	r0, #0	; 0x0
    350c:	18bd8ff0 	popne	{r4, r5, r6, r7, r8, r9, sl, fp, pc}
    3510:	e5986014 	ldr	r6, [r8, #20]
    3514:	e5d61000 	ldrb	r1, [r6]
    3518:	e3510000 	cmp	r1, #0	; 0x0
    351c:	1a000001 	bne	3528 <dir_find+0x4c>
    3520:	e3a00004 	mov	r0, #4	; 0x4
    3524:	e8bd8ff0 	pop	{r4, r5, r6, r7, r8, r9, sl, fp, pc}
    3528:	e35100e5 	cmp	r1, #229	; 0xe5
    352c:	e5d6300b 	ldrb	r3, [r6, #11]
    3530:	0a00005e 	beq	36b0 <dir_find+0x1d4>
    3534:	e203203f 	and	r2, r3, #63	; 0x3f
    3538:	e252300f 	subs	r3, r2, #15	; 0xf
    353c:	13a03001 	movne	r3, #1	; 0x1
    3540:	e01331a2 	ands	r3, r3, r2, lsr #3
    3544:	1a000059 	bne	36b0 <dir_find+0x1d4>
    3548:	e352000f 	cmp	r2, #15	; 0xf
    354c:	1a000039 	bne	3638 <dir_find+0x15c>
    3550:	e598301c 	ldr	r3, [r8, #28]
    3554:	e3530000 	cmp	r3, #0	; 0x0
    3558:	0a000055 	beq	36b4 <dir_find+0x1d8>
    355c:	e3110040 	tst	r1, #64	; 0x40
    3560:	11d820b6 	ldrhne	r2, [r8, #6]
    3564:	15d6900d 	ldrbne	r9, [r6, #13]
    3568:	1201b0bf 	andne	fp, r1, #191	; 0xbf
    356c:	11c822b0 	strhne	r2, [r8, #32]
    3570:	1a000002 	bne	3580 <dir_find+0xa4>
    3574:	e1510004 	cmp	r1, r4
    3578:	1a00004c 	bne	36b0 <dir_find+0x1d4>
    357c:	e1a0b004 	mov	fp, r4
    3580:	e5d6300d 	ldrb	r3, [r6, #13]
    3584:	e1530009 	cmp	r3, r9
    3588:	1a000048 	bne	36b0 <dir_find+0x1d4>
    358c:	e5d63000 	ldrb	r3, [r6]
    3590:	e3a0200d 	mov	r2, #13	; 0xd
    3594:	e20330bf 	and	r3, r3, #191	; 0xbf
    3598:	e0030392 	mul	r3, r2, r3
    359c:	e598a01c 	ldr	sl, [r8, #28]
    35a0:	e243700d 	sub	r7, r3, #13	; 0xd
    35a4:	e3a05001 	mov	r5, #1	; 0x1
    35a8:	e3a04000 	mov	r4, #0	; 0x0
    35ac:	e59f3124 	ldr	r3, [pc, #292]	; 36d8 <dir_find+0x1fc>
    35b0:	e7d32004 	ldrb	r2, [r3, r4]
    35b4:	e0863002 	add	r3, r6, r2
    35b8:	e5d31001 	ldrb	r1, [r3, #1]
    35bc:	e7d63002 	ldrb	r3, [r6, r2]
    35c0:	e3550000 	cmp	r5, #0	; 0x0
    35c4:	e1830401 	orr	r0, r3, r1, lsl #8
    35c8:	0a00000a 	beq	35f8 <dir_find+0x11c>
    35cc:	eb0009a9 	bl	5c78 <ff_wtoupper>
    35d0:	e357007f 	cmp	r7, #127	; 0x7f
    35d4:	e1a05000 	mov	r5, r0
    35d8:	e1a03087 	lsl	r3, r7, #1
    35dc:	8a000033 	bhi	36b0 <dir_find+0x1d4>
    35e0:	e19a00b3 	ldrh	r0, [sl, r3]
    35e4:	eb0009a3 	bl	5c78 <ff_wtoupper>
    35e8:	e1550000 	cmp	r5, r0
    35ec:	1a00002f 	bne	36b0 <dir_find+0x1d4>
    35f0:	e2877001 	add	r7, r7, #1	; 0x1
    35f4:	ea000002 	b	3604 <dir_find+0x128>
    35f8:	e59f20dc 	ldr	r2, [pc, #220]	; 36dc <dir_find+0x200>
    35fc:	e1500002 	cmp	r0, r2
    3600:	1a00002a 	bne	36b0 <dir_find+0x1d4>
    3604:	e2844001 	add	r4, r4, #1	; 0x1
    3608:	e354000d 	cmp	r4, #13	; 0xd
    360c:	1affffe6 	bne	35ac <dir_find+0xd0>
    3610:	e5d62000 	ldrb	r2, [r6]
    3614:	e2553000 	subs	r3, r5, #0	; 0x0
    3618:	13a03001 	movne	r3, #1	; 0x1
    361c:	e0133322 	ands	r3, r3, r2, lsr #6
    3620:	0a000029 	beq	36cc <dir_find+0x1f0>
    3624:	e1a03087 	lsl	r3, r7, #1
    3628:	e19a30b3 	ldrh	r3, [sl, r3]
    362c:	e3530000 	cmp	r3, #0	; 0x0
    3630:	1a00001e 	bne	36b0 <dir_find+0x1d4>
    3634:	ea000024 	b	36cc <dir_find+0x1f0>
    3638:	e3540000 	cmp	r4, #0	; 0x0
    363c:	1a00000c 	bne	3674 <dir_find+0x198>
    3640:	e1a02000 	mov	r2, r0
    3644:	e1a0c000 	mov	ip, r0
    3648:	e1a03382 	lsl	r3, r2, #7
    364c:	e7d6100c 	ldrb	r1, [r6, ip]
    3650:	e20220ff 	and	r2, r2, #255	; 0xff
    3654:	e18330a2 	orr	r3, r3, r2, lsr #1
    3658:	e28cc001 	add	ip, ip, #1	; 0x1
    365c:	e0833001 	add	r3, r3, r1
    3660:	e35c000b 	cmp	ip, #11	; 0xb
    3664:	e20320ff 	and	r2, r3, #255	; 0xff
    3668:	1afffff6 	bne	3648 <dir_find+0x16c>
    366c:	e1590002 	cmp	r9, r2
    3670:	08bd8ff0 	popeq	{r4, r5, r6, r7, r8, r9, sl, fp, pc}
    3674:	e3e03000 	mvn	r3, #0	; 0x0
    3678:	e598c018 	ldr	ip, [r8, #24]
    367c:	e1c832b0 	strh	r3, [r8, #32]
    3680:	e5dc300b 	ldrb	r3, [ip, #11]
    3684:	e2133001 	ands	r3, r3, #1	; 0x1
    3688:	01a01003 	moveq	r1, r3
    368c:	0a000002 	beq	369c <dir_find+0x1c0>
    3690:	ea000006 	b	36b0 <dir_find+0x1d4>
    3694:	e351000b 	cmp	r1, #11	; 0xb
    3698:	08bd8ff0 	popeq	{r4, r5, r6, r7, r8, r9, sl, fp, pc}
    369c:	e7d62001 	ldrb	r2, [r6, r1]
    36a0:	e7dc3001 	ldrb	r3, [ip, r1]
    36a4:	e1520003 	cmp	r2, r3
    36a8:	e2811001 	add	r1, r1, #1	; 0x1
    36ac:	0afffff8 	beq	3694 <dir_find+0x1b8>
    36b0:	e3a040ff 	mov	r4, #255	; 0xff
    36b4:	e1a00008 	mov	r0, r8
    36b8:	e3a01000 	mov	r1, #0	; 0x0
    36bc:	ebffff11 	bl	3308 <dir_next>
    36c0:	e3500000 	cmp	r0, #0	; 0x0
    36c4:	0affff8c 	beq	34fc <dir_find+0x20>
    36c8:	e8bd8ff0 	pop	{r4, r5, r6, r7, r8, r9, sl, fp, pc}
    36cc:	e24b3001 	sub	r3, fp, #1	; 0x1
    36d0:	e20340ff 	and	r4, r3, #255	; 0xff
    36d4:	eafffff6 	b	36b4 <dir_find+0x1d8>
    36d8:	0000e974 	.word	0x0000e974
    36dc:	0000ffff 	.word	0x0000ffff

000036e0 <follow_path>:
    36e0:	e92d4ff0 	push	{r4, r5, r6, r7, r8, r9, sl, fp, lr}
    36e4:	e5d13000 	ldrb	r3, [r1]
    36e8:	e3a04000 	mov	r4, #0	; 0x0
    36ec:	e353005c 	cmp	r3, #92	; 0x5c
    36f0:	1353002f 	cmpne	r3, #47	; 0x2f
    36f4:	e5804008 	str	r4, [r0, #8]
    36f8:	e1a0b001 	mov	fp, r1
    36fc:	0281b001 	addeq	fp, r1, #1	; 0x1
    3700:	e5db3000 	ldrb	r3, [fp]
    3704:	e353001f 	cmp	r3, #31	; 0x1f
    3708:	e24dd008 	sub	sp, sp, #8	; 0x8
    370c:	e1a0a000 	mov	sl, r0
    3710:	8a000003 	bhi	3724 <follow_path+0x44>
    3714:	e1a01004 	mov	r1, r4
    3718:	ebfffe43 	bl	302c <dir_sdi>
    371c:	e58a4014 	str	r4, [sl, #20]
    3720:	ea0000db 	b	3a94 <follow_path+0x3b4>
    3724:	e59a101c 	ldr	r1, [sl, #28]
    3728:	e3a04000 	mov	r4, #0	; 0x0
    372c:	e58d1000 	str	r1, [sp]
    3730:	e1a05004 	mov	r5, r4
    3734:	e7db0004 	ldrb	r0, [fp, r4]
    3738:	e2842001 	add	r2, r4, #1	; 0x1
    373c:	e350002f 	cmp	r0, #47	; 0x2f
    3740:	1350001f 	cmpne	r0, #31	; 0x1f
    3744:	e58d2004 	str	r2, [sp, #4]
    3748:	9a000015 	bls	37a4 <follow_path+0xc4>
    374c:	e350005c 	cmp	r0, #92	; 0x5c
    3750:	0a000016 	beq	37b0 <follow_path+0xd0>
    3754:	e3520081 	cmp	r2, #129	; 0x81
    3758:	0a0000c8 	beq	3a80 <follow_path+0x3a0>
    375c:	e3a01001 	mov	r1, #1	; 0x1
    3760:	eb000927 	bl	5c04 <ff_convert>
    3764:	e3500000 	cmp	r0, #0	; 0x0
    3768:	0a0000c4 	beq	3a80 <follow_path+0x3a0>
    376c:	e350007f 	cmp	r0, #127	; 0x7f
    3770:	8a000007 	bhi	3794 <follow_path+0xb4>
    3774:	e59f3320 	ldr	r3, [pc, #800]	; 3a9c <follow_path+0x3bc>
    3778:	e5532001 	ldrb	r2, [r3, #-1]
    377c:	e3520000 	cmp	r2, #0	; 0x0
    3780:	e2833001 	add	r3, r3, #1	; 0x1
    3784:	0a000002 	beq	3794 <follow_path+0xb4>
    3788:	e1520000 	cmp	r2, r0
    378c:	1afffff9 	bne	3778 <follow_path+0x98>
    3790:	ea0000ba 	b	3a80 <follow_path+0x3a0>
    3794:	e89d0018 	ldm	sp, {r3, r4}
    3798:	e18300b5 	strh	r0, [r3, r5]
    379c:	e2855002 	add	r5, r5, #2	; 0x2
    37a0:	eaffffe3 	b	3734 <follow_path+0x54>
    37a4:	e350001f 	cmp	r0, #31	; 0x1f
    37a8:	93a05004 	movls	r5, #4	; 0x4
    37ac:	9a000000 	bls	37b4 <follow_path+0xd4>
    37b0:	e3a05000 	mov	r5, #0	; 0x0
    37b4:	e59d1000 	ldr	r1, [sp]
    37b8:	e2642001 	rsb	r2, r4, #1	; 0x1
    37bc:	e3e03001 	mvn	r3, #1	; 0x1
    37c0:	e0211293 	mla	r1, r3, r2, r1
    37c4:	ea00000b 	b	37f8 <follow_path+0x118>
    37c8:	e05130b2 	ldrh	r3, [r1], #-2
    37cc:	e3530020 	cmp	r3, #32	; 0x20
    37d0:	1353002e 	cmpne	r3, #46	; 0x2e
    37d4:	0a000006 	beq	37f4 <follow_path+0x114>
    37d8:	e59d1000 	ldr	r1, [sp]
    37dc:	e1a03084 	lsl	r3, r4, #1
    37e0:	e3a02000 	mov	r2, #0	; 0x0
    37e4:	e18120b3 	strh	r2, [r1, r3]
    37e8:	e59a2018 	ldr	r2, [sl, #24]
    37ec:	e3a03000 	mov	r3, #0	; 0x0
    37f0:	ea000003 	b	3804 <follow_path+0x124>
    37f4:	e2444001 	sub	r4, r4, #1	; 0x1
    37f8:	e3540000 	cmp	r4, #0	; 0x0
    37fc:	1afffff1 	bne	37c8 <follow_path+0xe8>
    3800:	ea00009e 	b	3a80 <follow_path+0x3a0>
    3804:	e3a01020 	mov	r1, #32	; 0x20
    3808:	e7c21003 	strb	r1, [r2, r3]
    380c:	e2833001 	add	r3, r3, #1	; 0x1
    3810:	e353000b 	cmp	r3, #11	; 0xb
    3814:	1afffffa 	bne	3804 <follow_path+0x124>
    3818:	e3a06000 	mov	r6, #0	; 0x0
    381c:	ea000000 	b	3824 <follow_path+0x144>
    3820:	e2866001 	add	r6, r6, #1	; 0x1
    3824:	e59d2000 	ldr	r2, [sp]
    3828:	e1a03086 	lsl	r3, r6, #1
    382c:	e19230b3 	ldrh	r3, [r2, r3]
    3830:	e353002e 	cmp	r3, #46	; 0x2e
    3834:	13530020 	cmpne	r3, #32	; 0x20
    3838:	0afffff8 	beq	3820 <follow_path+0x140>
    383c:	e59d1000 	ldr	r1, [sp]
    3840:	e3560000 	cmp	r6, #0	; 0x0
    3844:	e2642001 	rsb	r2, r4, #1	; 0x1
    3848:	e3e03001 	mvn	r3, #1	; 0x1
    384c:	13855003 	orrne	r5, r5, #3	; 0x3
    3850:	e0211293 	mla	r1, r3, r2, r1
    3854:	ea000005 	b	3870 <follow_path+0x190>
    3858:	e2544001 	subs	r4, r4, #1	; 0x1
    385c:	1a000003 	bne	3870 <follow_path+0x190>
    3860:	e3a08000 	mov	r8, #0	; 0x0
    3864:	e3a09008 	mov	r9, #8	; 0x8
    3868:	e1a07008 	mov	r7, r8
    386c:	ea000004 	b	3884 <follow_path+0x1a4>
    3870:	e1d130b0 	ldrh	r3, [r1]
    3874:	e353002e 	cmp	r3, #46	; 0x2e
    3878:	e2411002 	sub	r1, r1, #2	; 0x2
    387c:	1afffff5 	bne	3858 <follow_path+0x178>
    3880:	eafffff6 	b	3860 <follow_path+0x180>
    3884:	e59d1000 	ldr	r1, [sp]
    3888:	e1a03086 	lsl	r3, r6, #1
    388c:	e19100b3 	ldrh	r0, [r1, r3]
    3890:	e3500000 	cmp	r0, #0	; 0x0
    3894:	0a000044 	beq	39ac <follow_path+0x2cc>
    3898:	e3500020 	cmp	r0, #32	; 0x20
    389c:	e2866001 	add	r6, r6, #1	; 0x1
    38a0:	0a000006 	beq	38c0 <follow_path+0x1e0>
    38a4:	e0562004 	subs	r2, r6, r4
    38a8:	13a02001 	movne	r2, #1	; 0x1
    38ac:	e350002e 	cmp	r0, #46	; 0x2e
    38b0:	13a03000 	movne	r3, #0	; 0x0
    38b4:	02023001 	andeq	r3, r2, #1	; 0x1
    38b8:	e3530000 	cmp	r3, #0	; 0x0
    38bc:	0a000001 	beq	38c8 <follow_path+0x1e8>
    38c0:	e3855003 	orr	r5, r5, #3	; 0x3
    38c4:	eaffffee 	b	3884 <follow_path+0x1a4>
    38c8:	e1560004 	cmp	r6, r4
    38cc:	11580009 	cmpne	r8, r9
    38d0:	33a01000 	movcc	r1, #0	; 0x0
    38d4:	23a01001 	movcs	r1, #1	; 0x1
    38d8:	3a00000d 	bcc	3914 <follow_path+0x234>
    38dc:	e359000b 	cmp	r9, #11	; 0xb
    38e0:	03855003 	orreq	r5, r5, #3	; 0x3
    38e4:	0a000030 	beq	39ac <follow_path+0x2cc>
    38e8:	e3520000 	cmp	r2, #0	; 0x0
    38ec:	0a000002 	beq	38fc <follow_path+0x21c>
    38f0:	e1560004 	cmp	r6, r4
    38f4:	e3855003 	orr	r5, r5, #3	; 0x3
    38f8:	8a00002b 	bhi	39ac <follow_path+0x2cc>
    38fc:	e1a03107 	lsl	r3, r7, #2
    3900:	e20370ff 	and	r7, r3, #255	; 0xff
    3904:	e1a06004 	mov	r6, r4
    3908:	e3a0900b 	mov	r9, #11	; 0xb
    390c:	e3a08008 	mov	r8, #8	; 0x8
    3910:	eaffffdb 	b	3884 <follow_path+0x1a4>
    3914:	e350007f 	cmp	r0, #127	; 0x7f
    3918:	9a000007 	bls	393c <follow_path+0x25c>
    391c:	eb0008b8 	bl	5c04 <ff_convert>
    3920:	e3500000 	cmp	r0, #0	; 0x0
    3924:	159f2174 	ldrne	r2, [pc, #372]	; 3aa0 <follow_path+0x3c0>
    3928:	10823000 	addne	r3, r2, r0
    392c:	15530080 	ldrbne	r0, [r3, #-128]
    3930:	e3500000 	cmp	r0, #0	; 0x0
    3934:	e3855002 	orr	r5, r5, #2	; 0x2
    3938:	0a00000d 	beq	3974 <follow_path+0x294>
    393c:	e59f3160 	ldr	r3, [pc, #352]	; 3aa4 <follow_path+0x3c4>
    3940:	e5532001 	ldrb	r2, [r3, #-1]
    3944:	e3520000 	cmp	r2, #0	; 0x0
    3948:	e2833001 	add	r3, r3, #1	; 0x1
    394c:	0a000002 	beq	395c <follow_path+0x27c>
    3950:	e1520000 	cmp	r2, r0
    3954:	1afffff9 	bne	3940 <follow_path+0x260>
    3958:	ea000005 	b	3974 <follow_path+0x294>
    395c:	e2403041 	sub	r3, r0, #65	; 0x41
    3960:	e1a03803 	lsl	r3, r3, #16
    3964:	e3530819 	cmp	r3, #1638400	; 0x190000
    3968:	93877002 	orrls	r7, r7, #2	; 0x2
    396c:	9a00000a 	bls	399c <follow_path+0x2bc>
    3970:	ea000002 	b	3980 <follow_path+0x2a0>
    3974:	e3855003 	orr	r5, r5, #3	; 0x3
    3978:	e3a0005f 	mov	r0, #95	; 0x5f
    397c:	ea000006 	b	399c <follow_path+0x2bc>
    3980:	e2403061 	sub	r3, r0, #97	; 0x61
    3984:	e1a03803 	lsl	r3, r3, #16
    3988:	e3530819 	cmp	r3, #1638400	; 0x190000
    398c:	92403020 	subls	r3, r0, #32	; 0x20
    3990:	91a03803 	lslls	r3, r3, #16
    3994:	93877001 	orrls	r7, r7, #1	; 0x1
    3998:	91a00823 	lsrls	r0, r3, #16
    399c:	e59a3018 	ldr	r3, [sl, #24]
    39a0:	e7c30008 	strb	r0, [r3, r8]
    39a4:	e2888001 	add	r8, r8, #1	; 0x1
    39a8:	eaffffb5 	b	3884 <follow_path+0x1a4>
    39ac:	e59a2018 	ldr	r2, [sl, #24]
    39b0:	e5d23000 	ldrb	r3, [r2]
    39b4:	e35300e5 	cmp	r3, #229	; 0xe5
    39b8:	03a03005 	moveq	r3, #5	; 0x5
    39bc:	05c23000 	strbeq	r3, [r2]
    39c0:	e3590008 	cmp	r9, #8	; 0x8
    39c4:	01a03107 	lsleq	r3, r7, #2
    39c8:	020370ff 	andeq	r7, r3, #255	; 0xff
    39cc:	e207200c 	and	r2, r7, #12	; 0xc
    39d0:	e352000c 	cmp	r2, #12	; 0xc
    39d4:	0a000002 	beq	39e4 <follow_path+0x304>
    39d8:	e2073003 	and	r3, r7, #3	; 0x3
    39dc:	e3530003 	cmp	r3, #3	; 0x3
    39e0:	1a000000 	bne	39e8 <follow_path+0x308>
    39e4:	e3855002 	orr	r5, r5, #2	; 0x2
    39e8:	e3150002 	tst	r5, #2	; 0x2
    39ec:	1a000004 	bne	3a04 <follow_path+0x324>
    39f0:	e2073003 	and	r3, r7, #3	; 0x3
    39f4:	e3530001 	cmp	r3, #1	; 0x1
    39f8:	03855010 	orreq	r5, r5, #16	; 0x10
    39fc:	e3520004 	cmp	r2, #4	; 0x4
    3a00:	03855008 	orreq	r5, r5, #8	; 0x8
    3a04:	e59a3018 	ldr	r3, [sl, #24]
    3a08:	e1a0000a 	mov	r0, sl
    3a0c:	e5c3500b 	strb	r5, [r3, #11]
    3a10:	ebfffeb1 	bl	34dc <dir_find>
    3a14:	e59a3018 	ldr	r3, [sl, #24]
    3a18:	e2502000 	subs	r2, r0, #0	; 0x0
    3a1c:	e5d3300b 	ldrb	r3, [r3, #11]
    3a20:	0a000005 	beq	3a3c <follow_path+0x35c>
    3a24:	e3520004 	cmp	r2, #4	; 0x4
    3a28:	e1a00002 	mov	r0, r2
    3a2c:	1a000015 	bne	3a88 <follow_path+0x3a8>
    3a30:	e3130004 	tst	r3, #4	; 0x4
    3a34:	0a000015 	beq	3a90 <follow_path+0x3b0>
    3a38:	ea000015 	b	3a94 <follow_path+0x3b4>
    3a3c:	e3130004 	tst	r3, #4	; 0x4
    3a40:	1a000010 	bne	3a88 <follow_path+0x3a8>
    3a44:	e59a1014 	ldr	r1, [sl, #20]
    3a48:	e5d1300b 	ldrb	r3, [r1, #11]
    3a4c:	e3130010 	tst	r3, #16	; 0x10
    3a50:	0a00000e 	beq	3a90 <follow_path+0x3b0>
    3a54:	e5d1201a 	ldrb	r2, [r1, #26]
    3a58:	e5d10015 	ldrb	r0, [r1, #21]
    3a5c:	e5d13014 	ldrb	r3, [r1, #20]
    3a60:	e5d1101b 	ldrb	r1, [r1, #27]
    3a64:	e1833400 	orr	r3, r3, r0, lsl #8
    3a68:	e1822401 	orr	r2, r2, r1, lsl #8
    3a6c:	e1822803 	orr	r2, r2, r3, lsl #16
    3a70:	e59d3004 	ldr	r3, [sp, #4]
    3a74:	e58a2008 	str	r2, [sl, #8]
    3a78:	e08bb003 	add	fp, fp, r3
    3a7c:	eaffff28 	b	3724 <follow_path+0x44>
    3a80:	e3a00006 	mov	r0, #6	; 0x6
    3a84:	ea000002 	b	3a94 <follow_path+0x3b4>
    3a88:	e1a00002 	mov	r0, r2
    3a8c:	ea000000 	b	3a94 <follow_path+0x3b4>
    3a90:	e3a00005 	mov	r0, #5	; 0x5
    3a94:	e28dd008 	add	sp, sp, #8	; 0x8
    3a98:	e8bd8ff0 	pop	{r4, r5, r6, r7, r8, r9, sl, fp, pc}
    3a9c:	00010205 	.word	0x00010205
    3aa0:	0000e8f4 	.word	0x0000e8f4
    3aa4:	0001020e 	.word	0x0001020e

00003aa8 <dir_register>:
    3aa8:	e92d4ff0 	push	{r4, r5, r6, r7, r8, r9, sl, fp, lr}
    3aac:	e5907018 	ldr	r7, [r0, #24]
    3ab0:	e24dd010 	sub	sp, sp, #16	; 0x10
    3ab4:	e590801c 	ldr	r8, [r0, #28]
    3ab8:	e1a05000 	mov	r5, r0
    3abc:	e3a02000 	mov	r2, #0	; 0x0
    3ac0:	e28d1004 	add	r1, sp, #4	; 0x4
    3ac4:	e7d73002 	ldrb	r3, [r7, r2]
    3ac8:	e7c13002 	strb	r3, [r1, r2]
    3acc:	e2822001 	add	r2, r2, #1	; 0x1
    3ad0:	e352000c 	cmp	r2, #12	; 0xc
    3ad4:	1afffffa 	bne	3ac4 <dir_register+0x1c>
    3ad8:	e5dd300f 	ldrb	r3, [sp, #15]
    3adc:	e3130001 	tst	r3, #1	; 0x1
    3ae0:	0a00001b 	beq	3b54 <dir_register+0xac>
    3ae4:	e3a03000 	mov	r3, #0	; 0x0
    3ae8:	e5c7300b 	strb	r3, [r7, #11]
    3aec:	e3a04001 	mov	r4, #1	; 0x1
    3af0:	e585301c 	str	r3, [r5, #28]
    3af4:	e1a06004 	mov	r6, r4
    3af8:	e28da004 	add	sl, sp, #4	; 0x4
    3afc:	e1a03006 	mov	r3, r6
    3b00:	e1a0100a 	mov	r1, sl
    3b04:	e1a02008 	mov	r2, r8
    3b08:	e1a00007 	mov	r0, r7
    3b0c:	ebfffa69 	bl	24b8 <gen_numname>
    3b10:	e1a00005 	mov	r0, r5
    3b14:	ebfffe70 	bl	34dc <dir_find>
    3b18:	e2843001 	add	r3, r4, #1	; 0x1
    3b1c:	e1a03803 	lsl	r3, r3, #16
    3b20:	e3500000 	cmp	r0, #0	; 0x0
    3b24:	e1a04823 	lsr	r4, r3, #16
    3b28:	e2866001 	add	r6, r6, #1	; 0x1
    3b2c:	1a000003 	bne	3b40 <dir_register+0x98>
    3b30:	e3540064 	cmp	r4, #100	; 0x64
    3b34:	1afffff0 	bne	3afc <dir_register+0x54>
    3b38:	e3a00007 	mov	r0, #7	; 0x7
    3b3c:	ea0000a4 	b	3dd4 <dir_register+0x32c>
    3b40:	e3500004 	cmp	r0, #4	; 0x4
    3b44:	1a0000a2 	bne	3dd4 <dir_register+0x32c>
    3b48:	e5dd300f 	ldrb	r3, [sp, #15]
    3b4c:	e5c7300b 	strb	r3, [r7, #11]
    3b50:	e585801c 	str	r8, [r5, #28]
    3b54:	e5dd300f 	ldrb	r3, [sp, #15]
    3b58:	e3130002 	tst	r3, #2	; 0x2
    3b5c:	03a07001 	moveq	r7, #1	; 0x1
    3b60:	13a00000 	movne	r0, #0	; 0x0
    3b64:	1a000003 	bne	3b78 <dir_register+0xd0>
    3b68:	ea00000b 	b	3b9c <dir_register+0xf4>
    3b6c:	e2803001 	add	r3, r0, #1	; 0x1
    3b70:	e1a03803 	lsl	r3, r3, #16
    3b74:	e1a00823 	lsr	r0, r3, #16
    3b78:	e1a03080 	lsl	r3, r0, #1
    3b7c:	e19830b3 	ldrh	r3, [r8, r3]
    3b80:	e3530000 	cmp	r3, #0	; 0x0
    3b84:	1afffff8 	bne	3b6c <dir_register+0xc4>
    3b88:	e2800019 	add	r0, r0, #25	; 0x19
    3b8c:	e3a0100d 	mov	r1, #13	; 0xd
    3b90:	eb001962 	bl	a120 <__aeabi_idiv>
    3b94:	e1a00800 	lsl	r0, r0, #16
    3b98:	e1a07820 	lsr	r7, r0, #16
    3b9c:	e1a00005 	mov	r0, r5
    3ba0:	e3a01000 	mov	r1, #0	; 0x0
    3ba4:	ebfffd20 	bl	302c <dir_sdi>
    3ba8:	e3500000 	cmp	r0, #0	; 0x0
    3bac:	1a000088 	bne	3dd4 <dir_register+0x32c>
    3bb0:	e1a04000 	mov	r4, r0
    3bb4:	e1a06000 	mov	r6, r0
    3bb8:	e5951010 	ldr	r1, [r5, #16]
    3bbc:	e5950000 	ldr	r0, [r5]
    3bc0:	ebfffc35 	bl	2c9c <move_window>
    3bc4:	e2843001 	add	r3, r4, #1	; 0x1
    3bc8:	e3500000 	cmp	r0, #0	; 0x0
    3bcc:	e1a02803 	lsl	r2, r3, #16
    3bd0:	1a000011 	bne	3c1c <dir_register+0x174>
    3bd4:	e5953014 	ldr	r3, [r5, #20]
    3bd8:	e5d33000 	ldrb	r3, [r3]
    3bdc:	e3530000 	cmp	r3, #0	; 0x0
    3be0:	135300e5 	cmpne	r3, #229	; 0xe5
    3be4:	13a03000 	movne	r3, #0	; 0x0
    3be8:	03a03001 	moveq	r3, #1	; 0x1
    3bec:	11a04003 	movne	r4, r3
    3bf0:	1a000004 	bne	3c08 <dir_register+0x160>
    3bf4:	e3540000 	cmp	r4, #0	; 0x0
    3bf8:	e1a04822 	lsr	r4, r2, #16
    3bfc:	01d560b6 	ldrheq	r6, [r5, #6]
    3c00:	e1540007 	cmp	r4, r7
    3c04:	0a000004 	beq	3c1c <dir_register+0x174>
    3c08:	e1a00005 	mov	r0, r5
    3c0c:	e3a01001 	mov	r1, #1	; 0x1
    3c10:	ebfffdbc 	bl	3308 <dir_next>
    3c14:	e3500000 	cmp	r0, #0	; 0x0
    3c18:	0affffe6 	beq	3bb8 <dir_register+0x110>
    3c1c:	e2702001 	rsbs	r2, r0, #1	; 0x1
    3c20:	33a02000 	movcc	r2, #0	; 0x0
    3c24:	e3570001 	cmp	r7, #1	; 0x1
    3c28:	93a03000 	movls	r3, #0	; 0x0
    3c2c:	82023001 	andhi	r3, r2, #1	; 0x1
    3c30:	e3530000 	cmp	r3, #0	; 0x0
    3c34:	0a00004a 	beq	3d64 <dir_register+0x2bc>
    3c38:	e1a01006 	mov	r1, r6
    3c3c:	e1a00005 	mov	r0, r5
    3c40:	ebfffcf9 	bl	302c <dir_sdi>
    3c44:	e3500000 	cmp	r0, #0	; 0x0
    3c48:	1a000061 	bne	3dd4 <dir_register+0x32c>
    3c4c:	e595c018 	ldr	ip, [r5, #24]
    3c50:	e1a06000 	mov	r6, r0
    3c54:	e1a03386 	lsl	r3, r6, #7
    3c58:	e20620ff 	and	r2, r6, #255	; 0xff
    3c5c:	e7dc1000 	ldrb	r1, [ip, r0]
    3c60:	e18330a2 	orr	r3, r3, r2, lsr #1
    3c64:	e2800001 	add	r0, r0, #1	; 0x1
    3c68:	e0833001 	add	r3, r3, r1
    3c6c:	e350000b 	cmp	r0, #11	; 0xb
    3c70:	e20360ff 	and	r6, r3, #255	; 0xff
    3c74:	1afffff6 	bne	3c54 <dir_register+0x1ac>
    3c78:	e2473001 	sub	r3, r7, #1	; 0x1
    3c7c:	e1a03803 	lsl	r3, r3, #16
    3c80:	e59fa154 	ldr	sl, [pc, #340]	; 3ddc <dir_register+0x334>
    3c84:	e1a07823 	lsr	r7, r3, #16
    3c88:	e3a0b00d 	mov	fp, #13	; 0xd
    3c8c:	e3a09001 	mov	r9, #1	; 0x1
    3c90:	e5950000 	ldr	r0, [r5]
    3c94:	e5951010 	ldr	r1, [r5, #16]
    3c98:	ebfffbff 	bl	2c9c <move_window>
    3c9c:	e3500000 	cmp	r0, #0	; 0x0
    3ca0:	1a00004b 	bne	3dd4 <dir_register+0x32c>
    3ca4:	e20740ff 	and	r4, r7, #255	; 0xff
    3ca8:	e003049b 	mul	r3, fp, r4
    3cac:	e5951014 	ldr	r1, [r5, #20]
    3cb0:	e595801c 	ldr	r8, [r5, #28]
    3cb4:	e3a0c00f 	mov	ip, #15	; 0xf
    3cb8:	e5c1600d 	strb	r6, [r1, #13]
    3cbc:	e5c1000c 	strb	r0, [r1, #12]
    3cc0:	e5c1001a 	strb	r0, [r1, #26]
    3cc4:	e5c1001b 	strb	r0, [r1, #27]
    3cc8:	e5c1c00b 	strb	ip, [r1, #11]
    3ccc:	e1a02000 	mov	r2, r0
    3cd0:	e243e00d 	sub	lr, r3, #13	; 0xd
    3cd4:	e1a0c000 	mov	ip, r0
    3cd8:	e152000a 	cmp	r2, sl
    3cdc:	e1a0308e 	lsl	r3, lr, #1
    3ce0:	119820b3 	ldrhne	r2, [r8, r3]
    3ce4:	e59f30f4 	ldr	r3, [pc, #244]	; 3de0 <dir_register+0x338>
    3ce8:	e7d3300c 	ldrb	r3, [r3, ip]
    3cec:	e1a00001 	mov	r0, r1
    3cf0:	e7e02003 	strb	r2, [r0, r3]!
    3cf4:	128ee001 	addne	lr, lr, #1	; 0x1
    3cf8:	e28cc001 	add	ip, ip, #1	; 0x1
    3cfc:	e3520000 	cmp	r2, #0	; 0x0
    3d00:	e1a03422 	lsr	r3, r2, #8
    3d04:	01a0200a 	moveq	r2, sl
    3d08:	e35c000d 	cmp	ip, #13	; 0xd
    3d0c:	e5c03001 	strb	r3, [r0, #1]
    3d10:	1afffff0 	bne	3cd8 <dir_register+0x230>
    3d14:	e152000a 	cmp	r2, sl
    3d18:	0a000003 	beq	3d2c <dir_register+0x284>
    3d1c:	e1a0308e 	lsl	r3, lr, #1
    3d20:	e19830b3 	ldrh	r3, [r8, r3]
    3d24:	e3530000 	cmp	r3, #0	; 0x0
    3d28:	1a000000 	bne	3d30 <dir_register+0x288>
    3d2c:	e3844040 	orr	r4, r4, #64	; 0x40
    3d30:	e5c14000 	strb	r4, [r1]
    3d34:	e5953000 	ldr	r3, [r5]
    3d38:	e1a00005 	mov	r0, r5
    3d3c:	e5c39004 	strb	r9, [r3, #4]
    3d40:	e3a01000 	mov	r1, #0	; 0x0
    3d44:	ebfffd6f 	bl	3308 <dir_next>
    3d48:	e3500000 	cmp	r0, #0	; 0x0
    3d4c:	1a000020 	bne	3dd4 <dir_register+0x32c>
    3d50:	e2473001 	sub	r3, r7, #1	; 0x1
    3d54:	e1a03803 	lsl	r3, r3, #16
    3d58:	e1b07823 	lsrs	r7, r3, #16
    3d5c:	1affffcb 	bne	3c90 <dir_register+0x1e8>
    3d60:	ea000001 	b	3d6c <dir_register+0x2c4>
    3d64:	e3520000 	cmp	r2, #0	; 0x0
    3d68:	0a000019 	beq	3dd4 <dir_register+0x32c>
    3d6c:	e5950000 	ldr	r0, [r5]
    3d70:	e5951010 	ldr	r1, [r5, #16]
    3d74:	ebfffbc8 	bl	2c9c <move_window>
    3d78:	e3500000 	cmp	r0, #0	; 0x0
    3d7c:	1a000014 	bne	3dd4 <dir_register+0x32c>
    3d80:	e5951014 	ldr	r1, [r5, #20]
    3d84:	e1a03000 	mov	r3, r0
    3d88:	e1a02000 	mov	r2, r0
    3d8c:	e7c12003 	strb	r2, [r1, r3]
    3d90:	e2833001 	add	r3, r3, #1	; 0x1
    3d94:	e3530020 	cmp	r3, #32	; 0x20
    3d98:	1afffffb 	bne	3d8c <dir_register+0x2e4>
    3d9c:	e595c018 	ldr	ip, [r5, #24]
    3da0:	e3a02000 	mov	r2, #0	; 0x0
    3da4:	e7dc3002 	ldrb	r3, [ip, r2]
    3da8:	e7c13002 	strb	r3, [r1, r2]
    3dac:	e2822001 	add	r2, r2, #1	; 0x1
    3db0:	e352000b 	cmp	r2, #11	; 0xb
    3db4:	1afffffa 	bne	3da4 <dir_register+0x2fc>
    3db8:	e5953018 	ldr	r3, [r5, #24]
    3dbc:	e5d3300b 	ldrb	r3, [r3, #11]
    3dc0:	e2033018 	and	r3, r3, #24	; 0x18
    3dc4:	e5c1300c 	strb	r3, [r1, #12]
    3dc8:	e5952000 	ldr	r2, [r5]
    3dcc:	e3a03001 	mov	r3, #1	; 0x1
    3dd0:	e5c23004 	strb	r3, [r2, #4]
    3dd4:	e28dd010 	add	sp, sp, #16	; 0x10
    3dd8:	e8bd8ff0 	pop	{r4, r5, r6, r7, r8, r9, sl, fp, pc}
    3ddc:	0000ffff 	.word	0x0000ffff
    3de0:	0000e974 	.word	0x0000e974

00003de4 <dir_remove>:
    3de4:	e59f1080 	ldr	r1, [pc, #128]	; 3e6c <dir_remove+0x88>
    3de8:	e1d032b0 	ldrh	r3, [r0, #32]
    3dec:	e92d40f0 	push	{r4, r5, r6, r7, lr}
    3df0:	e1d050b6 	ldrh	r5, [r0, #6]
    3df4:	e1530001 	cmp	r3, r1
    3df8:	11a01003 	movne	r1, r3
    3dfc:	01a01005 	moveq	r1, r5
    3e00:	e1a04000 	mov	r4, r0
    3e04:	ebfffc88 	bl	302c <dir_sdi>
    3e08:	e2502000 	subs	r2, r0, #0	; 0x0
    3e0c:	1a000014 	bne	3e64 <dir_remove+0x80>
    3e10:	e3e0701a 	mvn	r7, #26	; 0x1a
    3e14:	e3a06001 	mov	r6, #1	; 0x1
    3e18:	e5941010 	ldr	r1, [r4, #16]
    3e1c:	e5940000 	ldr	r0, [r4]
    3e20:	ebfffb9d 	bl	2c9c <move_window>
    3e24:	e2502000 	subs	r2, r0, #0	; 0x0
    3e28:	e1a01002 	mov	r1, r2
    3e2c:	e1a00004 	mov	r0, r4
    3e30:	1a000009 	bne	3e5c <dir_remove+0x78>
    3e34:	e5943014 	ldr	r3, [r4, #20]
    3e38:	e5c37000 	strb	r7, [r3]
    3e3c:	e5943000 	ldr	r3, [r4]
    3e40:	e5c36004 	strb	r6, [r3, #4]
    3e44:	e1d430b6 	ldrh	r3, [r4, #6]
    3e48:	e1530005 	cmp	r3, r5
    3e4c:	2a000004 	bcs	3e64 <dir_remove+0x80>
    3e50:	ebfffd2c 	bl	3308 <dir_next>
    3e54:	e2502000 	subs	r2, r0, #0	; 0x0
    3e58:	0affffee 	beq	3e18 <dir_remove+0x34>
    3e5c:	e3520004 	cmp	r2, #4	; 0x4
    3e60:	03a02002 	moveq	r2, #2	; 0x2
    3e64:	e1a00002 	mov	r0, r2
    3e68:	e8bd80f0 	pop	{r4, r5, r6, r7, pc}
    3e6c:	0000ffff 	.word	0x0000ffff

00003e70 <dir_read>:
    3e70:	e92d4ff0 	push	{r4, r5, r6, r7, r8, r9, sl, fp, lr}
    3e74:	e3a040ff 	mov	r4, #255	; 0xff
    3e78:	e1a05000 	mov	r5, r0
    3e7c:	e1a07004 	mov	r7, r4
    3e80:	e3a00004 	mov	r0, #4	; 0x4
    3e84:	e3a0b00d 	mov	fp, #13	; 0xd
    3e88:	e59f91a4 	ldr	r9, [pc, #420]	; 4034 <dir_read+0x1c4>
    3e8c:	e59fa1a4 	ldr	sl, [pc, #420]	; 4038 <dir_read+0x1c8>
    3e90:	ea00005a 	b	4000 <dir_read+0x190>
    3e94:	e5950000 	ldr	r0, [r5]
    3e98:	ebfffb7f 	bl	2c9c <move_window>
    3e9c:	e3500000 	cmp	r0, #0	; 0x0
    3ea0:	1a00005b 	bne	4014 <dir_read+0x1a4>
    3ea4:	e595e014 	ldr	lr, [r5, #20]
    3ea8:	e5de1000 	ldrb	r1, [lr]
    3eac:	e3510000 	cmp	r1, #0	; 0x0
    3eb0:	0a00005d 	beq	402c <dir_read+0x1bc>
    3eb4:	e351002e 	cmp	r1, #46	; 0x2e
    3eb8:	135100e5 	cmpne	r1, #229	; 0xe5
    3ebc:	e5de300b 	ldrb	r3, [lr, #11]
    3ec0:	0a000048 	beq	3fe8 <dir_read+0x178>
    3ec4:	e203203f 	and	r2, r3, #63	; 0x3f
    3ec8:	e252300f 	subs	r3, r2, #15	; 0xf
    3ecc:	13a03001 	movne	r3, #1	; 0x1
    3ed0:	e01331a2 	ands	r3, r3, r2, lsr #3
    3ed4:	1a000043 	bne	3fe8 <dir_read+0x178>
    3ed8:	e352000f 	cmp	r2, #15	; 0xf
    3edc:	1a00002f 	bne	3fa0 <dir_read+0x130>
    3ee0:	e3110040 	tst	r1, #64	; 0x40
    3ee4:	11d520b6 	ldrhne	r2, [r5, #6]
    3ee8:	15de700d 	ldrbne	r7, [lr, #13]
    3eec:	120180bf 	andne	r8, r1, #191	; 0xbf
    3ef0:	11c522b0 	strhne	r2, [r5, #32]
    3ef4:	1a000002 	bne	3f04 <dir_read+0x94>
    3ef8:	e1510004 	cmp	r1, r4
    3efc:	1a000039 	bne	3fe8 <dir_read+0x178>
    3f00:	e1a08004 	mov	r8, r4
    3f04:	e5de300d 	ldrb	r3, [lr, #13]
    3f08:	e1530007 	cmp	r3, r7
    3f0c:	1a000035 	bne	3fe8 <dir_read+0x178>
    3f10:	e5de3000 	ldrb	r3, [lr]
    3f14:	e203303f 	and	r3, r3, #63	; 0x3f
    3f18:	e003039b 	mul	r3, fp, r3
    3f1c:	e595601c 	ldr	r6, [r5, #28]
    3f20:	e243c00d 	sub	ip, r3, #13	; 0xd
    3f24:	e3a00001 	mov	r0, #1	; 0x1
    3f28:	e3a04000 	mov	r4, #0	; 0x0
    3f2c:	e7d92004 	ldrb	r2, [r9, r4]
    3f30:	e08e3002 	add	r3, lr, r2
    3f34:	e5d31001 	ldrb	r1, [r3, #1]
    3f38:	e7de3002 	ldrb	r3, [lr, r2]
    3f3c:	e3500000 	cmp	r0, #0	; 0x0
    3f40:	e1a0208c 	lsl	r2, ip, #1
    3f44:	e1833401 	orr	r3, r3, r1, lsl #8
    3f48:	0a000004 	beq	3f60 <dir_read+0xf0>
    3f4c:	e35c007f 	cmp	ip, #127	; 0x7f
    3f50:	8a000024 	bhi	3fe8 <dir_read+0x178>
    3f54:	e18630b2 	strh	r3, [r6, r2]
    3f58:	e28cc001 	add	ip, ip, #1	; 0x1
    3f5c:	ea000002 	b	3f6c <dir_read+0xfc>
    3f60:	e153000a 	cmp	r3, sl
    3f64:	1a00001f 	bne	3fe8 <dir_read+0x178>
    3f68:	e1a03000 	mov	r3, r0
    3f6c:	e2844001 	add	r4, r4, #1	; 0x1
    3f70:	e354000d 	cmp	r4, #13	; 0xd
    3f74:	e1a00003 	mov	r0, r3
    3f78:	1affffeb 	bne	3f2c <dir_read+0xbc>
    3f7c:	e5de3000 	ldrb	r3, [lr]
    3f80:	e3130040 	tst	r3, #64	; 0x40
    3f84:	0a000025 	beq	4020 <dir_read+0x1b0>
    3f88:	e35c007f 	cmp	ip, #127	; 0x7f
    3f8c:	91a0308c 	lslls	r3, ip, #1
    3f90:	93a02000 	movls	r2, #0	; 0x0
    3f94:	918620b3 	strhls	r2, [r6, r3]
    3f98:	9a000020 	bls	4020 <dir_read+0x1b0>
    3f9c:	ea000011 	b	3fe8 <dir_read+0x178>
    3fa0:	e3540000 	cmp	r4, #0	; 0x0
    3fa4:	1a00000c 	bne	3fdc <dir_read+0x16c>
    3fa8:	e1a02000 	mov	r2, r0
    3fac:	e1a0c000 	mov	ip, r0
    3fb0:	e1a03382 	lsl	r3, r2, #7
    3fb4:	e7de100c 	ldrb	r1, [lr, ip]
    3fb8:	e20220ff 	and	r2, r2, #255	; 0xff
    3fbc:	e18330a2 	orr	r3, r3, r2, lsr #1
    3fc0:	e28cc001 	add	ip, ip, #1	; 0x1
    3fc4:	e0833001 	add	r3, r3, r1
    3fc8:	e35c000b 	cmp	ip, #11	; 0xb
    3fcc:	e20320ff 	and	r2, r3, #255	; 0xff
    3fd0:	1afffff6 	bne	3fb0 <dir_read+0x140>
    3fd4:	e1570002 	cmp	r7, r2
    3fd8:	08bd8ff0 	popeq	{r4, r5, r6, r7, r8, r9, sl, fp, pc}
    3fdc:	e3e03000 	mvn	r3, #0	; 0x0
    3fe0:	e1c532b0 	strh	r3, [r5, #32]
    3fe4:	e8bd8ff0 	pop	{r4, r5, r6, r7, r8, r9, sl, fp, pc}
    3fe8:	e3a040ff 	mov	r4, #255	; 0xff
    3fec:	e1a00005 	mov	r0, r5
    3ff0:	e3a01000 	mov	r1, #0	; 0x0
    3ff4:	ebfffcc3 	bl	3308 <dir_next>
    3ff8:	e3500000 	cmp	r0, #0	; 0x0
    3ffc:	1a000004 	bne	4014 <dir_read+0x1a4>
    4000:	e5951010 	ldr	r1, [r5, #16]
    4004:	e3510000 	cmp	r1, #0	; 0x0
    4008:	1affffa1 	bne	3e94 <dir_read+0x24>
    400c:	e3500000 	cmp	r0, #0	; 0x0
    4010:	08bd8ff0 	popeq	{r4, r5, r6, r7, r8, r9, sl, fp, pc}
    4014:	e3a03000 	mov	r3, #0	; 0x0
    4018:	e5853010 	str	r3, [r5, #16]
    401c:	e8bd8ff0 	pop	{r4, r5, r6, r7, r8, r9, sl, fp, pc}
    4020:	e2483001 	sub	r3, r8, #1	; 0x1
    4024:	e20340ff 	and	r4, r3, #255	; 0xff
    4028:	eaffffef 	b	3fec <dir_read+0x17c>
    402c:	e3a00004 	mov	r0, #4	; 0x4
    4030:	eafffff7 	b	4014 <dir_read+0x1a4>
    4034:	0000e974 	.word	0x0000e974
    4038:	0000ffff 	.word	0x0000ffff

0000403c <sync>:
    403c:	e92d4ff0 	push	{r4, r5, r6, r7, r8, r9, sl, fp, lr}
    4040:	e3a01000 	mov	r1, #0	; 0x0
    4044:	e24dd004 	sub	sp, sp, #4	; 0x4
    4048:	e1a0b000 	mov	fp, r0
    404c:	ebfffb12 	bl	2c9c <move_window>
    4050:	e3500000 	cmp	r0, #0	; 0x0
    4054:	1a00003c 	bne	414c <sync+0x110>
    4058:	e5db3000 	ldrb	r3, [fp]
    405c:	e3530003 	cmp	r3, #3	; 0x3
    4060:	1a000033 	bne	4134 <sync+0xf8>
    4064:	e5db3005 	ldrb	r3, [fp, #5]
    4068:	e3530000 	cmp	r3, #0	; 0x0
    406c:	0a000030 	beq	4134 <sync+0xf8>
    4070:	e58b0030 	str	r0, [fp, #48]
    4074:	e1a03000 	mov	r3, r0
    4078:	e28b9034 	add	r9, fp, #52	; 0x34
    407c:	e1a02000 	mov	r2, r0
    4080:	e7c92003 	strb	r2, [r9, r3]
    4084:	e2833001 	add	r3, r3, #1	; 0x1
    4088:	e3530c02 	cmp	r3, #512	; 0x200
    408c:	1afffffb 	bne	4080 <sync+0x44>
    4090:	e28b1010 	add	r1, fp, #16	; 0x10
    4094:	e8910006 	ldm	r1, {r1, r2}
    4098:	e1a03c21 	lsr	r3, r1, #24
    409c:	e58d3000 	str	r3, [sp]
    40a0:	e3a03055 	mov	r3, #85	; 0x55
    40a4:	e1a00422 	lsr	r0, r2, #8
    40a8:	e1a0c822 	lsr	ip, r2, #16
    40ac:	e1a0e421 	lsr	lr, r1, #8
    40b0:	e5cb3232 	strb	r3, [fp, #562]
    40b4:	e1a0ac22 	lsr	sl, r2, #24
    40b8:	e3a05052 	mov	r5, #82	; 0x52
    40bc:	e3a06061 	mov	r6, #97	; 0x61
    40c0:	e3a07041 	mov	r7, #65	; 0x41
    40c4:	e3a08072 	mov	r8, #114	; 0x72
    40c8:	e1a04821 	lsr	r4, r1, #16
    40cc:	e3e03055 	mvn	r3, #85	; 0x55
    40d0:	e5cb021d 	strb	r0, [fp, #541]
    40d4:	e5cb3233 	strb	r3, [fp, #563]
    40d8:	e5cb5035 	strb	r5, [fp, #53]
    40dc:	e5cb8219 	strb	r8, [fp, #537]
    40e0:	e5cb721a 	strb	r7, [fp, #538]
    40e4:	e5cb621b 	strb	r6, [fp, #539]
    40e8:	e5cbc21e 	strb	ip, [fp, #542]
    40ec:	e5cba21f 	strb	sl, [fp, #543]
    40f0:	e5cbe221 	strb	lr, [fp, #545]
    40f4:	e5cb4222 	strb	r4, [fp, #546]
    40f8:	e59d3000 	ldr	r3, [sp]
    40fc:	e5db0001 	ldrb	r0, [fp, #1]
    4100:	e5cb3223 	strb	r3, [fp, #547]
    4104:	e5cb221c 	strb	r2, [fp, #540]
    4108:	e5cb1220 	strb	r1, [fp, #544]
    410c:	e3a03001 	mov	r3, #1	; 0x1
    4110:	e5cb5034 	strb	r5, [fp, #52]
    4114:	e5cb6036 	strb	r6, [fp, #54]
    4118:	e5cb7037 	strb	r7, [fp, #55]
    411c:	e5cb8218 	strb	r8, [fp, #536]
    4120:	e1a01009 	mov	r1, r9
    4124:	e59b2018 	ldr	r2, [fp, #24]
    4128:	ebfff6e8 	bl	1cd0 <disk_write>
    412c:	e3a03000 	mov	r3, #0	; 0x0
    4130:	e5cb3005 	strb	r3, [fp, #5]
    4134:	e3a01000 	mov	r1, #0	; 0x0
    4138:	e5db0001 	ldrb	r0, [fp, #1]
    413c:	e1a02001 	mov	r2, r1
    4140:	ebfff770 	bl	1f08 <disk_ioctl>
    4144:	e2500000 	subs	r0, r0, #0	; 0x0
    4148:	13a00001 	movne	r0, #1	; 0x1
    414c:	e28dd004 	add	sp, sp, #4	; 0x4
    4150:	e8bd8ff0 	pop	{r4, r5, r6, r7, r8, r9, sl, fp, pc}

00004154 <unlock_fs>:
    4154:	e241300b 	sub	r3, r1, #11	; 0xb
    4158:	e3510009 	cmp	r1, #9	; 0x9
    415c:	13530001 	cmpne	r3, #1	; 0x1
    4160:	912fff1e 	bxls	lr
    4164:	e351000f 	cmp	r1, #15	; 0xf
    4168:	012fff1e 	bxeq	lr
    416c:	e590000c 	ldr	r0, [r0, #12]
    4170:	ea0006d2 	b	5cc0 <ff_rel_grant>

00004174 <f_rename>:
    4174:	e92d4070 	push	{r4, r5, r6, lr}
    4178:	e24ddf5d 	sub	sp, sp, #372	; 0x174
    417c:	e28d3f5d 	add	r3, sp, #372	; 0x174
    4180:	e28d5f4b 	add	r5, sp, #300	; 0x12c
    4184:	e5230174 	str	r0, [r3, #-372]!
    4188:	e1a06001 	mov	r6, r1
    418c:	e1a0000d 	mov	r0, sp
    4190:	e1a01005 	mov	r1, r5
    4194:	e3a02001 	mov	r2, #1	; 0x1
    4198:	ebfff92c 	bl	2650 <chk_mounted>
    419c:	e2504000 	subs	r4, r0, #0	; 0x0
    41a0:	1a00007f 	bne	43a4 <f_rename+0x230>
    41a4:	e59d212c 	ldr	r2, [sp, #300]
    41a8:	e28d3008 	add	r3, sp, #8	; 0x8
    41ac:	e2433002 	sub	r3, r3, #2	; 0x2
    41b0:	e58d2108 	str	r2, [sp, #264]
    41b4:	e1a00005 	mov	r0, r5
    41b8:	e28d2f5a 	add	r2, sp, #360	; 0x168
    41bc:	e59d1000 	ldr	r1, [sp]
    41c0:	e58d2144 	str	r2, [sp, #324]
    41c4:	e58d3148 	str	r3, [sp, #328]
    41c8:	ebfffd44 	bl	36e0 <follow_path>
    41cc:	e2504000 	subs	r4, r0, #0	; 0x0
    41d0:	1a000073 	bne	43a4 <f_rename+0x230>
    41d4:	e59d3140 	ldr	r3, [sp, #320]
    41d8:	e3530000 	cmp	r3, #0	; 0x0
    41dc:	03a04004 	moveq	r4, #4	; 0x4
    41e0:	0a00006f 	beq	43a4 <f_rename+0x230>
    41e4:	e28d1e15 	add	r1, sp, #336	; 0x150
    41e8:	e1a02003 	mov	r2, r3
    41ec:	e1a00004 	mov	r0, r4
    41f0:	e2811003 	add	r1, r1, #3	; 0x3
    41f4:	ea000002 	b	4204 <f_rename+0x90>
    41f8:	e5d2300a 	ldrb	r3, [r2, #10]
    41fc:	e7c13000 	strb	r3, [r1, r0]
    4200:	e2800001 	add	r0, r0, #1	; 0x1
    4204:	e3500015 	cmp	r0, #21	; 0x15
    4208:	e2822001 	add	r2, r2, #1	; 0x1
    420c:	1afffff9 	bne	41f8 <f_rename+0x84>
    4210:	e3a02000 	mov	r2, #0	; 0x0
    4214:	e28d5f42 	add	r5, sp, #264	; 0x108
    4218:	e28d1f4b 	add	r1, sp, #300	; 0x12c
    421c:	e7d13002 	ldrb	r3, [r1, r2]
    4220:	e7c53002 	strb	r3, [r5, r2]
    4224:	e2822001 	add	r2, r2, #1	; 0x1
    4228:	e3520024 	cmp	r2, #36	; 0x24
    422c:	1afffffa 	bne	421c <f_rename+0xa8>
    4230:	e1a01006 	mov	r1, r6
    4234:	e1a00005 	mov	r0, r5
    4238:	ebfffd28 	bl	36e0 <follow_path>
    423c:	e2504000 	subs	r4, r0, #0	; 0x0
    4240:	03a04008 	moveq	r4, #8	; 0x8
    4244:	0a000056 	beq	43a4 <f_rename+0x230>
    4248:	e3540004 	cmp	r4, #4	; 0x4
    424c:	1a000054 	bne	43a4 <f_rename+0x230>
    4250:	e1a00005 	mov	r0, r5
    4254:	ebfffe13 	bl	3aa8 <dir_register>
    4258:	e2504000 	subs	r4, r0, #0	; 0x0
    425c:	1a000050 	bne	43a4 <f_rename+0x230>
    4260:	e59dc11c 	ldr	ip, [sp, #284]
    4264:	e28d3e15 	add	r3, sp, #336	; 0x150
    4268:	e2833003 	add	r3, r3, #3	; 0x3
    426c:	e2830016 	add	r0, r3, #22	; 0x16
    4270:	e2832002 	add	r2, r3, #2	; 0x2
    4274:	e1a0100c 	mov	r1, ip
    4278:	ea000001 	b	4284 <f_rename+0x110>
    427c:	e5523001 	ldrb	r3, [r2, #-1]
    4280:	e5c1300c 	strb	r3, [r1, #12]
    4284:	e2822001 	add	r2, r2, #1	; 0x1
    4288:	e1520000 	cmp	r2, r0
    428c:	e2811001 	add	r1, r1, #1	; 0x1
    4290:	1afffff9 	bne	427c <f_rename+0x108>
    4294:	e5dd3153 	ldrb	r3, [sp, #339]
    4298:	e3833020 	orr	r3, r3, #32	; 0x20
    429c:	e5cc300b 	strb	r3, [ip, #11]
    42a0:	e59d312c 	ldr	r3, [sp, #300]
    42a4:	e3a02001 	mov	r2, #1	; 0x1
    42a8:	e5c32004 	strb	r2, [r3, #4]
    42ac:	e59d2110 	ldr	r2, [sp, #272]
    42b0:	e59d3134 	ldr	r3, [sp, #308]
    42b4:	e1530002 	cmp	r3, r2
    42b8:	0a000030 	beq	4380 <f_rename+0x20c>
    42bc:	e5dc300b 	ldrb	r3, [ip, #11]
    42c0:	e3130010 	tst	r3, #16	; 0x10
    42c4:	0a00002d 	beq	4380 <f_rename+0x20c>
    42c8:	e5dc0015 	ldrb	r0, [ip, #21]
    42cc:	e5dc301b 	ldrb	r3, [ip, #27]
    42d0:	e5dc101a 	ldrb	r1, [ip, #26]
    42d4:	e59de108 	ldr	lr, [sp, #264]
    42d8:	e5dc2014 	ldrb	r2, [ip, #20]
    42dc:	e1811403 	orr	r1, r1, r3, lsl #8
    42e0:	e1822400 	orr	r2, r2, r0, lsl #8
    42e4:	e59e301c 	ldr	r3, [lr, #28]
    42e8:	e1811802 	orr	r1, r1, r2, lsl #16
    42ec:	e2410002 	sub	r0, r1, #2	; 0x2
    42f0:	e2433002 	sub	r3, r3, #2	; 0x2
    42f4:	e1500003 	cmp	r0, r3
    42f8:	2a000028 	bcs	43a0 <f_rename+0x22c>
    42fc:	e5de2002 	ldrb	r2, [lr, #2]
    4300:	e59e302c 	ldr	r3, [lr, #44]
    4304:	e0213092 	mla	r1, r2, r0, r3
    4308:	e3510000 	cmp	r1, #0	; 0x0
    430c:	0a000023 	beq	43a0 <f_rename+0x22c>
    4310:	e1a0000e 	mov	r0, lr
    4314:	ebfffa60 	bl	2c9c <move_window>
    4318:	e2504000 	subs	r4, r0, #0	; 0x0
    431c:	e59d2108 	ldr	r2, [sp, #264]
    4320:	1a00001f 	bne	43a4 <f_rename+0x230>
    4324:	e282c054 	add	ip, r2, #84	; 0x54
    4328:	e5dc3001 	ldrb	r3, [ip, #1]
    432c:	e353002e 	cmp	r3, #46	; 0x2e
    4330:	1a000012 	bne	4380 <f_rename+0x20c>
    4334:	e5d23000 	ldrb	r3, [r2]
    4338:	e3530003 	cmp	r3, #3	; 0x3
    433c:	1a000004 	bne	4354 <f_rename+0x1e0>
    4340:	e5922028 	ldr	r2, [r2, #40]
    4344:	e59d3110 	ldr	r3, [sp, #272]
    4348:	e1530002 	cmp	r3, r2
    434c:	01a00004 	moveq	r0, r4
    4350:	0a000000 	beq	4358 <f_rename+0x1e4>
    4354:	e59d0110 	ldr	r0, [sp, #272]
    4358:	e1a01820 	lsr	r1, r0, #16
    435c:	e1a03421 	lsr	r3, r1, #8
    4360:	e1a02420 	lsr	r2, r0, #8
    4364:	e5cc201b 	strb	r2, [ip, #27]
    4368:	e5cc3015 	strb	r3, [ip, #21]
    436c:	e5cc001a 	strb	r0, [ip, #26]
    4370:	e5cc1014 	strb	r1, [ip, #20]
    4374:	e59d3108 	ldr	r3, [sp, #264]
    4378:	e3a02001 	mov	r2, #1	; 0x1
    437c:	e5c32004 	strb	r2, [r3, #4]
    4380:	e28d0f4b 	add	r0, sp, #300	; 0x12c
    4384:	ebfffe96 	bl	3de4 <dir_remove>
    4388:	e2504000 	subs	r4, r0, #0	; 0x0
    438c:	1a000004 	bne	43a4 <f_rename+0x230>
    4390:	e59d012c 	ldr	r0, [sp, #300]
    4394:	ebffff28 	bl	403c <sync>
    4398:	e1a04000 	mov	r4, r0
    439c:	ea000000 	b	43a4 <f_rename+0x230>
    43a0:	e3a04002 	mov	r4, #2	; 0x2
    43a4:	e59d012c 	ldr	r0, [sp, #300]
    43a8:	e1a01004 	mov	r1, r4
    43ac:	ebffff68 	bl	4154 <unlock_fs>
    43b0:	e1a00004 	mov	r0, r4
    43b4:	e28ddf5d 	add	sp, sp, #372	; 0x174
    43b8:	e8bd8070 	pop	{r4, r5, r6, pc}

000043bc <f_utime>:
    43bc:	e92d4070 	push	{r4, r5, r6, lr}
    43c0:	e24ddf4e 	sub	sp, sp, #312	; 0x138
    43c4:	e28d3f4e 	add	r3, sp, #312	; 0x138
    43c8:	e28d6f42 	add	r6, sp, #264	; 0x108
    43cc:	e5230138 	str	r0, [r3, #-312]!
    43d0:	e1a05001 	mov	r5, r1
    43d4:	e1a0000d 	mov	r0, sp
    43d8:	e1a01006 	mov	r1, r6
    43dc:	e3a02001 	mov	r2, #1	; 0x1
    43e0:	ebfff89a 	bl	2650 <chk_mounted>
    43e4:	e2504000 	subs	r4, r0, #0	; 0x0
    43e8:	1a00001c 	bne	4460 <f_utime+0xa4>
    43ec:	e28d2008 	add	r2, sp, #8	; 0x8
    43f0:	e2422002 	sub	r2, r2, #2	; 0x2
    43f4:	e28d3f4b 	add	r3, sp, #300	; 0x12c
    43f8:	e1a00006 	mov	r0, r6
    43fc:	e59d1000 	ldr	r1, [sp]
    4400:	e58d3120 	str	r3, [sp, #288]
    4404:	e58d2124 	str	r2, [sp, #292]
    4408:	ebfffcb4 	bl	36e0 <follow_path>
    440c:	e2504000 	subs	r4, r0, #0	; 0x0
    4410:	1a000012 	bne	4460 <f_utime+0xa4>
    4414:	e59d211c 	ldr	r2, [sp, #284]
    4418:	e3520000 	cmp	r2, #0	; 0x0
    441c:	03a04006 	moveq	r4, #6	; 0x6
    4420:	0a00000e 	beq	4460 <f_utime+0xa4>
    4424:	e1d530b6 	ldrh	r3, [r5, #6]
    4428:	e5c23016 	strb	r3, [r2, #22]
    442c:	e1d530b6 	ldrh	r3, [r5, #6]
    4430:	e1a03423 	lsr	r3, r3, #8
    4434:	e5c23017 	strb	r3, [r2, #23]
    4438:	e1d530b4 	ldrh	r3, [r5, #4]
    443c:	e5c23018 	strb	r3, [r2, #24]
    4440:	e1d530b4 	ldrh	r3, [r5, #4]
    4444:	e1a03423 	lsr	r3, r3, #8
    4448:	e5c23019 	strb	r3, [r2, #25]
    444c:	e59d0108 	ldr	r0, [sp, #264]
    4450:	e3a03001 	mov	r3, #1	; 0x1
    4454:	e5c03004 	strb	r3, [r0, #4]
    4458:	ebfffef7 	bl	403c <sync>
    445c:	e1a04000 	mov	r4, r0
    4460:	e59d0108 	ldr	r0, [sp, #264]
    4464:	e1a01004 	mov	r1, r4
    4468:	ebffff39 	bl	4154 <unlock_fs>
    446c:	e1a00004 	mov	r0, r4
    4470:	e28ddf4e 	add	sp, sp, #312	; 0x138
    4474:	e8bd8070 	pop	{r4, r5, r6, pc}

00004478 <f_chmod>:
    4478:	e92d40f0 	push	{r4, r5, r6, r7, lr}
    447c:	e24ddf4e 	sub	sp, sp, #312	; 0x138
    4480:	e28d3f4e 	add	r3, sp, #312	; 0x138
    4484:	e28d5f42 	add	r5, sp, #264	; 0x108
    4488:	e1a0c001 	mov	ip, r1
    448c:	e5230138 	str	r0, [r3, #-312]!
    4490:	e1a07002 	mov	r7, r2
    4494:	e1a0000d 	mov	r0, sp
    4498:	e1a01005 	mov	r1, r5
    449c:	e3a02001 	mov	r2, #1	; 0x1
    44a0:	e20c60ff 	and	r6, ip, #255	; 0xff
    44a4:	ebfff869 	bl	2650 <chk_mounted>
    44a8:	e2504000 	subs	r4, r0, #0	; 0x0
    44ac:	1a000018 	bne	4514 <f_chmod+0x9c>
    44b0:	e28d2008 	add	r2, sp, #8	; 0x8
    44b4:	e2422002 	sub	r2, r2, #2	; 0x2
    44b8:	e28d3f4b 	add	r3, sp, #300	; 0x12c
    44bc:	e1a00005 	mov	r0, r5
    44c0:	e59d1000 	ldr	r1, [sp]
    44c4:	e58d3120 	str	r3, [sp, #288]
    44c8:	e58d2124 	str	r2, [sp, #292]
    44cc:	ebfffc83 	bl	36e0 <follow_path>
    44d0:	e2504000 	subs	r4, r0, #0	; 0x0
    44d4:	1a00000e 	bne	4514 <f_chmod+0x9c>
    44d8:	e59d011c 	ldr	r0, [sp, #284]
    44dc:	e3500000 	cmp	r0, #0	; 0x0
    44e0:	03a04006 	moveq	r4, #6	; 0x6
    44e4:	0a00000a 	beq	4514 <f_chmod+0x9c>
    44e8:	e5d0300b 	ldrb	r3, [r0, #11]
    44ec:	e2072027 	and	r2, r7, #39	; 0x27
    44f0:	e0021006 	and	r1, r2, r6
    44f4:	e1c33002 	bic	r3, r3, r2
    44f8:	e1833001 	orr	r3, r3, r1
    44fc:	e5c0300b 	strb	r3, [r0, #11]
    4500:	e59d0108 	ldr	r0, [sp, #264]
    4504:	e3a03001 	mov	r3, #1	; 0x1
    4508:	e5c03004 	strb	r3, [r0, #4]
    450c:	ebfffeca 	bl	403c <sync>
    4510:	e1a04000 	mov	r4, r0
    4514:	e59d0108 	ldr	r0, [sp, #264]
    4518:	e1a01004 	mov	r1, r4
    451c:	ebffff0c 	bl	4154 <unlock_fs>
    4520:	e1a00004 	mov	r0, r4
    4524:	e28ddf4e 	add	sp, sp, #312	; 0x138
    4528:	e8bd80f0 	pop	{r4, r5, r6, r7, pc}

0000452c <f_unlink>:
    452c:	e92d4070 	push	{r4, r5, r6, lr}
    4530:	e24ddf57 	sub	sp, sp, #348	; 0x15c
    4534:	e28d3f57 	add	r3, sp, #348	; 0x15c
    4538:	e28d5f4b 	add	r5, sp, #300	; 0x12c
    453c:	e523015c 	str	r0, [r3, #-348]!
    4540:	e1a01005 	mov	r1, r5
    4544:	e1a0000d 	mov	r0, sp
    4548:	e3a02001 	mov	r2, #1	; 0x1
    454c:	ebfff83f 	bl	2650 <chk_mounted>
    4550:	e2504000 	subs	r4, r0, #0	; 0x0
    4554:	1a00003f 	bne	4658 <f_unlink+0x12c>
    4558:	e28d2008 	add	r2, sp, #8	; 0x8
    455c:	e2422002 	sub	r2, r2, #2	; 0x2
    4560:	e28d3e15 	add	r3, sp, #336	; 0x150
    4564:	e1a00005 	mov	r0, r5
    4568:	e59d1000 	ldr	r1, [sp]
    456c:	e58d3144 	str	r3, [sp, #324]
    4570:	e58d2148 	str	r2, [sp, #328]
    4574:	ebfffc59 	bl	36e0 <follow_path>
    4578:	e2504000 	subs	r4, r0, #0	; 0x0
    457c:	1a000035 	bne	4658 <f_unlink+0x12c>
    4580:	e59d2140 	ldr	r2, [sp, #320]
    4584:	e3520000 	cmp	r2, #0	; 0x0
    4588:	03a04006 	moveq	r4, #6	; 0x6
    458c:	0a000002 	beq	459c <f_unlink+0x70>
    4590:	e5d2300b 	ldrb	r3, [r2, #11]
    4594:	e2134001 	ands	r4, r3, #1	; 0x1
    4598:	13a04007 	movne	r4, #7	; 0x7
    459c:	e3540000 	cmp	r4, #0	; 0x0
    45a0:	e5d2e015 	ldrb	lr, [r2, #21]
    45a4:	e5d21014 	ldrb	r1, [r2, #20]
    45a8:	e5d2c01b 	ldrb	ip, [r2, #27]
    45ac:	e5d2001a 	ldrb	r0, [r2, #26]
    45b0:	1a000028 	bne	4658 <f_unlink+0x12c>
    45b4:	e5d2300b 	ldrb	r3, [r2, #11]
    45b8:	e181140e 	orr	r1, r1, lr, lsl #8
    45bc:	e180240c 	orr	r2, r0, ip, lsl #8
    45c0:	e3130010 	tst	r3, #16	; 0x10
    45c4:	e1825801 	orr	r5, r2, r1, lsl #16
    45c8:	0a000028 	beq	4670 <f_unlink+0x144>
    45cc:	e3550001 	cmp	r5, #1	; 0x1
    45d0:	92844002 	addls	r4, r4, #2	; 0x2
    45d4:	9a00001f 	bls	4658 <f_unlink+0x12c>
    45d8:	e1a00004 	mov	r0, r4
    45dc:	e28d6f42 	add	r6, sp, #264	; 0x108
    45e0:	e28d2f4b 	add	r2, sp, #300	; 0x12c
    45e4:	e7d23000 	ldrb	r3, [r2, r0]
    45e8:	e7c63000 	strb	r3, [r6, r0]
    45ec:	e2800001 	add	r0, r0, #1	; 0x1
    45f0:	e3500024 	cmp	r0, #36	; 0x24
    45f4:	1afffffa 	bne	45e4 <f_unlink+0xb8>
    45f8:	e1a00006 	mov	r0, r6
    45fc:	e3a01002 	mov	r1, #2	; 0x2
    4600:	e58d5110 	str	r5, [sp, #272]
    4604:	ebfffa88 	bl	302c <dir_sdi>
    4608:	e2504000 	subs	r4, r0, #0	; 0x0
    460c:	1a000011 	bne	4658 <f_unlink+0x12c>
    4610:	e1a00006 	mov	r0, r6
    4614:	ebfffe15 	bl	3e70 <dir_read>
    4618:	e2504000 	subs	r4, r0, #0	; 0x0
    461c:	03a04007 	moveq	r4, #7	; 0x7
    4620:	0a00000c 	beq	4658 <f_unlink+0x12c>
    4624:	e3540004 	cmp	r4, #4	; 0x4
    4628:	0a000010 	beq	4670 <f_unlink+0x144>
    462c:	ea000009 	b	4658 <f_unlink+0x12c>
    4630:	e3550000 	cmp	r5, #0	; 0x0
    4634:	0a000004 	beq	464c <f_unlink+0x120>
    4638:	e1a01005 	mov	r1, r5
    463c:	e59d012c 	ldr	r0, [sp, #300]
    4640:	ebfffb07 	bl	3264 <remove_chain>
    4644:	e2504000 	subs	r4, r0, #0	; 0x0
    4648:	1a000002 	bne	4658 <f_unlink+0x12c>
    464c:	e59d012c 	ldr	r0, [sp, #300]
    4650:	ebfffe79 	bl	403c <sync>
    4654:	e1a04000 	mov	r4, r0
    4658:	e59d012c 	ldr	r0, [sp, #300]
    465c:	e1a01004 	mov	r1, r4
    4660:	ebfffebb 	bl	4154 <unlock_fs>
    4664:	e1a00004 	mov	r0, r4
    4668:	e28ddf57 	add	sp, sp, #348	; 0x15c
    466c:	e8bd8070 	pop	{r4, r5, r6, pc}
    4670:	e28d0f4b 	add	r0, sp, #300	; 0x12c
    4674:	ebfffdda 	bl	3de4 <dir_remove>
    4678:	e2504000 	subs	r4, r0, #0	; 0x0
    467c:	0affffeb 	beq	4630 <f_unlink+0x104>
    4680:	eafffff4 	b	4658 <f_unlink+0x12c>

00004684 <f_truncate>:
    4684:	e92d4070 	push	{r4, r5, r6, lr}
    4688:	e1a04000 	mov	r4, r0
    468c:	e1d410b4 	ldrh	r1, [r4, #4]
    4690:	e5900000 	ldr	r0, [r0]
    4694:	ebfff8fe 	bl	2a94 <validate>
    4698:	e2506000 	subs	r6, r0, #0	; 0x0
    469c:	1a000032 	bne	476c <f_truncate+0xe8>
    46a0:	e1d430d6 	ldrsb	r3, [r4, #6]
    46a4:	e3530000 	cmp	r3, #0	; 0x0
    46a8:	e5d42006 	ldrb	r2, [r4, #6]
    46ac:	b3a06002 	movlt	r6, #2	; 0x2
    46b0:	ba00002d 	blt	476c <f_truncate+0xe8>
    46b4:	e3120002 	tst	r2, #2	; 0x2
    46b8:	03a06007 	moveq	r6, #7	; 0x7
    46bc:	0a00002a 	beq	476c <f_truncate+0xe8>
    46c0:	e5945008 	ldr	r5, [r4, #8]
    46c4:	e594300c 	ldr	r3, [r4, #12]
    46c8:	e1530005 	cmp	r3, r5
    46cc:	9a000026 	bls	476c <f_truncate+0xe8>
    46d0:	e3823020 	orr	r3, r2, #32	; 0x20
    46d4:	e3550000 	cmp	r5, #0	; 0x0
    46d8:	e5c43006 	strb	r3, [r4, #6]
    46dc:	e584500c 	str	r5, [r4, #12]
    46e0:	1a000005 	bne	46fc <f_truncate+0x78>
    46e4:	e5940000 	ldr	r0, [r4]
    46e8:	e5941010 	ldr	r1, [r4, #16]
    46ec:	ebfffadc 	bl	3264 <remove_chain>
    46f0:	e5845010 	str	r5, [r4, #16]
    46f4:	e1a06000 	mov	r6, r0
    46f8:	ea000015 	b	4754 <f_truncate+0xd0>
    46fc:	e5940000 	ldr	r0, [r4]
    4700:	e5941014 	ldr	r1, [r4, #20]
    4704:	ebfff9f8 	bl	2eec <get_fat>
    4708:	e3700001 	cmn	r0, #1	; 0x1
    470c:	e1a05000 	mov	r5, r0
    4710:	03a06001 	moveq	r6, #1	; 0x1
    4714:	0a000010 	beq	475c <f_truncate+0xd8>
    4718:	e3500001 	cmp	r0, #1	; 0x1
    471c:	0a000017 	beq	4780 <f_truncate+0xfc>
    4720:	e5940000 	ldr	r0, [r4]
    4724:	e590301c 	ldr	r3, [r0, #28]
    4728:	e1550003 	cmp	r5, r3
    472c:	2a00000e 	bcs	476c <f_truncate+0xe8>
    4730:	e5941014 	ldr	r1, [r4, #20]
    4734:	e3e0220f 	mvn	r2, #-268435456	; 0xf0000000
    4738:	ebfff989 	bl	2d64 <put_fat>
    473c:	e2506000 	subs	r6, r0, #0	; 0x0
    4740:	1a000005 	bne	475c <f_truncate+0xd8>
    4744:	e1a01005 	mov	r1, r5
    4748:	e5940000 	ldr	r0, [r4]
    474c:	ebfffac4 	bl	3264 <remove_chain>
    4750:	e1a06000 	mov	r6, r0
    4754:	e3560000 	cmp	r6, #0	; 0x0
    4758:	0a000003 	beq	476c <f_truncate+0xe8>
    475c:	e5d43006 	ldrb	r3, [r4, #6]
    4760:	e1e03c83 	mvn	r3, r3, lsl #25
    4764:	e1e03ca3 	mvn	r3, r3, lsr #25
    4768:	e5c43006 	strb	r3, [r4, #6]
    476c:	e5940000 	ldr	r0, [r4]
    4770:	e1a01006 	mov	r1, r6
    4774:	ebfffe76 	bl	4154 <unlock_fs>
    4778:	e1a00006 	mov	r0, r6
    477c:	e8bd8070 	pop	{r4, r5, r6, pc}
    4780:	e3a06002 	mov	r6, #2	; 0x2
    4784:	eafffff4 	b	475c <f_truncate+0xd8>

00004788 <f_getfree>:
    4788:	e92d45f0 	push	{r4, r5, r6, r7, r8, sl, lr}
    478c:	e24dd004 	sub	sp, sp, #4	; 0x4
    4790:	e28d3004 	add	r3, sp, #4	; 0x4
    4794:	e5230004 	str	r0, [r3, #-4]!
    4798:	e1a06002 	mov	r6, r2
    479c:	e1a0a001 	mov	sl, r1
    47a0:	e1a0000d 	mov	r0, sp
    47a4:	e1a01002 	mov	r1, r2
    47a8:	e3a02000 	mov	r2, #0	; 0x0
    47ac:	ebfff7a7 	bl	2650 <chk_mounted>
    47b0:	e2504000 	subs	r4, r0, #0	; 0x0
    47b4:	1a000049 	bne	48e0 <f_getfree+0x158>
    47b8:	e5961000 	ldr	r1, [r6]
    47bc:	e591701c 	ldr	r7, [r1, #28]
    47c0:	e5912014 	ldr	r2, [r1, #20]
    47c4:	e2473002 	sub	r3, r7, #2	; 0x2
    47c8:	e1520003 	cmp	r2, r3
    47cc:	958a2000 	strls	r2, [sl]
    47d0:	9a000042 	bls	48e0 <f_getfree+0x158>
    47d4:	e5d18000 	ldrb	r8, [r1]
    47d8:	e3580001 	cmp	r8, #1	; 0x1
    47dc:	1a000012 	bne	482c <f_getfree+0xa4>
    47e0:	e1a05004 	mov	r5, r4
    47e4:	e3a04002 	mov	r4, #2	; 0x2
    47e8:	e1a01004 	mov	r1, r4
    47ec:	e5960000 	ldr	r0, [r6]
    47f0:	ebfff9bd 	bl	2eec <get_fat>
    47f4:	e3700001 	cmn	r0, #1	; 0x1
    47f8:	e2844001 	add	r4, r4, #1	; 0x1
    47fc:	02800002 	addeq	r0, r0, #2	; 0x2
    4800:	0a00002f 	beq	48c4 <f_getfree+0x13c>
    4804:	e3500001 	cmp	r0, #1	; 0x1
    4808:	02800001 	addeq	r0, r0, #1	; 0x1
    480c:	0a00002c 	beq	48c4 <f_getfree+0x13c>
    4810:	e5963000 	ldr	r3, [r6]
    4814:	e593301c 	ldr	r3, [r3, #28]
    4818:	e3500000 	cmp	r0, #0	; 0x0
    481c:	02855001 	addeq	r5, r5, #1	; 0x1
    4820:	e1540003 	cmp	r4, r3
    4824:	3affffef 	bcc	47e8 <f_getfree+0x60>
    4828:	ea000024 	b	48c0 <f_getfree+0x138>
    482c:	e1a05004 	mov	r5, r4
    4830:	e1a00005 	mov	r0, r5
    4834:	e5914024 	ldr	r4, [r1, #36]
    4838:	e1a01005 	mov	r1, r5
    483c:	e3500000 	cmp	r0, #0	; 0x0
    4840:	1a000008 	bne	4868 <f_getfree+0xe0>
    4844:	e5960000 	ldr	r0, [r6]
    4848:	e1a01004 	mov	r1, r4
    484c:	ebfff912 	bl	2c9c <move_window>
    4850:	e3500000 	cmp	r0, #0	; 0x0
    4854:	1a00001a 	bne	48c4 <f_getfree+0x13c>
    4858:	e5963000 	ldr	r3, [r6]
    485c:	e2844001 	add	r4, r4, #1	; 0x1
    4860:	e2831034 	add	r1, r3, #52	; 0x34
    4864:	e3a00c02 	mov	r0, #512	; 0x200
    4868:	e3580002 	cmp	r8, #2	; 0x2
    486c:	e5d1e001 	ldrb	lr, [r1, #1]
    4870:	e5d1c000 	ldrb	ip, [r1]
    4874:	1a000004 	bne	488c <f_getfree+0x104>
    4878:	e19cc40e 	orrs	ip, ip, lr, lsl #8
    487c:	02855001 	addeq	r5, r5, #1	; 0x1
    4880:	e2811002 	add	r1, r1, #2	; 0x2
    4884:	e2400002 	sub	r0, r0, #2	; 0x2
    4888:	ea00000a 	b	48b8 <f_getfree+0x130>
    488c:	e5d13002 	ldrb	r3, [r1, #2]
    4890:	e5d12003 	ldrb	r2, [r1, #3]
    4894:	e1a03803 	lsl	r3, r3, #16
    4898:	e1833c02 	orr	r3, r3, r2, lsl #24
    489c:	e183300c 	orr	r3, r3, ip
    48a0:	e183340e 	orr	r3, r3, lr, lsl #8
    48a4:	e3c3320f 	bic	r3, r3, #-268435456	; 0xf0000000
    48a8:	e3530000 	cmp	r3, #0	; 0x0
    48ac:	02855001 	addeq	r5, r5, #1	; 0x1
    48b0:	e2811004 	add	r1, r1, #4	; 0x4
    48b4:	e2400004 	sub	r0, r0, #4	; 0x4
    48b8:	e2577001 	subs	r7, r7, #1	; 0x1
    48bc:	1affffde 	bne	483c <f_getfree+0xb4>
    48c0:	e3a00000 	mov	r0, #0	; 0x0
    48c4:	e5962000 	ldr	r2, [r6]
    48c8:	e3580003 	cmp	r8, #3	; 0x3
    48cc:	03a03001 	moveq	r3, #1	; 0x1
    48d0:	e5825014 	str	r5, [r2, #20]
    48d4:	05c23005 	strbeq	r3, [r2, #5]
    48d8:	e58a5000 	str	r5, [sl]
    48dc:	e1a04000 	mov	r4, r0
    48e0:	e5960000 	ldr	r0, [r6]
    48e4:	e1a01004 	mov	r1, r4
    48e8:	ebfffe19 	bl	4154 <unlock_fs>
    48ec:	e1a00004 	mov	r0, r4
    48f0:	e28dd004 	add	sp, sp, #4	; 0x4
    48f4:	e8bd85f0 	pop	{r4, r5, r6, r7, r8, sl, pc}

000048f8 <f_stat>:
    48f8:	e92d4070 	push	{r4, r5, r6, lr}
    48fc:	e24ddf4e 	sub	sp, sp, #312	; 0x138
    4900:	e28d3f4e 	add	r3, sp, #312	; 0x138
    4904:	e28d5f42 	add	r5, sp, #264	; 0x108
    4908:	e5230138 	str	r0, [r3, #-312]!
    490c:	e1a06001 	mov	r6, r1
    4910:	e1a0000d 	mov	r0, sp
    4914:	e1a01005 	mov	r1, r5
    4918:	e3a02000 	mov	r2, #0	; 0x0
    491c:	ebfff74b 	bl	2650 <chk_mounted>
    4920:	e2504000 	subs	r4, r0, #0	; 0x0
    4924:	1a00000f 	bne	4968 <f_stat+0x70>
    4928:	e28d2008 	add	r2, sp, #8	; 0x8
    492c:	e2422002 	sub	r2, r2, #2	; 0x2
    4930:	e28d3f4b 	add	r3, sp, #300	; 0x12c
    4934:	e1a00005 	mov	r0, r5
    4938:	e59d1000 	ldr	r1, [sp]
    493c:	e58d3120 	str	r3, [sp, #288]
    4940:	e58d2124 	str	r2, [sp, #292]
    4944:	ebfffb65 	bl	36e0 <follow_path>
    4948:	e2504000 	subs	r4, r0, #0	; 0x0
    494c:	1a000005 	bne	4968 <f_stat+0x70>
    4950:	e59d311c 	ldr	r3, [sp, #284]
    4954:	e3530000 	cmp	r3, #0	; 0x0
    4958:	03a04006 	moveq	r4, #6	; 0x6
    495c:	11a00005 	movne	r0, r5
    4960:	11a01006 	movne	r1, r6
    4964:	1bfff861 	blne	2af0 <get_fileinfo>
    4968:	e59d0108 	ldr	r0, [sp, #264]
    496c:	e1a01004 	mov	r1, r4
    4970:	ebfffdf7 	bl	4154 <unlock_fs>
    4974:	e1a00004 	mov	r0, r4
    4978:	e28ddf4e 	add	sp, sp, #312	; 0x138
    497c:	e8bd8070 	pop	{r4, r5, r6, pc}

00004980 <f_readdir>:
    4980:	e92d40f0 	push	{r4, r5, r6, r7, lr}
    4984:	e1a05000 	mov	r5, r0
    4988:	e24dde11 	sub	sp, sp, #272	; 0x110
    498c:	e1a06001 	mov	r6, r1
    4990:	e5900000 	ldr	r0, [r0]
    4994:	e1d510b4 	ldrh	r1, [r5, #4]
    4998:	ebfff83d 	bl	2a94 <validate>
    499c:	e2507000 	subs	r7, r0, #0	; 0x0
    49a0:	11a04007 	movne	r4, r7
    49a4:	1a00001e 	bne	4a24 <f_readdir+0xa4>
    49a8:	e3560000 	cmp	r6, #0	; 0x0
    49ac:	1a000004 	bne	49c4 <f_readdir+0x44>
    49b0:	e1a01006 	mov	r1, r6
    49b4:	e1a00005 	mov	r0, r5
    49b8:	ebfff99b 	bl	302c <dir_sdi>
    49bc:	e1a04000 	mov	r4, r0
    49c0:	ea000017 	b	4a24 <f_readdir+0xa4>
    49c4:	e28d3004 	add	r3, sp, #4	; 0x4
    49c8:	e2433002 	sub	r3, r3, #2	; 0x2
    49cc:	e28d2f41 	add	r2, sp, #260	; 0x104
    49d0:	e5852018 	str	r2, [r5, #24]
    49d4:	e585301c 	str	r3, [r5, #28]
    49d8:	e1a00005 	mov	r0, r5
    49dc:	ebfffd23 	bl	3e70 <dir_read>
    49e0:	e3500004 	cmp	r0, #4	; 0x4
    49e4:	e1a04000 	mov	r4, r0
    49e8:	05857010 	streq	r7, [r5, #16]
    49ec:	0a000001 	beq	49f8 <f_readdir+0x78>
    49f0:	e3500000 	cmp	r0, #0	; 0x0
    49f4:	1a00000a 	bne	4a24 <f_readdir+0xa4>
    49f8:	e1a01006 	mov	r1, r6
    49fc:	e1a00005 	mov	r0, r5
    4a00:	ebfff83a 	bl	2af0 <get_fileinfo>
    4a04:	e1a00005 	mov	r0, r5
    4a08:	e3a01000 	mov	r1, #0	; 0x0
    4a0c:	ebfffa3d 	bl	3308 <dir_next>
    4a10:	e3500004 	cmp	r0, #4	; 0x4
    4a14:	03a03000 	moveq	r3, #0	; 0x0
    4a18:	05853010 	streq	r3, [r5, #16]
    4a1c:	e1a04000 	mov	r4, r0
    4a20:	01a04003 	moveq	r4, r3
    4a24:	e5950000 	ldr	r0, [r5]
    4a28:	e1a01004 	mov	r1, r4
    4a2c:	ebfffdc8 	bl	4154 <unlock_fs>
    4a30:	e1a00004 	mov	r0, r4
    4a34:	e28dde11 	add	sp, sp, #272	; 0x110
    4a38:	e8bd80f0 	pop	{r4, r5, r6, r7, pc}

00004a3c <f_opendir>:
    4a3c:	e92d4030 	push	{r4, r5, lr}
    4a40:	e24ddf45 	sub	sp, sp, #276	; 0x114
    4a44:	e28d3f45 	add	r3, sp, #276	; 0x114
    4a48:	e1a05000 	mov	r5, r0
    4a4c:	e5231114 	str	r1, [r3, #-276]!
    4a50:	e1a0000d 	mov	r0, sp
    4a54:	e1a01005 	mov	r1, r5
    4a58:	e3a02000 	mov	r2, #0	; 0x0
    4a5c:	ebfff6fb 	bl	2650 <chk_mounted>
    4a60:	e2504000 	subs	r4, r0, #0	; 0x0
    4a64:	1a000021 	bne	4af0 <f_opendir+0xb4>
    4a68:	e28d3008 	add	r3, sp, #8	; 0x8
    4a6c:	e2433002 	sub	r3, r3, #2	; 0x2
    4a70:	e28d2f42 	add	r2, sp, #264	; 0x108
    4a74:	e5852018 	str	r2, [r5, #24]
    4a78:	e585301c 	str	r3, [r5, #28]
    4a7c:	e1a00005 	mov	r0, r5
    4a80:	e59d1000 	ldr	r1, [sp]
    4a84:	ebfffb15 	bl	36e0 <follow_path>
    4a88:	e2504000 	subs	r4, r0, #0	; 0x0
    4a8c:	1a000015 	bne	4ae8 <f_opendir+0xac>
    4a90:	e5951014 	ldr	r1, [r5, #20]
    4a94:	e3510000 	cmp	r1, #0	; 0x0
    4a98:	0a00000b 	beq	4acc <f_opendir+0x90>
    4a9c:	e5d1300b 	ldrb	r3, [r1, #11]
    4aa0:	e3130010 	tst	r3, #16	; 0x10
    4aa4:	03a04005 	moveq	r4, #5	; 0x5
    4aa8:	0a000010 	beq	4af0 <f_opendir+0xb4>
    4aac:	e5d1201a 	ldrb	r2, [r1, #26]
    4ab0:	e5d10015 	ldrb	r0, [r1, #21]
    4ab4:	e5d13014 	ldrb	r3, [r1, #20]
    4ab8:	e5d1101b 	ldrb	r1, [r1, #27]
    4abc:	e1833400 	orr	r3, r3, r0, lsl #8
    4ac0:	e1822401 	orr	r2, r2, r1, lsl #8
    4ac4:	e1822803 	orr	r2, r2, r3, lsl #16
    4ac8:	e5852008 	str	r2, [r5, #8]
    4acc:	e5953000 	ldr	r3, [r5]
    4ad0:	e1d330b6 	ldrh	r3, [r3, #6]
    4ad4:	e1a00005 	mov	r0, r5
    4ad8:	e1c530b4 	strh	r3, [r5, #4]
    4adc:	e3a01000 	mov	r1, #0	; 0x0
    4ae0:	ebfff951 	bl	302c <dir_sdi>
    4ae4:	e1a04000 	mov	r4, r0
    4ae8:	e3540004 	cmp	r4, #4	; 0x4
    4aec:	03a04005 	moveq	r4, #5	; 0x5
    4af0:	e5950000 	ldr	r0, [r5]
    4af4:	e1a01004 	mov	r1, r4
    4af8:	ebfffd95 	bl	4154 <unlock_fs>
    4afc:	e1a00004 	mov	r0, r4
    4b00:	e28ddf45 	add	sp, sp, #276	; 0x114
    4b04:	e8bd8030 	pop	{r4, r5, pc}

00004b08 <f_lseek>:
    4b08:	e92d47f0 	push	{r4, r5, r6, r7, r8, r9, sl, lr}
    4b0c:	e1a05000 	mov	r5, r0
    4b10:	e1a04001 	mov	r4, r1
    4b14:	e5900000 	ldr	r0, [r0]
    4b18:	e1d510b4 	ldrh	r1, [r5, #4]
    4b1c:	ebfff7dc 	bl	2a94 <validate>
    4b20:	e250a000 	subs	sl, r0, #0	; 0x0
    4b24:	15950000 	ldrne	r0, [r5]
    4b28:	11a0100a 	movne	r1, sl
    4b2c:	1a00009e 	bne	4dac <f_lseek+0x2a4>
    4b30:	e1d530d6 	ldrsb	r3, [r5, #6]
    4b34:	e3530000 	cmp	r3, #0	; 0x0
    4b38:	e5d53006 	ldrb	r3, [r5, #6]
    4b3c:	ba00002c 	blt	4bf4 <f_lseek+0xec>
    4b40:	e595600c 	ldr	r6, [r5, #12]
    4b44:	e1540006 	cmp	r4, r6
    4b48:	9a000001 	bls	4b54 <f_lseek+0x4c>
    4b4c:	e3130002 	tst	r3, #2	; 0x2
    4b50:	0a000000 	beq	4b58 <f_lseek+0x50>
    4b54:	e1a06004 	mov	r6, r4
    4b58:	e3a03000 	mov	r3, #0	; 0x0
    4b5c:	e3560000 	cmp	r6, #0	; 0x0
    4b60:	e5950008 	ldr	r0, [r5, #8]
    4b64:	e5853008 	str	r3, [r5, #8]
    4b68:	0a00005e 	beq	4ce8 <f_lseek+0x1e0>
    4b6c:	e5959000 	ldr	r9, [r5]
    4b70:	e5d93002 	ldrb	r3, [r9, #2]
    4b74:	e3500000 	cmp	r0, #0	; 0x0
    4b78:	e1a07483 	lsl	r7, r3, #9
    4b7c:	0a00000f 	beq	4bc0 <f_lseek+0xb8>
    4b80:	e2408001 	sub	r8, r0, #1	; 0x1
    4b84:	e1a01007 	mov	r1, r7
    4b88:	e2460001 	sub	r0, r6, #1	; 0x1
    4b8c:	eb00151f 	bl	a010 <__aeabi_uidiv>
    4b90:	e1a01007 	mov	r1, r7
    4b94:	e1a04000 	mov	r4, r0
    4b98:	e1a00008 	mov	r0, r8
    4b9c:	eb00151b 	bl	a010 <__aeabi_uidiv>
    4ba0:	e1540000 	cmp	r4, r0
    4ba4:	3a000005 	bcc	4bc0 <f_lseek+0xb8>
    4ba8:	e2673000 	rsb	r3, r7, #0	; 0x0
    4bac:	e0033008 	and	r3, r3, r8
    4bb0:	e0636006 	rsb	r6, r3, r6
    4bb4:	e5853008 	str	r3, [r5, #8]
    4bb8:	e595c014 	ldr	ip, [r5, #20]
    4bbc:	ea000015 	b	4c18 <f_lseek+0x110>
    4bc0:	e595c010 	ldr	ip, [r5, #16]
    4bc4:	e35c0000 	cmp	ip, #0	; 0x0
    4bc8:	1a000011 	bne	4c14 <f_lseek+0x10c>
    4bcc:	e1a0100c 	mov	r1, ip
    4bd0:	e1a00009 	mov	r0, r9
    4bd4:	ebfff95c 	bl	314c <create_chain>
    4bd8:	e3500001 	cmp	r0, #1	; 0x1
    4bdc:	e1a0c000 	mov	ip, r0
    4be0:	1a000008 	bne	4c08 <f_lseek+0x100>
    4be4:	e5d53006 	ldrb	r3, [r5, #6]
    4be8:	e1e03c83 	mvn	r3, r3, lsl #25
    4bec:	e1e03ca3 	mvn	r3, r3, lsr #25
    4bf0:	e5c53006 	strb	r3, [r5, #6]
    4bf4:	e5950000 	ldr	r0, [r5]
    4bf8:	e3a01002 	mov	r1, #2	; 0x2
    4bfc:	ebfffd54 	bl	4154 <unlock_fs>
    4c00:	e3a0a002 	mov	sl, #2	; 0x2
    4c04:	ea000069 	b	4db0 <f_lseek+0x2a8>
    4c08:	e3700001 	cmn	r0, #1	; 0x1
    4c0c:	15850010 	strne	r0, [r5, #16]
    4c10:	0a000053 	beq	4d64 <f_lseek+0x25c>
    4c14:	e585c014 	str	ip, [r5, #20]
    4c18:	e35c0000 	cmp	ip, #0	; 0x0
    4c1c:	1a00001a 	bne	4c8c <f_lseek+0x184>
    4c20:	ea000030 	b	4ce8 <f_lseek+0x1e0>
    4c24:	e5d53006 	ldrb	r3, [r5, #6]
    4c28:	e3130002 	tst	r3, #2	; 0x2
    4c2c:	e0676006 	rsb	r6, r7, r6
    4c30:	0a000005 	beq	4c4c <f_lseek+0x144>
    4c34:	e5950000 	ldr	r0, [r5]
    4c38:	ebfff943 	bl	314c <create_chain>
    4c3c:	e250c000 	subs	ip, r0, #0	; 0x0
    4c40:	1a000005 	bne	4c5c <f_lseek+0x154>
    4c44:	e1a06007 	mov	r6, r7
    4c48:	ea000012 	b	4c98 <f_lseek+0x190>
    4c4c:	e1a0100c 	mov	r1, ip
    4c50:	e5950000 	ldr	r0, [r5]
    4c54:	ebfff8a4 	bl	2eec <get_fat>
    4c58:	e1a0c000 	mov	ip, r0
    4c5c:	e37c0001 	cmn	ip, #1	; 0x1
    4c60:	0a00003f 	beq	4d64 <f_lseek+0x25c>
    4c64:	e35c0001 	cmp	ip, #1	; 0x1
    4c68:	9affffdd 	bls	4be4 <f_lseek+0xdc>
    4c6c:	e5953000 	ldr	r3, [r5]
    4c70:	e593301c 	ldr	r3, [r3, #28]
    4c74:	e15c0003 	cmp	ip, r3
    4c78:	2affffd9 	bcs	4be4 <f_lseek+0xdc>
    4c7c:	e5953008 	ldr	r3, [r5, #8]
    4c80:	e0833007 	add	r3, r3, r7
    4c84:	e5853008 	str	r3, [r5, #8]
    4c88:	e585c014 	str	ip, [r5, #20]
    4c8c:	e1560007 	cmp	r6, r7
    4c90:	e1a0100c 	mov	r1, ip
    4c94:	8affffe2 	bhi	4c24 <f_lseek+0x11c>
    4c98:	e5952008 	ldr	r2, [r5, #8]
    4c9c:	e1a03b86 	lsl	r3, r6, #23
    4ca0:	e1a03ba3 	lsr	r3, r3, #23
    4ca4:	e0822006 	add	r2, r2, r6
    4ca8:	e3530000 	cmp	r3, #0	; 0x0
    4cac:	e5852008 	str	r2, [r5, #8]
    4cb0:	0a00000c 	beq	4ce8 <f_lseek+0x1e0>
    4cb4:	e595e000 	ldr	lr, [r5]
    4cb8:	e59e301c 	ldr	r3, [lr, #28]
    4cbc:	e24c1002 	sub	r1, ip, #2	; 0x2
    4cc0:	e2433002 	sub	r3, r3, #2	; 0x2
    4cc4:	e1510003 	cmp	r1, r3
    4cc8:	2affffc5 	bcs	4be4 <f_lseek+0xdc>
    4ccc:	e59e202c 	ldr	r2, [lr, #44]
    4cd0:	e5de3002 	ldrb	r3, [lr, #2]
    4cd4:	e0202193 	mla	r0, r3, r1, r2
    4cd8:	e3500000 	cmp	r0, #0	; 0x0
    4cdc:	108044a6 	addne	r4, r0, r6, lsr #9
    4ce0:	1a000001 	bne	4cec <f_lseek+0x1e4>
    4ce4:	eaffffbe 	b	4be4 <f_lseek+0xdc>
    4ce8:	e3a04000 	mov	r4, #0	; 0x0
    4cec:	e5953008 	ldr	r3, [r5, #8]
    4cf0:	e1a03b83 	lsl	r3, r3, #23
    4cf4:	e1a03ba3 	lsr	r3, r3, #23
    4cf8:	e3530000 	cmp	r3, #0	; 0x0
    4cfc:	0a000021 	beq	4d88 <f_lseek+0x280>
    4d00:	e5952018 	ldr	r2, [r5, #24]
    4d04:	e1540002 	cmp	r4, r2
    4d08:	0a00001e 	beq	4d88 <f_lseek+0x280>
    4d0c:	e5d53006 	ldrb	r3, [r5, #6]
    4d10:	e3130040 	tst	r3, #64	; 0x40
    4d14:	0a000009 	beq	4d40 <f_lseek+0x238>
    4d18:	e1a01005 	mov	r1, r5
    4d1c:	e4913024 	ldr	r3, [r1], #36
    4d20:	e5d30001 	ldrb	r0, [r3, #1]
    4d24:	e3a03001 	mov	r3, #1	; 0x1
    4d28:	ebfff3e8 	bl	1cd0 <disk_write>
    4d2c:	e5d53006 	ldrb	r3, [r5, #6]
    4d30:	e3500000 	cmp	r0, #0	; 0x0
    4d34:	03c33040 	biceq	r3, r3, #64	; 0x40
    4d38:	05c53006 	strbeq	r3, [r5, #6]
    4d3c:	1a000009 	bne	4d68 <f_lseek+0x260>
    4d40:	e1a01005 	mov	r1, r5
    4d44:	e4913024 	ldr	r3, [r1], #36
    4d48:	e1a02004 	mov	r2, r4
    4d4c:	e5d30001 	ldrb	r0, [r3, #1]
    4d50:	e3a03001 	mov	r3, #1	; 0x1
    4d54:	ebfff423 	bl	1de8 <disk_read>
    4d58:	e3500000 	cmp	r0, #0	; 0x0
    4d5c:	05854018 	streq	r4, [r5, #24]
    4d60:	0a000008 	beq	4d88 <f_lseek+0x280>
    4d64:	e5d53006 	ldrb	r3, [r5, #6]
    4d68:	e1e03c83 	mvn	r3, r3, lsl #25
    4d6c:	e1e03ca3 	mvn	r3, r3, lsr #25
    4d70:	e5c53006 	strb	r3, [r5, #6]
    4d74:	e5950000 	ldr	r0, [r5]
    4d78:	e3a01001 	mov	r1, #1	; 0x1
    4d7c:	ebfffcf4 	bl	4154 <unlock_fs>
    4d80:	e3a0a001 	mov	sl, #1	; 0x1
    4d84:	ea000009 	b	4db0 <f_lseek+0x2a8>
    4d88:	e2852008 	add	r2, r5, #8	; 0x8
    4d8c:	e892000c 	ldm	r2, {r2, r3}
    4d90:	e1520003 	cmp	r2, r3
    4d94:	85d53006 	ldrbhi	r3, [r5, #6]
    4d98:	83833020 	orrhi	r3, r3, #32	; 0x20
    4d9c:	8585200c 	strhi	r2, [r5, #12]
    4da0:	85c53006 	strbhi	r3, [r5, #6]
    4da4:	e5950000 	ldr	r0, [r5]
    4da8:	e3a01000 	mov	r1, #0	; 0x0
    4dac:	ebfffce8 	bl	4154 <unlock_fs>
    4db0:	e1a0000a 	mov	r0, sl
    4db4:	e8bd87f0 	pop	{r4, r5, r6, r7, r8, r9, sl, pc}

00004db8 <f_write>:
    4db8:	e92d4ff0 	push	{r4, r5, r6, r7, r8, r9, sl, fp, lr}
    4dbc:	e24dd004 	sub	sp, sp, #4	; 0x4
    4dc0:	e58d3000 	str	r3, [sp]
    4dc4:	e1a04000 	mov	r4, r0
    4dc8:	e59d0000 	ldr	r0, [sp]
    4dcc:	e3a03000 	mov	r3, #0	; 0x0
    4dd0:	e5803000 	str	r3, [r0]
    4dd4:	e1a05001 	mov	r5, r1
    4dd8:	e5940000 	ldr	r0, [r4]
    4ddc:	e1d410b4 	ldrh	r1, [r4, #4]
    4de0:	e1a07002 	mov	r7, r2
    4de4:	ebfff72a 	bl	2a94 <validate>
    4de8:	e2508000 	subs	r8, r0, #0	; 0x0
    4dec:	15940000 	ldrne	r0, [r4]
    4df0:	11a01008 	movne	r1, r8
    4df4:	1a0000bc 	bne	50ec <f_write+0x334>
    4df8:	e1d430d6 	ldrsb	r3, [r4, #6]
    4dfc:	e3530000 	cmp	r3, #0	; 0x0
    4e00:	e5d43006 	ldrb	r3, [r4, #6]
    4e04:	ba000058 	blt	4f6c <f_write+0x1b4>
    4e08:	e3130002 	tst	r3, #2	; 0x2
    4e0c:	1a000004 	bne	4e24 <f_write+0x6c>
    4e10:	e5940000 	ldr	r0, [r4]
    4e14:	e3a01007 	mov	r1, #7	; 0x7
    4e18:	ebfffccd 	bl	4154 <unlock_fs>
    4e1c:	e3a08007 	mov	r8, #7	; 0x7
    4e20:	ea0000b2 	b	50f0 <f_write+0x338>
    4e24:	e594300c 	ldr	r3, [r4, #12]
    4e28:	e1770003 	cmn	r7, r3
    4e2c:	23a07000 	movcs	r7, #0	; 0x0
    4e30:	e1a09005 	mov	r9, r5
    4e34:	e284b024 	add	fp, r4, #36	; 0x24
    4e38:	ea0000a0 	b	50c0 <f_write+0x308>
    4e3c:	e5942008 	ldr	r2, [r4, #8]
    4e40:	e1a03b82 	lsl	r3, r2, #23
    4e44:	e1a03ba3 	lsr	r3, r3, #23
    4e48:	e3530000 	cmp	r3, #0	; 0x0
    4e4c:	1a00007d 	bne	5048 <f_write+0x290>
    4e50:	e5940000 	ldr	r0, [r4]
    4e54:	e5d03002 	ldrb	r3, [r0, #2]
    4e58:	e2433001 	sub	r3, r3, #1	; 0x1
    4e5c:	e00334a2 	and	r3, r3, r2, lsr #9
    4e60:	e213a0ff 	ands	sl, r3, #255	; 0xff
    4e64:	1a000022 	bne	4ef4 <f_write+0x13c>
    4e68:	e3520000 	cmp	r2, #0	; 0x0
    4e6c:	1a000006 	bne	4e8c <f_write+0xd4>
    4e70:	e5941010 	ldr	r1, [r4, #16]
    4e74:	e3510000 	cmp	r1, #0	; 0x0
    4e78:	1a000008 	bne	4ea0 <f_write+0xe8>
    4e7c:	ebfff8b2 	bl	314c <create_chain>
    4e80:	e1a01000 	mov	r1, r0
    4e84:	e5840010 	str	r0, [r4, #16]
    4e88:	ea000002 	b	4e98 <f_write+0xe0>
    4e8c:	e5941014 	ldr	r1, [r4, #20]
    4e90:	ebfff8ad 	bl	314c <create_chain>
    4e94:	e1a01000 	mov	r1, r0
    4e98:	e3510000 	cmp	r1, #0	; 0x0
    4e9c:	0a000089 	beq	50c8 <f_write+0x310>
    4ea0:	e3510001 	cmp	r1, #1	; 0x1
    4ea4:	1a000008 	bne	4ecc <f_write+0x114>
    4ea8:	e5d43006 	ldrb	r3, [r4, #6]
    4eac:	e1e03c83 	mvn	r3, r3, lsl #25
    4eb0:	e1e03ca3 	mvn	r3, r3, lsr #25
    4eb4:	e5c43006 	strb	r3, [r4, #6]
    4eb8:	e5940000 	ldr	r0, [r4]
    4ebc:	e2811001 	add	r1, r1, #1	; 0x1
    4ec0:	ebfffca3 	bl	4154 <unlock_fs>
    4ec4:	e3a08002 	mov	r8, #2	; 0x2
    4ec8:	ea000088 	b	50f0 <f_write+0x338>
    4ecc:	e3710001 	cmn	r1, #1	; 0x1
    4ed0:	1a000006 	bne	4ef0 <f_write+0x138>
    4ed4:	e5d43006 	ldrb	r3, [r4, #6]
    4ed8:	e1e03c83 	mvn	r3, r3, lsl #25
    4edc:	e1e03ca3 	mvn	r3, r3, lsr #25
    4ee0:	e5c43006 	strb	r3, [r4, #6]
    4ee4:	e5940000 	ldr	r0, [r4]
    4ee8:	e2811002 	add	r1, r1, #2	; 0x2
    4eec:	ea000051 	b	5038 <f_write+0x280>
    4ef0:	e5841014 	str	r1, [r4, #20]
    4ef4:	e5d43006 	ldrb	r3, [r4, #6]
    4ef8:	e3130040 	tst	r3, #64	; 0x40
    4efc:	0a00000a 	beq	4f2c <f_write+0x174>
    4f00:	e5943000 	ldr	r3, [r4]
    4f04:	e1a0100b 	mov	r1, fp
    4f08:	e5d30001 	ldrb	r0, [r3, #1]
    4f0c:	e5942018 	ldr	r2, [r4, #24]
    4f10:	e3a03001 	mov	r3, #1	; 0x1
    4f14:	ebfff36d 	bl	1cd0 <disk_write>
    4f18:	e3500000 	cmp	r0, #0	; 0x0
    4f1c:	e5d43006 	ldrb	r3, [r4, #6]
    4f20:	1a00003f 	bne	5024 <f_write+0x26c>
    4f24:	e3c33040 	bic	r3, r3, #64	; 0x40
    4f28:	e5c43006 	strb	r3, [r4, #6]
    4f2c:	e594c000 	ldr	ip, [r4]
    4f30:	e5942014 	ldr	r2, [r4, #20]
    4f34:	e59c301c 	ldr	r3, [ip, #28]
    4f38:	e2420002 	sub	r0, r2, #2	; 0x2
    4f3c:	e2433002 	sub	r3, r3, #2	; 0x2
    4f40:	e1500003 	cmp	r0, r3
    4f44:	2a000004 	bcs	4f5c <f_write+0x1a4>
    4f48:	e5dc1002 	ldrb	r1, [ip, #2]
    4f4c:	e59c302c 	ldr	r3, [ip, #44]
    4f50:	e0223190 	mla	r2, r0, r1, r3
    4f54:	e3520000 	cmp	r2, #0	; 0x0
    4f58:	1a000006 	bne	4f78 <f_write+0x1c0>
    4f5c:	e5d43006 	ldrb	r3, [r4, #6]
    4f60:	e1e03c83 	mvn	r3, r3, lsl #25
    4f64:	e1e03ca3 	mvn	r3, r3, lsr #25
    4f68:	e5c43006 	strb	r3, [r4, #6]
    4f6c:	e5940000 	ldr	r0, [r4]
    4f70:	e3a01002 	mov	r1, #2	; 0x2
    4f74:	eaffffd1 	b	4ec0 <f_write+0x108>
    4f78:	e1b054a7 	lsrs	r5, r7, #9
    4f7c:	e08a6002 	add	r6, sl, r2
    4f80:	0a000018 	beq	4fe8 <f_write+0x230>
    4f84:	e085300a 	add	r3, r5, sl
    4f88:	e1530001 	cmp	r3, r1
    4f8c:	806a5001 	rsbhi	r5, sl, r1
    4f90:	e20530ff 	and	r3, r5, #255	; 0xff
    4f94:	e5dc0001 	ldrb	r0, [ip, #1]
    4f98:	e1a01009 	mov	r1, r9
    4f9c:	e1a02006 	mov	r2, r6
    4fa0:	ebfff34a 	bl	1cd0 <disk_write>
    4fa4:	e3500000 	cmp	r0, #0	; 0x0
    4fa8:	1a00001c 	bne	5020 <f_write+0x268>
    4fac:	e5943018 	ldr	r3, [r4, #24]
    4fb0:	e0662003 	rsb	r2, r6, r3
    4fb4:	e1520005 	cmp	r2, r5
    4fb8:	2a000008 	bcs	4fe0 <f_write+0x228>
    4fbc:	e0892482 	add	r2, r9, r2, lsl #9
    4fc0:	e7d23000 	ldrb	r3, [r2, r0]
    4fc4:	e7cb3000 	strb	r3, [fp, r0]
    4fc8:	e2800001 	add	r0, r0, #1	; 0x1
    4fcc:	e3500c02 	cmp	r0, #512	; 0x200
    4fd0:	1afffffa 	bne	4fc0 <f_write+0x208>
    4fd4:	e5d43006 	ldrb	r3, [r4, #6]
    4fd8:	e3c33040 	bic	r3, r3, #64	; 0x40
    4fdc:	e5c43006 	strb	r3, [r4, #6]
    4fe0:	e1a00485 	lsl	r0, r5, #9
    4fe4:	ea00002c 	b	509c <f_write+0x2e4>
    4fe8:	e5943018 	ldr	r3, [r4, #24]
    4fec:	e1530006 	cmp	r3, r6
    4ff0:	0a000013 	beq	5044 <f_write+0x28c>
    4ff4:	e2842008 	add	r2, r4, #8	; 0x8
    4ff8:	e892000c 	ldm	r2, {r2, r3}
    4ffc:	e1520003 	cmp	r2, r3
    5000:	2a00000f 	bcs	5044 <f_write+0x28c>
    5004:	e5dc0001 	ldrb	r0, [ip, #1]
    5008:	e1a0100b 	mov	r1, fp
    500c:	e1a02006 	mov	r2, r6
    5010:	e3a03001 	mov	r3, #1	; 0x1
    5014:	ebfff373 	bl	1de8 <disk_read>
    5018:	e3500000 	cmp	r0, #0	; 0x0
    501c:	0a000008 	beq	5044 <f_write+0x28c>
    5020:	e5d43006 	ldrb	r3, [r4, #6]
    5024:	e1e03c83 	mvn	r3, r3, lsl #25
    5028:	e1e03ca3 	mvn	r3, r3, lsr #25
    502c:	e5c43006 	strb	r3, [r4, #6]
    5030:	e5940000 	ldr	r0, [r4]
    5034:	e3a01001 	mov	r1, #1	; 0x1
    5038:	ebfffc45 	bl	4154 <unlock_fs>
    503c:	e3a08001 	mov	r8, #1	; 0x1
    5040:	ea00002a 	b	50f0 <f_write+0x338>
    5044:	e5846018 	str	r6, [r4, #24]
    5048:	e5943008 	ldr	r3, [r4, #8]
    504c:	e1a03b83 	lsl	r3, r3, #23
    5050:	e1a03ba3 	lsr	r3, r3, #23
    5054:	e2632c02 	rsb	r2, r3, #512	; 0x200
    5058:	e1570002 	cmp	r7, r2
    505c:	31a00007 	movcc	r0, r7
    5060:	21a00002 	movcs	r0, r2
    5064:	e2833024 	add	r3, r3, #36	; 0x24
    5068:	e084c003 	add	ip, r4, r3
    506c:	e1a01000 	mov	r1, r0
    5070:	e3a02000 	mov	r2, #0	; 0x0
    5074:	ea000002 	b	5084 <f_write+0x2cc>
    5078:	e7d93002 	ldrb	r3, [r9, r2]
    507c:	e7cc3002 	strb	r3, [ip, r2]
    5080:	e2822001 	add	r2, r2, #1	; 0x1
    5084:	e3510000 	cmp	r1, #0	; 0x0
    5088:	e2411001 	sub	r1, r1, #1	; 0x1
    508c:	1afffff9 	bne	5078 <f_write+0x2c0>
    5090:	e5d43006 	ldrb	r3, [r4, #6]
    5094:	e3833040 	orr	r3, r3, #64	; 0x40
    5098:	e5c43006 	strb	r3, [r4, #6]
    509c:	e59d1000 	ldr	r1, [sp]
    50a0:	e5943008 	ldr	r3, [r4, #8]
    50a4:	e5912000 	ldr	r2, [r1]
    50a8:	e0833000 	add	r3, r3, r0
    50ac:	e0822000 	add	r2, r2, r0
    50b0:	e5843008 	str	r3, [r4, #8]
    50b4:	e5812000 	str	r2, [r1]
    50b8:	e0607007 	rsb	r7, r0, r7
    50bc:	e0899000 	add	r9, r9, r0
    50c0:	e3570000 	cmp	r7, #0	; 0x0
    50c4:	1affff5c 	bne	4e3c <f_write+0x84>
    50c8:	e2842008 	add	r2, r4, #8	; 0x8
    50cc:	e892000c 	ldm	r2, {r2, r3}
    50d0:	e1520003 	cmp	r2, r3
    50d4:	e5d43006 	ldrb	r3, [r4, #6]
    50d8:	e3833020 	orr	r3, r3, #32	; 0x20
    50dc:	8584200c 	strhi	r2, [r4, #12]
    50e0:	e5c43006 	strb	r3, [r4, #6]
    50e4:	e5940000 	ldr	r0, [r4]
    50e8:	e3a01000 	mov	r1, #0	; 0x0
    50ec:	ebfffc18 	bl	4154 <unlock_fs>
    50f0:	e1a00008 	mov	r0, r8
    50f4:	e28dd004 	add	sp, sp, #4	; 0x4
    50f8:	e8bd8ff0 	pop	{r4, r5, r6, r7, r8, r9, sl, fp, pc}

000050fc <f_read>:
    50fc:	e92d4ff0 	push	{r4, r5, r6, r7, r8, r9, sl, fp, lr}
    5100:	e24dd004 	sub	sp, sp, #4	; 0x4
    5104:	e58d3000 	str	r3, [sp]
    5108:	e1a04000 	mov	r4, r0
    510c:	e59d0000 	ldr	r0, [sp]
    5110:	e3a03000 	mov	r3, #0	; 0x0
    5114:	e5803000 	str	r3, [r0]
    5118:	e1a06001 	mov	r6, r1
    511c:	e5940000 	ldr	r0, [r4]
    5120:	e1d410b4 	ldrh	r1, [r4, #4]
    5124:	e1a05002 	mov	r5, r2
    5128:	ebfff659 	bl	2a94 <validate>
    512c:	e2508000 	subs	r8, r0, #0	; 0x0
    5130:	15940000 	ldrne	r0, [r4]
    5134:	11a01008 	movne	r1, r8
    5138:	1a000099 	bne	53a4 <f_read+0x2a8>
    513c:	e1d430d6 	ldrsb	r3, [r4, #6]
    5140:	e3530000 	cmp	r3, #0	; 0x0
    5144:	e5d43006 	ldrb	r3, [r4, #6]
    5148:	ba000024 	blt	51e0 <f_read+0xe4>
    514c:	e3130001 	tst	r3, #1	; 0x1
    5150:	1a000004 	bne	5168 <f_read+0x6c>
    5154:	e5940000 	ldr	r0, [r4]
    5158:	e3a01007 	mov	r1, #7	; 0x7
    515c:	ebfffbfc 	bl	4154 <unlock_fs>
    5160:	e3a08007 	mov	r8, #7	; 0x7
    5164:	ea00008f 	b	53a8 <f_read+0x2ac>
    5168:	e284100c 	add	r1, r4, #12	; 0xc
    516c:	e811000a 	ldmda	r1, {r1, r3}
    5170:	e0433001 	sub	r3, r3, r1
    5174:	e1a09006 	mov	r9, r6
    5178:	e1550003 	cmp	r5, r3
    517c:	31a0a005 	movcc	sl, r5
    5180:	21a0a003 	movcs	sl, r3
    5184:	e284b024 	add	fp, r4, #36	; 0x24
    5188:	ea000081 	b	5394 <f_read+0x298>
    518c:	e5942008 	ldr	r2, [r4, #8]
    5190:	e1a03b82 	lsl	r3, r2, #23
    5194:	e1a03ba3 	lsr	r3, r3, #23
    5198:	e3530000 	cmp	r3, #0	; 0x0
    519c:	1a000061 	bne	5328 <f_read+0x22c>
    51a0:	e5940000 	ldr	r0, [r4]
    51a4:	e5d03002 	ldrb	r3, [r0, #2]
    51a8:	e2433001 	sub	r3, r3, #1	; 0x1
    51ac:	e00334a2 	and	r3, r3, r2, lsr #9
    51b0:	e21370ff 	ands	r7, r3, #255	; 0xff
    51b4:	1a000011 	bne	5200 <f_read+0x104>
    51b8:	e3520000 	cmp	r2, #0	; 0x0
    51bc:	05940010 	ldreq	r0, [r4, #16]
    51c0:	15941014 	ldrne	r1, [r4, #20]
    51c4:	1bfff748 	blne	2eec <get_fat>
    51c8:	e3500001 	cmp	r0, #1	; 0x1
    51cc:	8a000008 	bhi	51f4 <f_read+0xf8>
    51d0:	e5d43006 	ldrb	r3, [r4, #6]
    51d4:	e1e03c83 	mvn	r3, r3, lsl #25
    51d8:	e1e03ca3 	mvn	r3, r3, lsr #25
    51dc:	e5c43006 	strb	r3, [r4, #6]
    51e0:	e5940000 	ldr	r0, [r4]
    51e4:	e3a01002 	mov	r1, #2	; 0x2
    51e8:	ebfffbd9 	bl	4154 <unlock_fs>
    51ec:	e3a08002 	mov	r8, #2	; 0x2
    51f0:	ea00006c 	b	53a8 <f_read+0x2ac>
    51f4:	e3700001 	cmn	r0, #1	; 0x1
    51f8:	0a000040 	beq	5300 <f_read+0x204>
    51fc:	e5840014 	str	r0, [r4, #20]
    5200:	e5940000 	ldr	r0, [r4]
    5204:	e5942014 	ldr	r2, [r4, #20]
    5208:	e590301c 	ldr	r3, [r0, #28]
    520c:	e242c002 	sub	ip, r2, #2	; 0x2
    5210:	e2433002 	sub	r3, r3, #2	; 0x2
    5214:	e15c0003 	cmp	ip, r3
    5218:	2affffec 	bcs	51d0 <f_read+0xd4>
    521c:	e5d01002 	ldrb	r1, [r0, #2]
    5220:	e590302c 	ldr	r3, [r0, #44]
    5224:	e022319c 	mla	r2, ip, r1, r3
    5228:	e3520000 	cmp	r2, #0	; 0x0
    522c:	0affffe7 	beq	51d0 <f_read+0xd4>
    5230:	e1b054aa 	lsrs	r5, sl, #9
    5234:	e0876002 	add	r6, r7, r2
    5238:	0a000018 	beq	52a0 <f_read+0x1a4>
    523c:	e0853007 	add	r3, r5, r7
    5240:	e1530001 	cmp	r3, r1
    5244:	80675001 	rsbhi	r5, r7, r1
    5248:	e20530ff 	and	r3, r5, #255	; 0xff
    524c:	e5d00001 	ldrb	r0, [r0, #1]
    5250:	e1a01009 	mov	r1, r9
    5254:	e1a02006 	mov	r2, r6
    5258:	ebfff2e2 	bl	1de8 <disk_read>
    525c:	e3500000 	cmp	r0, #0	; 0x0
    5260:	e5d43006 	ldrb	r3, [r4, #6]
    5264:	1a000026 	bne	5304 <f_read+0x208>
    5268:	e3130040 	tst	r3, #64	; 0x40
    526c:	0a000009 	beq	5298 <f_read+0x19c>
    5270:	e5943018 	ldr	r3, [r4, #24]
    5274:	e0662003 	rsb	r2, r6, r3
    5278:	e1520005 	cmp	r2, r5
    527c:	2a000005 	bcs	5298 <f_read+0x19c>
    5280:	e0892482 	add	r2, r9, r2, lsl #9
    5284:	e7db3000 	ldrb	r3, [fp, r0]
    5288:	e7c23000 	strb	r3, [r2, r0]
    528c:	e2800001 	add	r0, r0, #1	; 0x1
    5290:	e3500c02 	cmp	r0, #512	; 0x200
    5294:	1afffffa 	bne	5284 <f_read+0x188>
    5298:	e1a00485 	lsl	r0, r5, #9
    529c:	ea000033 	b	5370 <f_read+0x274>
    52a0:	e5d43006 	ldrb	r3, [r4, #6]
    52a4:	e3130040 	tst	r3, #64	; 0x40
    52a8:	0a000009 	beq	52d4 <f_read+0x1d8>
    52ac:	e3a03001 	mov	r3, #1	; 0x1
    52b0:	e5d00001 	ldrb	r0, [r0, #1]
    52b4:	e1a0100b 	mov	r1, fp
    52b8:	e5942018 	ldr	r2, [r4, #24]
    52bc:	ebfff283 	bl	1cd0 <disk_write>
    52c0:	e3500000 	cmp	r0, #0	; 0x0
    52c4:	e5d43006 	ldrb	r3, [r4, #6]
    52c8:	1a00000d 	bne	5304 <f_read+0x208>
    52cc:	e3c33040 	bic	r3, r3, #64	; 0x40
    52d0:	e5c43006 	strb	r3, [r4, #6]
    52d4:	e5943018 	ldr	r3, [r4, #24]
    52d8:	e1530006 	cmp	r3, r6
    52dc:	0a000010 	beq	5324 <f_read+0x228>
    52e0:	e5943000 	ldr	r3, [r4]
    52e4:	e1a0100b 	mov	r1, fp
    52e8:	e5d30001 	ldrb	r0, [r3, #1]
    52ec:	e1a02006 	mov	r2, r6
    52f0:	e3a03001 	mov	r3, #1	; 0x1
    52f4:	ebfff2bb 	bl	1de8 <disk_read>
    52f8:	e3500000 	cmp	r0, #0	; 0x0
    52fc:	0a000008 	beq	5324 <f_read+0x228>
    5300:	e5d43006 	ldrb	r3, [r4, #6]
    5304:	e1e03c83 	mvn	r3, r3, lsl #25
    5308:	e1e03ca3 	mvn	r3, r3, lsr #25
    530c:	e5c43006 	strb	r3, [r4, #6]
    5310:	e5940000 	ldr	r0, [r4]
    5314:	e3a01001 	mov	r1, #1	; 0x1
    5318:	ebfffb8d 	bl	4154 <unlock_fs>
    531c:	e3a08001 	mov	r8, #1	; 0x1
    5320:	ea000020 	b	53a8 <f_read+0x2ac>
    5324:	e5846018 	str	r6, [r4, #24]
    5328:	e5943008 	ldr	r3, [r4, #8]
    532c:	e1a03b83 	lsl	r3, r3, #23
    5330:	e1a03ba3 	lsr	r3, r3, #23
    5334:	e2632c02 	rsb	r2, r3, #512	; 0x200
    5338:	e15a0002 	cmp	sl, r2
    533c:	31a0000a 	movcc	r0, sl
    5340:	21a00002 	movcs	r0, r2
    5344:	e2833024 	add	r3, r3, #36	; 0x24
    5348:	e084c003 	add	ip, r4, r3
    534c:	e1a01000 	mov	r1, r0
    5350:	e3a02000 	mov	r2, #0	; 0x0
    5354:	ea000002 	b	5364 <f_read+0x268>
    5358:	e7dc3002 	ldrb	r3, [ip, r2]
    535c:	e7c93002 	strb	r3, [r9, r2]
    5360:	e2822001 	add	r2, r2, #1	; 0x1
    5364:	e3510000 	cmp	r1, #0	; 0x0
    5368:	e2411001 	sub	r1, r1, #1	; 0x1
    536c:	1afffff9 	bne	5358 <f_read+0x25c>
    5370:	e59d1000 	ldr	r1, [sp]
    5374:	e5943008 	ldr	r3, [r4, #8]
    5378:	e5912000 	ldr	r2, [r1]
    537c:	e0833000 	add	r3, r3, r0
    5380:	e0822000 	add	r2, r2, r0
    5384:	e5843008 	str	r3, [r4, #8]
    5388:	e5812000 	str	r2, [r1]
    538c:	e060a00a 	rsb	sl, r0, sl
    5390:	e0899000 	add	r9, r9, r0
    5394:	e35a0000 	cmp	sl, #0	; 0x0
    5398:	1affff7b 	bne	518c <f_read+0x90>
    539c:	e5940000 	ldr	r0, [r4]
    53a0:	e1a0100a 	mov	r1, sl
    53a4:	ebfffb6a 	bl	4154 <unlock_fs>
    53a8:	e1a00008 	mov	r0, r8
    53ac:	e28dd004 	add	sp, sp, #4	; 0x4
    53b0:	e8bd8ff0 	pop	{r4, r5, r6, r7, r8, r9, sl, fp, pc}

000053b4 <f_mkdir>:
    53b4:	e92d4ff0 	push	{r4, r5, r6, r7, r8, r9, sl, fp, lr}
    53b8:	e24ddf55 	sub	sp, sp, #340	; 0x154
    53bc:	e28d4f55 	add	r4, sp, #340	; 0x154
    53c0:	e5240138 	str	r0, [r4, #-312]!
    53c4:	eb0001fa 	bl	5bb4 <get_fattime>
    53c8:	e28d6f49 	add	r6, sp, #292	; 0x124
    53cc:	e1a05000 	mov	r5, r0
    53d0:	e1a01006 	mov	r1, r6
    53d4:	e1a00004 	mov	r0, r4
    53d8:	e3a02001 	mov	r2, #1	; 0x1
    53dc:	ebfff49b 	bl	2650 <chk_mounted>
    53e0:	e2504000 	subs	r4, r0, #0	; 0x0
    53e4:	1a0000a4 	bne	567c <f_mkdir+0x2c8>
    53e8:	e28d2024 	add	r2, sp, #36	; 0x24
    53ec:	e2422002 	sub	r2, r2, #2	; 0x2
    53f0:	e28d3f52 	add	r3, sp, #328	; 0x148
    53f4:	e1a00006 	mov	r0, r6
    53f8:	e59d101c 	ldr	r1, [sp, #28]
    53fc:	e58d313c 	str	r3, [sp, #316]
    5400:	e58d2140 	str	r2, [sp, #320]
    5404:	ebfff8b5 	bl	36e0 <follow_path>
    5408:	e2504000 	subs	r4, r0, #0	; 0x0
    540c:	03a04008 	moveq	r4, #8	; 0x8
    5410:	0a000099 	beq	567c <f_mkdir+0x2c8>
    5414:	e3540004 	cmp	r4, #4	; 0x4
    5418:	1a000097 	bne	567c <f_mkdir+0x2c8>
    541c:	e59d0124 	ldr	r0, [sp, #292]
    5420:	e3a01000 	mov	r1, #0	; 0x0
    5424:	ebfff748 	bl	314c <create_chain>
    5428:	e2506000 	subs	r6, r0, #0	; 0x0
    542c:	02844003 	addeq	r4, r4, #3	; 0x3
    5430:	0a000076 	beq	5610 <f_mkdir+0x25c>
    5434:	e3560001 	cmp	r6, #1	; 0x1
    5438:	03a04002 	moveq	r4, #2	; 0x2
    543c:	0a000073 	beq	5610 <f_mkdir+0x25c>
    5440:	e3760001 	cmn	r6, #1	; 0x1
    5444:	03a04001 	moveq	r4, #1	; 0x1
    5448:	0a000070 	beq	5610 <f_mkdir+0x25c>
    544c:	e59d0124 	ldr	r0, [sp, #292]
    5450:	e3a01000 	mov	r1, #0	; 0x0
    5454:	ebfff610 	bl	2c9c <move_window>
    5458:	e2504000 	subs	r4, r0, #0	; 0x0
    545c:	1a00006b 	bne	5610 <f_mkdir+0x25c>
    5460:	e59dc124 	ldr	ip, [sp, #292]
    5464:	e59c301c 	ldr	r3, [ip, #28]
    5468:	e2461002 	sub	r1, r6, #2	; 0x2
    546c:	e2433002 	sub	r3, r3, #2	; 0x2
    5470:	e1510003 	cmp	r1, r3
    5474:	35dc2002 	ldrbcc	r2, [ip, #2]
    5478:	359c302c 	ldrcc	r3, [ip, #44]
    547c:	30283192 	mlacc	r8, r2, r1, r3
    5480:	e3a03000 	mov	r3, #0	; 0x0
    5484:	21a08004 	movcs	r8, r4
    5488:	e28c7034 	add	r7, ip, #52	; 0x34
    548c:	e1a02003 	mov	r2, r3
    5490:	e7c72003 	strb	r2, [r7, r3]
    5494:	e2833001 	add	r3, r3, #1	; 0x1
    5498:	e3530c02 	cmp	r3, #512	; 0x200
    549c:	1afffffb 	bne	5490 <f_mkdir+0xdc>
    54a0:	e2433c02 	sub	r3, r3, #512	; 0x200
    54a4:	e3a02020 	mov	r2, #32	; 0x20
    54a8:	e7c72003 	strb	r2, [r7, r3]
    54ac:	e2833001 	add	r3, r3, #1	; 0x1
    54b0:	e353000b 	cmp	r3, #11	; 0xb
    54b4:	1afffffb 	bne	54a8 <f_mkdir+0xf4>
    54b8:	e1a03805 	lsl	r3, r5, #16
    54bc:	e1a02825 	lsr	r2, r5, #16
    54c0:	e1a00826 	lsr	r0, r6, #16
    54c4:	e1a03c23 	lsr	r3, r3, #24
    54c8:	e20220ff 	and	r2, r2, #255	; 0xff
    54cc:	e58d3000 	str	r3, [sp]
    54d0:	e58d2004 	str	r2, [sp, #4]
    54d4:	e1a03420 	lsr	r3, r0, #8
    54d8:	e1a02c25 	lsr	r2, r5, #24
    54dc:	e1a01806 	lsl	r1, r6, #16
    54e0:	e58d2008 	str	r2, [sp, #8]
    54e4:	e58d3018 	str	r3, [sp, #24]
    54e8:	e1a01c21 	lsr	r1, r1, #24
    54ec:	e20620ff 	and	r2, r6, #255	; 0xff
    54f0:	e3a0302e 	mov	r3, #46	; 0x2e
    54f4:	e20000ff 	and	r0, r0, #255	; 0xff
    54f8:	e58d1010 	str	r1, [sp, #16]
    54fc:	e58d200c 	str	r2, [sp, #12]
    5500:	e58d0014 	str	r0, [sp, #20]
    5504:	e205b0ff 	and	fp, r5, #255	; 0xff
    5508:	e5cc3034 	strb	r3, [ip, #52]
    550c:	e3a03010 	mov	r3, #16	; 0x10
    5510:	e5cc303f 	strb	r3, [ip, #63]
    5514:	e5ccb04a 	strb	fp, [ip, #74]
    5518:	e59d3000 	ldr	r3, [sp]
    551c:	e5cc304b 	strb	r3, [ip, #75]
    5520:	e59d2004 	ldr	r2, [sp, #4]
    5524:	e5cc204c 	strb	r2, [ip, #76]
    5528:	e59d3008 	ldr	r3, [sp, #8]
    552c:	e5cc304d 	strb	r3, [ip, #77]
    5530:	e59d200c 	ldr	r2, [sp, #12]
    5534:	e5cc204e 	strb	r2, [ip, #78]
    5538:	e59d3010 	ldr	r3, [sp, #16]
    553c:	e5cc304f 	strb	r3, [ip, #79]
    5540:	e59d2014 	ldr	r2, [sp, #20]
    5544:	e5cc2048 	strb	r2, [ip, #72]
    5548:	e59d3018 	ldr	r3, [sp, #24]
    554c:	e1a02007 	mov	r2, r7
    5550:	e5cc3049 	strb	r3, [ip, #73]
    5554:	e3a01020 	mov	r1, #32	; 0x20
    5558:	ea000001 	b	5564 <f_mkdir+0x1b0>
    555c:	e5523001 	ldrb	r3, [r2, #-1]
    5560:	e5c2301f 	strb	r3, [r2, #31]
    5564:	e2411001 	sub	r1, r1, #1	; 0x1
    5568:	e3710001 	cmn	r1, #1	; 0x1
    556c:	e2822001 	add	r2, r2, #1	; 0x1
    5570:	1afffff9 	bne	555c <f_mkdir+0x1a8>
    5574:	e3a0302e 	mov	r3, #46	; 0x2e
    5578:	e5cc3055 	strb	r3, [ip, #85]
    557c:	e59de124 	ldr	lr, [sp, #292]
    5580:	e5de3000 	ldrb	r3, [lr]
    5584:	e3530003 	cmp	r3, #3	; 0x3
    5588:	e59d012c 	ldr	r0, [sp, #300]
    558c:	1a000002 	bne	559c <f_mkdir+0x1e8>
    5590:	e59e3028 	ldr	r3, [lr, #40]
    5594:	e1500003 	cmp	r0, r3
    5598:	03a00000 	moveq	r0, #0	; 0x0
    559c:	e1a03820 	lsr	r3, r0, #16
    55a0:	e1a02423 	lsr	r2, r3, #8
    55a4:	e1a01420 	lsr	r1, r0, #8
    55a8:	e5cc2069 	strb	r2, [ip, #105]
    55ac:	e5cc106f 	strb	r1, [ip, #111]
    55b0:	e5cc006e 	strb	r0, [ip, #110]
    55b4:	e5cc3068 	strb	r3, [ip, #104]
    55b8:	e5de5002 	ldrb	r5, [lr, #2]
    55bc:	e3a09001 	mov	r9, #1	; 0x1
    55c0:	e3a0a000 	mov	sl, #0	; 0x0
    55c4:	ea00000e 	b	5604 <f_mkdir+0x250>
    55c8:	e59d0124 	ldr	r0, [sp, #292]
    55cc:	e3a01000 	mov	r1, #0	; 0x0
    55d0:	e5808030 	str	r8, [r0, #48]
    55d4:	e5c09004 	strb	r9, [r0, #4]
    55d8:	ebfff5af 	bl	2c9c <move_window>
    55dc:	e2504000 	subs	r4, r0, #0	; 0x0
    55e0:	1a00000a 	bne	5610 <f_mkdir+0x25c>
    55e4:	e1a00004 	mov	r0, r4
    55e8:	e7c7a000 	strb	sl, [r7, r0]
    55ec:	e2800001 	add	r0, r0, #1	; 0x1
    55f0:	e3500c02 	cmp	r0, #512	; 0x200
    55f4:	1afffffb 	bne	55e8 <f_mkdir+0x234>
    55f8:	e2453001 	sub	r3, r5, #1	; 0x1
    55fc:	e2888001 	add	r8, r8, #1	; 0x1
    5600:	e20350ff 	and	r5, r3, #255	; 0xff
    5604:	e3550000 	cmp	r5, #0	; 0x0
    5608:	1affffee 	bne	55c8 <f_mkdir+0x214>
    560c:	ea000020 	b	5694 <f_mkdir+0x2e0>
    5610:	e1a01006 	mov	r1, r6
    5614:	e59d0124 	ldr	r0, [sp, #292]
    5618:	ebfff711 	bl	3264 <remove_chain>
    561c:	ea000016 	b	567c <f_mkdir+0x2c8>
    5620:	e59d3138 	ldr	r3, [sp, #312]
    5624:	e59d2018 	ldr	r2, [sp, #24]
    5628:	e5c32015 	strb	r2, [r3, #21]
    562c:	e3a02010 	mov	r2, #16	; 0x10
    5630:	e5c3200b 	strb	r2, [r3, #11]
    5634:	e5c3b016 	strb	fp, [r3, #22]
    5638:	e59d2000 	ldr	r2, [sp]
    563c:	e5c32017 	strb	r2, [r3, #23]
    5640:	e59d2004 	ldr	r2, [sp, #4]
    5644:	e5c32018 	strb	r2, [r3, #24]
    5648:	e59d2008 	ldr	r2, [sp, #8]
    564c:	e5c32019 	strb	r2, [r3, #25]
    5650:	e59d200c 	ldr	r2, [sp, #12]
    5654:	e5c3201a 	strb	r2, [r3, #26]
    5658:	e59d2010 	ldr	r2, [sp, #16]
    565c:	e5c3201b 	strb	r2, [r3, #27]
    5660:	e59d2014 	ldr	r2, [sp, #20]
    5664:	e5c32014 	strb	r2, [r3, #20]
    5668:	e59d0124 	ldr	r0, [sp, #292]
    566c:	e3a03001 	mov	r3, #1	; 0x1
    5670:	e5c03004 	strb	r3, [r0, #4]
    5674:	ebfffa70 	bl	403c <sync>
    5678:	e1a04000 	mov	r4, r0
    567c:	e59d0124 	ldr	r0, [sp, #292]
    5680:	e1a01004 	mov	r1, r4
    5684:	ebfffab2 	bl	4154 <unlock_fs>
    5688:	e1a00004 	mov	r0, r4
    568c:	e28ddf55 	add	sp, sp, #340	; 0x154
    5690:	e8bd8ff0 	pop	{r4, r5, r6, r7, r8, r9, sl, fp, pc}
    5694:	e28d0f49 	add	r0, sp, #292	; 0x124
    5698:	ebfff902 	bl	3aa8 <dir_register>
    569c:	e2504000 	subs	r4, r0, #0	; 0x0
    56a0:	0affffde 	beq	5620 <f_mkdir+0x26c>
    56a4:	eaffffd9 	b	5610 <f_mkdir+0x25c>

000056a8 <f_sync>:
    56a8:	e92d4030 	push	{r4, r5, lr}
    56ac:	e1a05000 	mov	r5, r0
    56b0:	e1d510b4 	ldrh	r1, [r5, #4]
    56b4:	e5900000 	ldr	r0, [r0]
    56b8:	ebfff4f5 	bl	2a94 <validate>
    56bc:	e2504000 	subs	r4, r0, #0	; 0x0
    56c0:	1a00003f 	bne	57c4 <f_sync+0x11c>
    56c4:	e5d53006 	ldrb	r3, [r5, #6]
    56c8:	e3130020 	tst	r3, #32	; 0x20
    56cc:	0a00003c 	beq	57c4 <f_sync+0x11c>
    56d0:	e3130040 	tst	r3, #64	; 0x40
    56d4:	0a00000f 	beq	5718 <f_sync+0x70>
    56d8:	e1a01005 	mov	r1, r5
    56dc:	e4913024 	ldr	r3, [r1], #36
    56e0:	e5952018 	ldr	r2, [r5, #24]
    56e4:	e5d30001 	ldrb	r0, [r3, #1]
    56e8:	e3a03001 	mov	r3, #1	; 0x1
    56ec:	ebfff177 	bl	1cd0 <disk_write>
    56f0:	e3500000 	cmp	r0, #0	; 0x0
    56f4:	05d53006 	ldrbeq	r3, [r5, #6]
    56f8:	03c33040 	biceq	r3, r3, #64	; 0x40
    56fc:	05c53006 	strbeq	r3, [r5, #6]
    5700:	0a000004 	beq	5718 <f_sync+0x70>
    5704:	e5950000 	ldr	r0, [r5]
    5708:	e3a01001 	mov	r1, #1	; 0x1
    570c:	ebfffa90 	bl	4154 <unlock_fs>
    5710:	e3a04001 	mov	r4, #1	; 0x1
    5714:	ea00002d 	b	57d0 <f_sync+0x128>
    5718:	e5950000 	ldr	r0, [r5]
    571c:	e595101c 	ldr	r1, [r5, #28]
    5720:	ebfff55d 	bl	2c9c <move_window>
    5724:	e2504000 	subs	r4, r0, #0	; 0x0
    5728:	1a000025 	bne	57c4 <f_sync+0x11c>
    572c:	e5954020 	ldr	r4, [r5, #32]
    5730:	e5d4300b 	ldrb	r3, [r4, #11]
    5734:	e3833020 	orr	r3, r3, #32	; 0x20
    5738:	e5c4300b 	strb	r3, [r4, #11]
    573c:	e595300c 	ldr	r3, [r5, #12]
    5740:	e5c4301c 	strb	r3, [r4, #28]
    5744:	e5d5300d 	ldrb	r3, [r5, #13]
    5748:	e5c4301d 	strb	r3, [r4, #29]
    574c:	e1d530be 	ldrh	r3, [r5, #14]
    5750:	e5c4301e 	strb	r3, [r4, #30]
    5754:	e5d5300f 	ldrb	r3, [r5, #15]
    5758:	e5c4301f 	strb	r3, [r4, #31]
    575c:	e5953010 	ldr	r3, [r5, #16]
    5760:	e5c4301a 	strb	r3, [r4, #26]
    5764:	e5d53011 	ldrb	r3, [r5, #17]
    5768:	e5c4301b 	strb	r3, [r4, #27]
    576c:	e1d531b2 	ldrh	r3, [r5, #18]
    5770:	e5c43014 	strb	r3, [r4, #20]
    5774:	e1d531b2 	ldrh	r3, [r5, #18]
    5778:	e1a03423 	lsr	r3, r3, #8
    577c:	e5c43015 	strb	r3, [r4, #21]
    5780:	eb00010b 	bl	5bb4 <get_fattime>
    5784:	e1a03c20 	lsr	r3, r0, #24
    5788:	e1a02420 	lsr	r2, r0, #8
    578c:	e1a01820 	lsr	r1, r0, #16
    5790:	e5c43019 	strb	r3, [r4, #25]
    5794:	e5c42017 	strb	r2, [r4, #23]
    5798:	e5c41018 	strb	r1, [r4, #24]
    579c:	e5c40016 	strb	r0, [r4, #22]
    57a0:	e5d53006 	ldrb	r3, [r5, #6]
    57a4:	e5952000 	ldr	r2, [r5]
    57a8:	e3c33020 	bic	r3, r3, #32	; 0x20
    57ac:	e5c53006 	strb	r3, [r5, #6]
    57b0:	e3a03001 	mov	r3, #1	; 0x1
    57b4:	e5c23004 	strb	r3, [r2, #4]
    57b8:	e5950000 	ldr	r0, [r5]
    57bc:	ebfffa1e 	bl	403c <sync>
    57c0:	e1a04000 	mov	r4, r0
    57c4:	e5950000 	ldr	r0, [r5]
    57c8:	e1a01004 	mov	r1, r4
    57cc:	ebfffa60 	bl	4154 <unlock_fs>
    57d0:	e1a00004 	mov	r0, r4
    57d4:	e8bd8030 	pop	{r4, r5, pc}

000057d8 <f_close>:
    57d8:	e92d4010 	push	{r4, lr}
    57dc:	e1a04000 	mov	r4, r0
    57e0:	ebffffb0 	bl	56a8 <f_sync>
    57e4:	e3500000 	cmp	r0, #0	; 0x0
    57e8:	05840000 	streq	r0, [r4]
    57ec:	e8bd8010 	pop	{r4, pc}

000057f0 <f_open>:
    57f0:	e92d47f0 	push	{r4, r5, r6, r7, r8, r9, sl, lr}
    57f4:	e24ddf4e 	sub	sp, sp, #312	; 0x138
    57f8:	e3a03000 	mov	r3, #0	; 0x0
    57fc:	e28dcf4e 	add	ip, sp, #312	; 0x138
    5800:	e28d5f42 	add	r5, sp, #264	; 0x108
    5804:	e1a0e002 	mov	lr, r2
    5808:	e5803000 	str	r3, [r0]
    580c:	e52c1138 	str	r1, [ip, #-312]!
    5810:	e202201e 	and	r2, r2, #30	; 0x1e
    5814:	e1a09000 	mov	r9, r0
    5818:	e1a01005 	mov	r1, r5
    581c:	e1a0000d 	mov	r0, sp
    5820:	e20ea01f 	and	sl, lr, #31	; 0x1f
    5824:	ebfff389 	bl	2650 <chk_mounted>
    5828:	e28d2008 	add	r2, sp, #8	; 0x8
    582c:	e2422002 	sub	r2, r2, #2	; 0x2
    5830:	e28d3f4b 	add	r3, sp, #300	; 0x12c
    5834:	e2504000 	subs	r4, r0, #0	; 0x0
    5838:	e58d3120 	str	r3, [sp, #288]
    583c:	e58d2124 	str	r2, [sp, #292]
    5840:	1a000003 	bne	5854 <f_open+0x64>
    5844:	e1a00005 	mov	r0, r5
    5848:	e59d1000 	ldr	r1, [sp]
    584c:	ebfff7a3 	bl	36e0 <follow_path>
    5850:	e1a04000 	mov	r4, r0
    5854:	e3540000 	cmp	r4, #0	; 0x0
    5858:	e59d811c 	ldr	r8, [sp, #284]
    585c:	1a000002 	bne	586c <f_open+0x7c>
    5860:	e3580000 	cmp	r8, #0	; 0x0
    5864:	03a04006 	moveq	r4, #6	; 0x6
    5868:	13a04000 	movne	r4, #0	; 0x0
    586c:	e31a001c 	tst	sl, #28	; 0x1c
    5870:	0a00003e 	beq	5970 <f_open+0x180>
    5874:	e3540000 	cmp	r4, #0	; 0x0
    5878:	0a000009 	beq	58a4 <f_open+0xb4>
    587c:	e3540004 	cmp	r4, #4	; 0x4
    5880:	1a000002 	bne	5890 <f_open+0xa0>
    5884:	e28d0f42 	add	r0, sp, #264	; 0x108
    5888:	ebfff886 	bl	3aa8 <dir_register>
    588c:	e1a04000 	mov	r4, r0
    5890:	e3540000 	cmp	r4, #0	; 0x0
    5894:	e59d811c 	ldr	r8, [sp, #284]
    5898:	038aa008 	orreq	sl, sl, #8	; 0x8
    589c:	0a000006 	beq	58bc <f_open+0xcc>
    58a0:	ea00005b 	b	5a14 <f_open+0x224>
    58a4:	e31a0004 	tst	sl, #4	; 0x4
    58a8:	13a04008 	movne	r4, #8	; 0x8
    58ac:	1a000058 	bne	5a14 <f_open+0x224>
    58b0:	e5d8300b 	ldrb	r3, [r8, #11]
    58b4:	e3130011 	tst	r3, #17	; 0x11
    58b8:	1a00005b 	bne	5a2c <f_open+0x23c>
    58bc:	e31a0008 	tst	sl, #8	; 0x8
    58c0:	0a000034 	beq	5998 <f_open+0x1a8>
    58c4:	eb0000ba 	bl	5bb4 <get_fattime>
    58c8:	e3a03000 	mov	r3, #0	; 0x0
    58cc:	e5d87015 	ldrb	r7, [r8, #21]
    58d0:	e5d84014 	ldrb	r4, [r8, #20]
    58d4:	e5d8601b 	ldrb	r6, [r8, #27]
    58d8:	e5d8c01a 	ldrb	ip, [r8, #26]
    58dc:	e1a05c20 	lsr	r5, r0, #24
    58e0:	e1a02420 	lsr	r2, r0, #8
    58e4:	e1a01820 	lsr	r1, r0, #16
    58e8:	e5c85011 	strb	r5, [r8, #17]
    58ec:	e5c83015 	strb	r3, [r8, #21]
    58f0:	e5c8300b 	strb	r3, [r8, #11]
    58f4:	e5c8301c 	strb	r3, [r8, #28]
    58f8:	e5c8301d 	strb	r3, [r8, #29]
    58fc:	e5c8301e 	strb	r3, [r8, #30]
    5900:	e5c8301f 	strb	r3, [r8, #31]
    5904:	e5c8301a 	strb	r3, [r8, #26]
    5908:	e5c8301b 	strb	r3, [r8, #27]
    590c:	e5c83014 	strb	r3, [r8, #20]
    5910:	e5c8200f 	strb	r2, [r8, #15]
    5914:	e5c81010 	strb	r1, [r8, #16]
    5918:	e5c8000e 	strb	r0, [r8, #14]
    591c:	e1844407 	orr	r4, r4, r7, lsl #8
    5920:	e18cc406 	orr	ip, ip, r6, lsl #8
    5924:	e59d2108 	ldr	r2, [sp, #264]
    5928:	e2833001 	add	r3, r3, #1	; 0x1
    592c:	e19c5804 	orrs	r5, ip, r4, lsl #16
    5930:	e5c23004 	strb	r3, [r2, #4]
    5934:	0a000017 	beq	5998 <f_open+0x1a8>
    5938:	e1a00002 	mov	r0, r2
    593c:	e1a01005 	mov	r1, r5
    5940:	e5926030 	ldr	r6, [r2, #48]
    5944:	ebfff646 	bl	3264 <remove_chain>
    5948:	e2504000 	subs	r4, r0, #0	; 0x0
    594c:	1a000030 	bne	5a14 <f_open+0x224>
    5950:	e59d0108 	ldr	r0, [sp, #264]
    5954:	e2453001 	sub	r3, r5, #1	; 0x1
    5958:	e5803010 	str	r3, [r0, #16]
    595c:	e1a01006 	mov	r1, r6
    5960:	ebfff4cd 	bl	2c9c <move_window>
    5964:	e2504000 	subs	r4, r0, #0	; 0x0
    5968:	0a00000a 	beq	5998 <f_open+0x1a8>
    596c:	ea000028 	b	5a14 <f_open+0x224>
    5970:	e3540000 	cmp	r4, #0	; 0x0
    5974:	1a000026 	bne	5a14 <f_open+0x224>
    5978:	e5d8300b 	ldrb	r3, [r8, #11]
    597c:	e3130010 	tst	r3, #16	; 0x10
    5980:	12844004 	addne	r4, r4, #4	; 0x4
    5984:	1a000022 	bne	5a14 <f_open+0x224>
    5988:	e31a0002 	tst	sl, #2	; 0x2
    598c:	0a000001 	beq	5998 <f_open+0x1a8>
    5990:	e3130001 	tst	r3, #1	; 0x1
    5994:	1a000024 	bne	5a2c <f_open+0x23c>
    5998:	e59dc108 	ldr	ip, [sp, #264]
    599c:	e31a0008 	tst	sl, #8	; 0x8
    59a0:	e59c3030 	ldr	r3, [ip, #48]
    59a4:	138aa020 	orrne	sl, sl, #32	; 0x20
    59a8:	e5c9a006 	strb	sl, [r9, #6]
    59ac:	e589301c 	str	r3, [r9, #28]
    59b0:	e5898020 	str	r8, [r9, #32]
    59b4:	e5d8101b 	ldrb	r1, [r8, #27]
    59b8:	e5d80015 	ldrb	r0, [r8, #21]
    59bc:	e5d82014 	ldrb	r2, [r8, #20]
    59c0:	e5d8301a 	ldrb	r3, [r8, #26]
    59c4:	e1822400 	orr	r2, r2, r0, lsl #8
    59c8:	e1833401 	orr	r3, r3, r1, lsl #8
    59cc:	e1833802 	orr	r3, r3, r2, lsl #16
    59d0:	e5893010 	str	r3, [r9, #16]
    59d4:	e5d8301e 	ldrb	r3, [r8, #30]
    59d8:	e5d8201f 	ldrb	r2, [r8, #31]
    59dc:	e5d8101c 	ldrb	r1, [r8, #28]
    59e0:	e1a03803 	lsl	r3, r3, #16
    59e4:	e1833c02 	orr	r3, r3, r2, lsl #24
    59e8:	e5d8201d 	ldrb	r2, [r8, #29]
    59ec:	e1833001 	orr	r3, r3, r1
    59f0:	e589c000 	str	ip, [r9]
    59f4:	e1dcc0b6 	ldrh	ip, [ip, #6]
    59f8:	e1833402 	orr	r3, r3, r2, lsl #8
    59fc:	e3a02000 	mov	r2, #0	; 0x0
    5a00:	e589300c 	str	r3, [r9, #12]
    5a04:	e5892008 	str	r2, [r9, #8]
    5a08:	e5892018 	str	r2, [r9, #24]
    5a0c:	e1c9c0b4 	strh	ip, [r9, #4]
    5a10:	e1a04002 	mov	r4, r2
    5a14:	e59d0108 	ldr	r0, [sp, #264]
    5a18:	e1a01004 	mov	r1, r4
    5a1c:	ebfff9cc 	bl	4154 <unlock_fs>
    5a20:	e1a00004 	mov	r0, r4
    5a24:	e28ddf4e 	add	sp, sp, #312	; 0x138
    5a28:	e8bd87f0 	pop	{r4, r5, r6, r7, r8, r9, sl, pc}
    5a2c:	e3a04007 	mov	r4, #7	; 0x7
    5a30:	eafffff7 	b	5a14 <f_open+0x224>

00005a34 <f_mount>:
    5a34:	e92d4070 	push	{r4, r5, r6, lr}
    5a38:	e21060ff 	ands	r6, r0, #255	; 0xff
    5a3c:	e1a05001 	mov	r5, r1
    5a40:	13a0000b 	movne	r0, #11	; 0xb
    5a44:	18bd8070 	popne	{r4, r5, r6, pc}
    5a48:	e59f3054 	ldr	r3, [pc, #84]	; 5aa4 <f_mount+0x70>
    5a4c:	e5934000 	ldr	r4, [r3]
    5a50:	e3540000 	cmp	r4, #0	; 0x0
    5a54:	0a000004 	beq	5a6c <f_mount+0x38>
    5a58:	e594000c 	ldr	r0, [r4, #12]
    5a5c:	eb000095 	bl	5cb8 <ff_del_syncobj>
    5a60:	e3500000 	cmp	r0, #0	; 0x0
    5a64:	0a00000c 	beq	5a9c <f_mount+0x68>
    5a68:	e5c46000 	strb	r6, [r4]
    5a6c:	e3550000 	cmp	r5, #0	; 0x0
    5a70:	0a000005 	beq	5a8c <f_mount+0x58>
    5a74:	e3a00000 	mov	r0, #0	; 0x0
    5a78:	e1a01005 	mov	r1, r5
    5a7c:	e4c1000c 	strb	r0, [r1], #12
    5a80:	eb00009c 	bl	5cf8 <ff_cre_syncobj>
    5a84:	e3500000 	cmp	r0, #0	; 0x0
    5a88:	0a000003 	beq	5a9c <f_mount+0x68>
    5a8c:	e59f3010 	ldr	r3, [pc, #16]	; 5aa4 <f_mount+0x70>
    5a90:	e3a00000 	mov	r0, #0	; 0x0
    5a94:	e5835000 	str	r5, [r3]
    5a98:	e8bd8070 	pop	{r4, r5, r6, pc}
    5a9c:	e3a00002 	mov	r0, #2	; 0x2
    5aa0:	e8bd8070 	pop	{r4, r5, r6, pc}
    5aa4:	40000920 	.word	0x40000920

00005aa8 <initialize_RTC>:
    5aa8:	e59f3018 	ldr	r3, [pc, #24]	; 5ac8 <initialize_RTC+0x20>
    5aac:	e3a02011 	mov	r2, #17	; 0x11
    5ab0:	e5832008 	str	r2, [r3, #8]
    5ab4:	e59f2010 	ldr	r2, [pc, #16]	; 5acc <initialize_RTC+0x24>
    5ab8:	e59230c4 	ldr	r3, [r2, #196]
    5abc:	e3c33c02 	bic	r3, r3, #512	; 0x200
    5ac0:	e58230c4 	str	r3, [r2, #196]
    5ac4:	e12fff1e 	bx	lr
    5ac8:	e0024000 	.word	0xe0024000
    5acc:	e01fc000 	.word	0xe01fc000

00005ad0 <rtc_gettime>:
    5ad0:	e59f2074 	ldr	r2, [pc, #116]	; 5b4c <rtc_gettime+0x7c>
    5ad4:	e92d4070 	push	{r4, r5, r6, lr}
    5ad8:	e1a06000 	mov	r6, r0
    5adc:	e5920014 	ldr	r0, [r2, #20]
    5ae0:	e5925018 	ldr	r5, [r2, #24]
    5ae4:	e5923014 	ldr	r3, [r2, #20]
    5ae8:	e1500003 	cmp	r0, r3
    5aec:	1afffffa 	bne	5adc <rtc_gettime+0xc>
    5af0:	e5923018 	ldr	r3, [r2, #24]
    5af4:	e1550003 	cmp	r5, r3
    5af8:	1afffff7 	bne	5adc <rtc_gettime+0xc>
    5afc:	e1a04c20 	lsr	r4, r0, #24
    5b00:	e1a03825 	lsr	r3, r5, #16
    5b04:	e1a02420 	lsr	r2, r0, #8
    5b08:	e1a01820 	lsr	r1, r0, #16
    5b0c:	e1a0c425 	lsr	ip, r5, #8
    5b10:	e202203f 	and	r2, r2, #63	; 0x3f
    5b14:	e201101f 	and	r1, r1, #31	; 0x1f
    5b18:	e2044007 	and	r4, r4, #7	; 0x7
    5b1c:	e20cc00f 	and	ip, ip, #15	; 0xf
    5b20:	e3c33a0f 	bic	r3, r3, #61440	; 0xf000
    5b24:	e200003f 	and	r0, r0, #63	; 0x3f
    5b28:	e205501f 	and	r5, r5, #31	; 0x1f
    5b2c:	e1c630b0 	strh	r3, [r6]
    5b30:	e5c60007 	strb	r0, [r6, #7]
    5b34:	e5c62006 	strb	r2, [r6, #6]
    5b38:	e5c61005 	strb	r1, [r6, #5]
    5b3c:	e5c64004 	strb	r4, [r6, #4]
    5b40:	e5c65003 	strb	r5, [r6, #3]
    5b44:	e5c6c002 	strb	ip, [r6, #2]
    5b48:	e8bd8070 	pop	{r4, r5, r6, pc}
    5b4c:	e0024000 	.word	0xe0024000

00005b50 <rtc_settime>:
    5b50:	e59f2058 	ldr	r2, [pc, #88]	; 5bb0 <rtc_settime+0x60>
    5b54:	e3a03012 	mov	r3, #18	; 0x12
    5b58:	e5823008 	str	r3, [r2, #8]
    5b5c:	e5d03007 	ldrb	r3, [r0, #7]
    5b60:	e5823020 	str	r3, [r2, #32]
    5b64:	e5d03006 	ldrb	r3, [r0, #6]
    5b68:	e5823024 	str	r3, [r2, #36]
    5b6c:	e5d03005 	ldrb	r3, [r0, #5]
    5b70:	e5823028 	str	r3, [r2, #40]
    5b74:	e5d03004 	ldrb	r3, [r0, #4]
    5b78:	e5823030 	str	r3, [r2, #48]
    5b7c:	e5d03003 	ldrb	r3, [r0, #3]
    5b80:	e582302c 	str	r3, [r2, #44]
    5b84:	e5d03002 	ldrb	r3, [r0, #2]
    5b88:	e1d010b0 	ldrh	r1, [r0]
    5b8c:	e5823038 	str	r3, [r2, #56]
    5b90:	e3a03011 	mov	r3, #17	; 0x11
    5b94:	e582103c 	str	r1, [r2, #60]
    5b98:	e5823008 	str	r3, [r2, #8]
    5b9c:	e2822976 	add	r2, r2, #1933312	; 0x1d8000
    5ba0:	e59230c4 	ldr	r3, [r2, #196]
    5ba4:	e3c33c02 	bic	r3, r3, #512	; 0x200
    5ba8:	e58230c4 	str	r3, [r2, #196]
    5bac:	e12fff1e 	bx	lr
    5bb0:	e0024000 	.word	0xe0024000

00005bb4 <get_fattime>:
    5bb4:	e52de004 	push	{lr}		; (str lr, [sp, #-4]!)
    5bb8:	e24dd008 	sub	sp, sp, #8	; 0x8
    5bbc:	e1a0000d 	mov	r0, sp
    5bc0:	ebffffc2 	bl	5ad0 <rtc_gettime>
    5bc4:	e5dd0002 	ldrb	r0, [sp, #2]
    5bc8:	e5dd3003 	ldrb	r3, [sp, #3]
    5bcc:	e5dd2005 	ldrb	r2, [sp, #5]
    5bd0:	e1a00a80 	lsl	r0, r0, #21
    5bd4:	e1800803 	orr	r0, r0, r3, lsl #16
    5bd8:	e5dd1006 	ldrb	r1, [sp, #6]
    5bdc:	e1dd30b0 	ldrh	r3, [sp]
    5be0:	e1800582 	orr	r0, r0, r2, lsl #11
    5be4:	e5dd2007 	ldrb	r2, [sp, #7]
    5be8:	e1800281 	orr	r0, r0, r1, lsl #5
    5bec:	e2433e7b 	sub	r3, r3, #1968	; 0x7b0
    5bf0:	e18000a2 	orr	r0, r0, r2, lsr #1
    5bf4:	e243300c 	sub	r3, r3, #12	; 0xc
    5bf8:	e1800c83 	orr	r0, r0, r3, lsl #25
    5bfc:	e28dd008 	add	sp, sp, #8	; 0x8
    5c00:	e8bd8000 	pop	{pc}

00005c04 <ff_convert>:
    5c04:	e1a00800 	lsl	r0, r0, #16
    5c08:	e1a00820 	lsr	r0, r0, #16
    5c0c:	e350007f 	cmp	r0, #127	; 0x7f
    5c10:	e92d4010 	push	{r4, lr}
    5c14:	98bd8010 	popls	{r4, pc}
    5c18:	e3510000 	cmp	r1, #0	; 0x0
    5c1c:	059f4050 	ldreq	r4, [pc, #80]	; 5c74 <ff_convert+0x70>
    5c20:	01a02001 	moveq	r2, r1
    5c24:	0a000006 	beq	5c44 <ff_convert+0x40>
    5c28:	e35000ff 	cmp	r0, #255	; 0xff
    5c2c:	92403080 	subls	r3, r0, #128	; 0x80
    5c30:	959f203c 	ldrls	r2, [pc, #60]	; 5c74 <ff_convert+0x70>
    5c34:	91a03083 	lslls	r3, r3, #1
    5c38:	83a00000 	movhi	r0, #0	; 0x0
    5c3c:	919200b3 	ldrhls	r0, [r2, r3]
    5c40:	e8bd8010 	pop	{r4, pc}
    5c44:	e2813001 	add	r3, r1, #1	; 0x1
    5c48:	e1a0c803 	lsl	ip, r3, #16
    5c4c:	e19430b2 	ldrh	r3, [r4, r2]
    5c50:	e1530000 	cmp	r3, r0
    5c54:	e2822002 	add	r2, r2, #2	; 0x2
    5c58:	0a000002 	beq	5c68 <ff_convert+0x64>
    5c5c:	e1a0182c 	lsr	r1, ip, #16
    5c60:	e3510080 	cmp	r1, #128	; 0x80
    5c64:	1afffff6 	bne	5c44 <ff_convert+0x40>
    5c68:	e2813080 	add	r3, r1, #128	; 0x80
    5c6c:	e20300ff 	and	r0, r3, #255	; 0xff
    5c70:	e8bd8010 	pop	{r4, pc}
    5c74:	0000ed42 	.word	0x0000ed42

00005c78 <ff_wtoupper>:
    5c78:	e1a00800 	lsl	r0, r0, #16
    5c7c:	e59fc02c 	ldr	ip, [pc, #44]	; 5cb0 <ff_wtoupper+0x38>
    5c80:	e1a00820 	lsr	r0, r0, #16
    5c84:	e3a03000 	mov	r3, #0	; 0x0
    5c88:	e1a01083 	lsl	r1, r3, #1
    5c8c:	e19c20b1 	ldrh	r2, [ip, r1]
    5c90:	e3520000 	cmp	r2, #0	; 0x0
    5c94:	e2833001 	add	r3, r3, #1	; 0x1
    5c98:	012fff1e 	bxeq	lr
    5c9c:	e1500002 	cmp	r0, r2
    5ca0:	1afffff8 	bne	5c88 <ff_wtoupper+0x10>
    5ca4:	e59f3008 	ldr	r3, [pc, #8]	; 5cb4 <ff_wtoupper+0x3c>
    5ca8:	e19300b1 	ldrh	r0, [r3, r1]
    5cac:	e12fff1e 	bx	lr
    5cb0:	0000eb62 	.word	0x0000eb62
    5cb4:	0000e982 	.word	0x0000e982

00005cb8 <ff_del_syncobj>:
    5cb8:	e3a00001 	mov	r0, #1	; 0x1
    5cbc:	e12fff1e 	bx	lr

00005cc0 <ff_rel_grant>:
    5cc0:	e3a01000 	mov	r1, #0	; 0x0
    5cc4:	e1a02001 	mov	r2, r1
    5cc8:	e1a03001 	mov	r3, r1
    5ccc:	ea000b48 	b	89f4 <xQueueGenericSend>

00005cd0 <ff_req_grant>:
    5cd0:	e3a01000 	mov	r1, #0	; 0x0
    5cd4:	e52de004 	push	{lr}		; (str lr, [sp, #-4]!)
    5cd8:	e59f2014 	ldr	r2, [pc, #20]	; 5cf4 <ff_req_grant+0x24>
    5cdc:	e1a03001 	mov	r3, r1
    5ce0:	eb000a87 	bl	8704 <xQueueGenericReceive>
    5ce4:	e3500001 	cmp	r0, #1	; 0x1
    5ce8:	13a00000 	movne	r0, #0	; 0x0
    5cec:	03a00001 	moveq	r0, #1	; 0x1
    5cf0:	e49df004 	pop	{pc}		; (ldr pc, [sp], #4)
    5cf4:	00000bb8 	.word	0x00000bb8

00005cf8 <ff_cre_syncobj>:
    5cf8:	e92d4010 	push	{r4, lr}
    5cfc:	e1a04001 	mov	r4, r1
    5d00:	eb000b8d 	bl	8b3c <xQueueCreateMutex>
    5d04:	e5840000 	str	r0, [r4]
    5d08:	e2500000 	subs	r0, r0, #0	; 0x0
    5d0c:	13a00001 	movne	r0, #1	; 0x1
    5d10:	e8bd8010 	pop	{r4, pc}

00005d14 <uart0Deinit>:
    5d14:	e3a02040 	mov	r2, #64	; 0x40
    5d18:	e3e03000 	mvn	r3, #0	; 0x0
    5d1c:	e5032feb 	str	r2, [r3, #-4075]
    5d20:	e59f201c 	ldr	r2, [pc, #28]	; 5d44 <uart0Deinit+0x30>
    5d24:	e59230c4 	ldr	r3, [r2, #196]
    5d28:	e3c33008 	bic	r3, r3, #8	; 0x8
    5d2c:	e58230c4 	str	r3, [r2, #196]
    5d30:	e242281d 	sub	r2, r2, #1900544	; 0x1d0000
    5d34:	e5923000 	ldr	r3, [r2]
    5d38:	e3c3300f 	bic	r3, r3, #15	; 0xf
    5d3c:	e5823000 	str	r3, [r2]
    5d40:	e12fff1e 	bx	lr
    5d44:	e01fc000 	.word	0xe01fc000

00005d48 <uart0PutCharPolling>:
    5d48:	e59f201c 	ldr	r2, [pc, #28]	; 5d6c <uart0PutCharPolling+0x24>
    5d4c:	e20000ff 	and	r0, r0, #255	; 0xff
    5d50:	e5923014 	ldr	r3, [r2, #20]
    5d54:	e3130020 	tst	r3, #32	; 0x20
    5d58:	0afffffc 	beq	5d50 <uart0PutCharPolling+0x8>
    5d5c:	e59f3008 	ldr	r3, [pc, #8]	; 5d6c <uart0PutCharPolling+0x24>
    5d60:	e5830000 	str	r0, [r3]
    5d64:	e3a00001 	mov	r0, #1	; 0x1
    5d68:	e12fff1e 	bx	lr
    5d6c:	e000c000 	.word	0xe000c000

00005d70 <uart0GetChar>:
    5d70:	e1a02001 	mov	r2, r1
    5d74:	e59f1020 	ldr	r1, [pc, #32]	; 5d9c <uart0GetChar+0x2c>
    5d78:	e1a03000 	mov	r3, r0
    5d7c:	e52de004 	push	{lr}		; (str lr, [sp, #-4]!)
    5d80:	e5910000 	ldr	r0, [r1]
    5d84:	e1a01003 	mov	r1, r3
    5d88:	e3a03000 	mov	r3, #0	; 0x0
    5d8c:	eb000a5c 	bl	8704 <xQueueGenericReceive>
    5d90:	e2500000 	subs	r0, r0, #0	; 0x0
    5d94:	13a00001 	movne	r0, #1	; 0x1
    5d98:	e49df004 	pop	{pc}		; (ldr pc, [sp], #4)
    5d9c:	40000928 	.word	0x40000928

00005da0 <uart0PutChar>:
    5da0:	e92d41f0 	push	{r4, r5, r6, r7, r8, lr}
    5da4:	e59f609c 	ldr	r6, [pc, #156]	; 5e48 <uart0PutChar+0xa8>
    5da8:	e24dd004 	sub	sp, sp, #4	; 0x4
    5dac:	e5cd0000 	strb	r0, [sp]
    5db0:	e1a05001 	mov	r5, r1
    5db4:	eb0009c7 	bl	84d8 <vPortEnterCritical>
    5db8:	e5964000 	ldr	r4, [r6]
    5dbc:	e3540000 	cmp	r4, #0	; 0x0
    5dc0:	0a000006 	beq	5de0 <uart0PutChar+0x40>
    5dc4:	e3a02000 	mov	r2, #0	; 0x0
    5dc8:	e5862000 	str	r2, [r6]
    5dcc:	e5dd3000 	ldrb	r3, [sp]
    5dd0:	e59f2074 	ldr	r2, [pc, #116]	; 5e4c <uart0PutChar+0xac>
    5dd4:	e3a05001 	mov	r5, #1	; 0x1
    5dd8:	e5823000 	str	r3, [r2]
    5ddc:	ea000015 	b	5e38 <uart0PutChar+0x98>
    5de0:	e59f7068 	ldr	r7, [pc, #104]	; 5e50 <uart0PutChar+0xb0>
    5de4:	e1a02005 	mov	r2, r5
    5de8:	e1a03004 	mov	r3, r4
    5dec:	e5970000 	ldr	r0, [r7]
    5df0:	e1a0100d 	mov	r1, sp
    5df4:	eb000afe 	bl	89f4 <xQueueGenericSend>
    5df8:	e5963000 	ldr	r3, [r6]
    5dfc:	e3530000 	cmp	r3, #0	; 0x0
    5e00:	e1a0800d 	mov	r8, sp
    5e04:	e1a05000 	mov	r5, r0
    5e08:	0a00000a 	beq	5e38 <uart0PutChar+0x98>
    5e0c:	e3500001 	cmp	r0, #1	; 0x1
    5e10:	1a000008 	bne	5e38 <uart0PutChar+0x98>
    5e14:	e1a02004 	mov	r2, r4
    5e18:	e1a03004 	mov	r3, r4
    5e1c:	e5970000 	ldr	r0, [r7]
    5e20:	e1a0100d 	mov	r1, sp
    5e24:	eb000a36 	bl	8704 <xQueueGenericReceive>
    5e28:	e5dd2000 	ldrb	r2, [sp]
    5e2c:	e59f3018 	ldr	r3, [pc, #24]	; 5e4c <uart0PutChar+0xac>
    5e30:	e5864000 	str	r4, [r6]
    5e34:	e5832000 	str	r2, [r3]
    5e38:	eb0009b1 	bl	8504 <vPortExitCritical>
    5e3c:	e1a00005 	mov	r0, r5
    5e40:	e28dd004 	add	sp, sp, #4	; 0x4
    5e44:	e8bd81f0 	pop	{r4, r5, r6, r7, r8, pc}
    5e48:	40000930 	.word	0x40000930
    5e4c:	e000c000 	.word	0xe000c000
    5e50:	4000092c 	.word	0x4000092c

00005e54 <uart0Init>:
    5e54:	e3510000 	cmp	r1, #0	; 0x0
    5e58:	e92d4070 	push	{r4, r5, r6, lr}
    5e5c:	11a05001 	movne	r5, r1
    5e60:	03a05040 	moveq	r5, #64	; 0x40
    5e64:	e3500000 	cmp	r0, #0	; 0x0
    5e68:	11a06000 	movne	r6, r0
    5e6c:	e3a01001 	mov	r1, #1	; 0x1
    5e70:	e1a00005 	mov	r0, r5
    5e74:	03a06c96 	moveq	r6, #38400	; 0x9600
    5e78:	eb000b4b 	bl	8bac <xQueueCreate>
    5e7c:	e59f40f4 	ldr	r4, [pc, #244]	; 5f78 <uart0Init+0x124>
    5e80:	e3a01001 	mov	r1, #1	; 0x1
    5e84:	e5840000 	str	r0, [r4]
    5e88:	e2850001 	add	r0, r5, #1	; 0x1
    5e8c:	eb000b46 	bl	8bac <xQueueCreate>
    5e90:	e5943000 	ldr	r3, [r4]
    5e94:	e3530000 	cmp	r3, #0	; 0x0
    5e98:	e59f30dc 	ldr	r3, [pc, #220]	; 5f7c <uart0Init+0x128>
    5e9c:	e5830000 	str	r0, [r3]
    5ea0:	e59f30d8 	ldr	r3, [pc, #216]	; 5f80 <uart0Init+0x12c>
    5ea4:	e3a04001 	mov	r4, #1	; 0x1
    5ea8:	e5834000 	str	r4, [r3]
    5eac:	0a00002f 	beq	5f70 <uart0Init+0x11c>
    5eb0:	e3500000 	cmp	r0, #0	; 0x0
    5eb4:	0a00002d 	beq	5f70 <uart0Init+0x11c>
    5eb8:	eb000986 	bl	84d8 <vPortEnterCritical>
    5ebc:	e59f20c0 	ldr	r2, [pc, #192]	; 5f84 <uart0Init+0x130>
    5ec0:	e5923000 	ldr	r3, [r2]
    5ec4:	e3c3300f 	bic	r3, r3, #15	; 0xf
    5ec8:	e3833005 	orr	r3, r3, #5	; 0x5
    5ecc:	e5823000 	str	r3, [r2]
    5ed0:	e282281d 	add	r2, r2, #1900544	; 0x1d0000
    5ed4:	e59230c4 	ldr	r3, [r2, #196]
    5ed8:	e3833008 	orr	r3, r3, #8	; 0x8
    5edc:	e58230c4 	str	r3, [r2, #196]
    5ee0:	e1a01206 	lsl	r1, r6, #4
    5ee4:	e59f009c 	ldr	r0, [pc, #156]	; 5f88 <uart0Init+0x134>
    5ee8:	eb001048 	bl	a010 <__aeabi_uidiv>
    5eec:	e59f1098 	ldr	r1, [pc, #152]	; 5f8c <uart0Init+0x138>
    5ef0:	e591300c 	ldr	r3, [r1, #12]
    5ef4:	e1a02420 	lsr	r2, r0, #8
    5ef8:	e3833080 	orr	r3, r3, #128	; 0x80
    5efc:	e581300c 	str	r3, [r1, #12]
    5f00:	e20000ff 	and	r0, r0, #255	; 0xff
    5f04:	e20220ff 	and	r2, r2, #255	; 0xff
    5f08:	e3a03007 	mov	r3, #7	; 0x7
    5f0c:	e5810000 	str	r0, [r1]
    5f10:	e5812004 	str	r2, [r1, #4]
    5f14:	e5813008 	str	r3, [r1, #8]
    5f18:	e5913008 	ldr	r3, [r1, #8]
    5f1c:	e3833040 	orr	r3, r3, #64	; 0x40
    5f20:	e5813008 	str	r3, [r1, #8]
    5f24:	e3a03003 	mov	r3, #3	; 0x3
    5f28:	e581300c 	str	r3, [r1, #12]
    5f2c:	e3e02000 	mvn	r2, #0	; 0x0
    5f30:	e5123ff3 	ldr	r3, [r2, #-4083]
    5f34:	e3c33040 	bic	r3, r3, #64	; 0x40
    5f38:	e5023ff3 	str	r3, [r2, #-4083]
    5f3c:	e59f304c 	ldr	r3, [pc, #76]	; 5f90 <uart0Init+0x13c>
    5f40:	e5023ef7 	str	r3, [r2, #-3831]
    5f44:	e3a03026 	mov	r3, #38	; 0x26
    5f48:	e5023df7 	str	r3, [r2, #-3575]
    5f4c:	e5123fef 	ldr	r3, [r2, #-4079]
    5f50:	e3833040 	orr	r3, r3, #64	; 0x40
    5f54:	e5023fef 	str	r3, [r2, #-4079]
    5f58:	e5913004 	ldr	r3, [r1, #4]
    5f5c:	e3833003 	orr	r3, r3, #3	; 0x3
    5f60:	e5813004 	str	r3, [r1, #4]
    5f64:	eb000966 	bl	8504 <vPortExitCritical>
    5f68:	e1a00004 	mov	r0, r4
    5f6c:	e8bd8070 	pop	{r4, r5, r6, pc}
    5f70:	e3a00000 	mov	r0, #0	; 0x0
    5f74:	e8bd8070 	pop	{r4, r5, r6, pc}
    5f78:	40000928 	.word	0x40000928
    5f7c:	4000092c 	.word	0x4000092c
    5f80:	40000930 	.word	0x40000930
    5f84:	e002c000 	.word	0xe002c000
    5f88:	02dc6c00 	.word	0x02dc6c00
    5f8c:	e000c000 	.word	0xe000c000
    5f90:	00005f94 	.word	0x00005f94

00005f94 <uart0ISR>:
    5f94:	e92d0001 	push	{r0}
    5f98:	e94d2000 	stmdb	sp, {sp}^
    5f9c:	e1a00000 	nop			(mov r0,r0)
    5fa0:	e24dd004 	sub	sp, sp, #4	; 0x4
    5fa4:	e8bd0001 	pop	{r0}
    5fa8:	e9204000 	stmdb	r0!, {lr}
    5fac:	e1a0e000 	mov	lr, r0
    5fb0:	e8bd0001 	pop	{r0}
    5fb4:	e94e7fff 	stmdb	lr, {r0, r1, r2, r3, r4, r5, r6, r7, r8, r9, sl, fp, ip, sp, lr}^
    5fb8:	e1a00000 	nop			(mov r0,r0)
    5fbc:	e24ee03c 	sub	lr, lr, #60	; 0x3c
    5fc0:	e14f0000 	mrs	r0, SPSR
    5fc4:	e92e0001 	stmdb	lr!, {r0}
    5fc8:	e59f019c 	ldr	r0, [pc, #412]	; 616c <uart0ISR+0x1d8>
    5fcc:	e5900000 	ldr	r0, [r0]
    5fd0:	e92e0001 	stmdb	lr!, {r0}
    5fd4:	e59f0194 	ldr	r0, [pc, #404]	; 6170 <uart0ISR+0x1dc>
    5fd8:	e5900000 	ldr	r0, [r0]
    5fdc:	e580e000 	str	lr, [r0]
    5fe0:	e59f316c 	ldr	r3, [pc, #364]	; 6154 <uart0ISR+0x1c0>
    5fe4:	e5933000 	ldr	r3, [r3]
    5fe8:	e59f3168 	ldr	r3, [pc, #360]	; 6158 <uart0ISR+0x1c4>
    5fec:	e5933000 	ldr	r3, [r3]
    5ff0:	eb000b2d 	bl	8cac <runTimeStatISREntry>
    5ff4:	e3a03000 	mov	r3, #0	; 0x0
    5ff8:	e58d3000 	str	r3, [sp]
    5ffc:	e59f3158 	ldr	r3, [pc, #344]	; 615c <uart0ISR+0x1c8>
    6000:	e5932008 	ldr	r2, [r3, #8]
    6004:	e202300f 	and	r3, r2, #15	; 0xf
    6008:	e2433002 	sub	r3, r3, #2	; 0x2
    600c:	e353000a 	cmp	r3, #10	; 0xa
    6010:	979ff103 	ldrls	pc, [pc, r3, lsl #2]
    6014:	ea000037 	b	60f8 <uart0ISR+0x164>
    6018:	00006054 	.word	0x00006054
    601c:	000060f8 	.word	0x000060f8
    6020:	000060d0 	.word	0x000060d0
    6024:	000060f8 	.word	0x000060f8
    6028:	00006044 	.word	0x00006044
    602c:	000060f8 	.word	0x000060f8
    6030:	000060f8 	.word	0x000060f8
    6034:	000060f8 	.word	0x000060f8
    6038:	000060f8 	.word	0x000060f8
    603c:	000060f8 	.word	0x000060f8
    6040:	000060d0 	.word	0x000060d0
    6044:	e59f3110 	ldr	r3, [pc, #272]	; 615c <uart0ISR+0x1c8>
    6048:	e5933014 	ldr	r3, [r3, #20]
    604c:	e5cd3007 	strb	r3, [sp, #7]
    6050:	ea000028 	b	60f8 <uart0ISR+0x164>
    6054:	e31200c0 	tst	r2, #192	; 0xc0
    6058:	13a04010 	movne	r4, #16	; 0x10
    605c:	03a04001 	moveq	r4, #1	; 0x1
    6060:	e59f80f8 	ldr	r8, [pc, #248]	; 6160 <uart0ISR+0x1cc>
    6064:	e28d7007 	add	r7, sp, #7	; 0x7
    6068:	e1a0600d 	mov	r6, sp
    606c:	e59f50e8 	ldr	r5, [pc, #232]	; 615c <uart0ISR+0x1c8>
    6070:	ea000001 	b	607c <uart0ISR+0xe8>
    6074:	e1dd30d7 	ldrsb	r3, [sp, #7]
    6078:	e5853000 	str	r3, [r5]
    607c:	e2443001 	sub	r3, r4, #1	; 0x1
    6080:	e20340ff 	and	r4, r3, #255	; 0xff
    6084:	e35400ff 	cmp	r4, #255	; 0xff
    6088:	e1a01007 	mov	r1, r7
    608c:	e1a0200d 	mov	r2, sp
    6090:	0a000003 	beq	60a4 <uart0ISR+0x110>
    6094:	e5980000 	ldr	r0, [r8]
    6098:	eb000946 	bl	85b8 <xQueueReceiveFromISR>
    609c:	e3500000 	cmp	r0, #0	; 0x0
    60a0:	1afffff3 	bne	6074 <uart0ISR+0xe0>
    60a4:	e1a03c04 	lsl	r3, r4, #24
    60a8:	e3530000 	cmp	r3, #0	; 0x0
    60ac:	c59f30b0 	ldrgt	r3, [pc, #176]	; 6164 <uart0ISR+0x1d0>
    60b0:	c3a02001 	movgt	r2, #1	; 0x1
    60b4:	c5832000 	strgt	r2, [r3]
    60b8:	ea00000e 	b	60f8 <uart0ISR+0x164>
    60bc:	e594c000 	ldr	ip, [r4]
    60c0:	e5970000 	ldr	r0, [r7]
    60c4:	e5cdc007 	strb	ip, [sp, #7]
    60c8:	eb000a2d 	bl	8984 <xQueueGenericSendFromISR>
    60cc:	ea000003 	b	60e0 <uart0ISR+0x14c>
    60d0:	e59f4084 	ldr	r4, [pc, #132]	; 615c <uart0ISR+0x1c8>
    60d4:	e59f708c 	ldr	r7, [pc, #140]	; 6168 <uart0ISR+0x1d4>
    60d8:	e28d6007 	add	r6, sp, #7	; 0x7
    60dc:	e1a0500d 	mov	r5, sp
    60e0:	e5940014 	ldr	r0, [r4, #20]
    60e4:	e3100001 	tst	r0, #1	; 0x1
    60e8:	e1a01006 	mov	r1, r6
    60ec:	e1a0200d 	mov	r2, sp
    60f0:	e3a03000 	mov	r3, #0	; 0x0
    60f4:	1afffff0 	bne	60bc <uart0ISR+0x128>
    60f8:	e3a03000 	mov	r3, #0	; 0x0
    60fc:	e3e02000 	mvn	r2, #0	; 0x0
    6100:	e5023fcf 	str	r3, [r2, #-4047]
    6104:	e59d3000 	ldr	r3, [sp]
    6108:	e3530000 	cmp	r3, #0	; 0x0
    610c:	1b000dcf 	blne	9850 <vTaskSwitchContext>
    6110:	eb000af4 	bl	8ce8 <runTimeStatISRExit>
    6114:	e59f0054 	ldr	r0, [pc, #84]	; 6170 <uart0ISR+0x1dc>
    6118:	e5900000 	ldr	r0, [r0]
    611c:	e590e000 	ldr	lr, [r0]
    6120:	e59f0044 	ldr	r0, [pc, #68]	; 616c <uart0ISR+0x1d8>
    6124:	e8be0002 	ldm	lr!, {r1}
    6128:	e5801000 	str	r1, [r0]
    612c:	e8be0001 	ldm	lr!, {r0}
    6130:	e169f000 	msr	SPSR_fc, r0
    6134:	e8de7fff 	ldm	lr, {r0, r1, r2, r3, r4, r5, r6, r7, r8, r9, sl, fp, ip, sp, lr}^
    6138:	e1a00000 	nop			(mov r0,r0)
    613c:	e59ee03c 	ldr	lr, [lr, #60]
    6140:	e25ef004 	subs	pc, lr, #4	; 0x4
    6144:	e59f3008 	ldr	r3, [pc, #8]	; 6154 <uart0ISR+0x1c0>
    6148:	e5933000 	ldr	r3, [r3]
    614c:	e59f3004 	ldr	r3, [pc, #4]	; 6158 <uart0ISR+0x1c4>
    6150:	e5933000 	ldr	r3, [r3]
    6154:	400000fc 	.word	0x400000fc
    6158:	40000950 	.word	0x40000950
    615c:	e000c000 	.word	0xe000c000
    6160:	4000092c 	.word	0x4000092c
    6164:	40000930 	.word	0x40000930
    6168:	40000928 	.word	0x40000928
    616c:	400000fc 	.word	0x400000fc
    6170:	40000950 	.word	0x40000950

00006174 <i2cStateMachine>:
    6174:	e92d4030 	push	{r4, r5, lr}
    6178:	e59f5384 	ldr	r5, [pc, #900]	; 6504 <i2cStateMachine+0x390>
    617c:	e595c004 	ldr	ip, [r5, #4]
    6180:	e35c0028 	cmp	ip, #40	; 0x28
    6184:	0a000049 	beq	62b0 <i2cStateMachine+0x13c>
    6188:	8a00000c 	bhi	61c0 <i2cStateMachine+0x4c>
    618c:	e35c0010 	cmp	ip, #16	; 0x10
    6190:	0a000022 	beq	6220 <i2cStateMachine+0xac>
    6194:	8a000004 	bhi	61ac <i2cStateMachine+0x38>
    6198:	e35c0000 	cmp	ip, #0	; 0x0
    619c:	0a0000ad 	beq	6458 <i2cStateMachine+0x2e4>
    61a0:	e35c0008 	cmp	ip, #8	; 0x8
    61a4:	1a0000c1 	bne	64b0 <i2cStateMachine+0x33c>
    61a8:	ea000013 	b	61fc <i2cStateMachine+0x88>
    61ac:	e35c0018 	cmp	ip, #24	; 0x18
    61b0:	0a00001e 	beq	6230 <i2cStateMachine+0xbc>
    61b4:	e35c0020 	cmp	ip, #32	; 0x20
    61b8:	1a0000bc 	bne	64b0 <i2cStateMachine+0x33c>
    61bc:	ea00002e 	b	627c <i2cStateMachine+0x108>
    61c0:	e35c0040 	cmp	ip, #64	; 0x40
    61c4:	0a000065 	beq	6360 <i2cStateMachine+0x1ec>
    61c8:	8a000004 	bhi	61e0 <i2cStateMachine+0x6c>
    61cc:	e35c0030 	cmp	ip, #48	; 0x30
    61d0:	0a000054 	beq	6328 <i2cStateMachine+0x1b4>
    61d4:	e35c0038 	cmp	ip, #56	; 0x38
    61d8:	1a0000b4 	bne	64b0 <i2cStateMachine+0x33c>
    61dc:	ea0000ab 	b	6490 <i2cStateMachine+0x31c>
    61e0:	e35c0050 	cmp	ip, #80	; 0x50
    61e4:	0a000072 	beq	63b4 <i2cStateMachine+0x240>
    61e8:	e35c0058 	cmp	ip, #88	; 0x58
    61ec:	0a000086 	beq	640c <i2cStateMachine+0x298>
    61f0:	e35c0048 	cmp	ip, #72	; 0x48
    61f4:	1a0000ad 	bne	64b0 <i2cStateMachine+0x33c>
    61f8:	ea00005f 	b	637c <i2cStateMachine+0x208>
    61fc:	e59f3304 	ldr	r3, [pc, #772]	; 6508 <i2cStateMachine+0x394>
    6200:	e5d33000 	ldrb	r3, [r3]
    6204:	e5853008 	str	r3, [r5, #8]
    6208:	e59f32fc 	ldr	r3, [pc, #764]	; 650c <i2cStateMachine+0x398>
    620c:	e3a02000 	mov	r2, #0	; 0x0
    6210:	e585c018 	str	ip, [r5, #24]
    6214:	e5832000 	str	r2, [r3]
    6218:	e1a00002 	mov	r0, r2
    621c:	e8bd8030 	pop	{r4, r5, pc}
    6220:	e59f32e0 	ldr	r3, [pc, #736]	; 6508 <i2cStateMachine+0x394>
    6224:	e5d33000 	ldrb	r3, [r3]
    6228:	e3833001 	orr	r3, r3, #1	; 0x1
    622c:	ea000010 	b	6274 <i2cStateMachine+0x100>
    6230:	e59f22d0 	ldr	r2, [pc, #720]	; 6508 <i2cStateMachine+0x394>
    6234:	e592300c 	ldr	r3, [r2, #12]
    6238:	e3530000 	cmp	r3, #0	; 0x0
    623c:	e3a03020 	mov	r3, #32	; 0x20
    6240:	e5853018 	str	r3, [r5, #24]
    6244:	1a000009 	bne	6270 <i2cStateMachine+0xfc>
    6248:	e5853018 	str	r3, [r5, #24]
    624c:	e3a03010 	mov	r3, #16	; 0x10
    6250:	e5853000 	str	r3, [r5]
    6254:	e3a03008 	mov	r3, #8	; 0x8
    6258:	e5853018 	str	r3, [r5, #24]
    625c:	e1a02005 	mov	r2, r5
    6260:	e5923000 	ldr	r3, [r2]
    6264:	e3130010 	tst	r3, #16	; 0x10
    6268:	1afffffc 	bne	6260 <i2cStateMachine+0xec>
    626c:	ea00009c 	b	64e4 <i2cStateMachine+0x370>
    6270:	e5d23001 	ldrb	r3, [r2, #1]
    6274:	e5853008 	str	r3, [r5, #8]
    6278:	ea000027 	b	631c <i2cStateMachine+0x1a8>
    627c:	e5952004 	ldr	r2, [r5, #4]
    6280:	e59f3280 	ldr	r3, [pc, #640]	; 6508 <i2cStateMachine+0x394>
    6284:	e5c32002 	strb	r2, [r3, #2]
    6288:	e3a03010 	mov	r3, #16	; 0x10
    628c:	e585c018 	str	ip, [r5, #24]
    6290:	e5853000 	str	r3, [r5]
    6294:	e3a03008 	mov	r3, #8	; 0x8
    6298:	e5853018 	str	r3, [r5, #24]
    629c:	e1a02005 	mov	r2, r5
    62a0:	e5923000 	ldr	r3, [r2]
    62a4:	e3130010 	tst	r3, #16	; 0x10
    62a8:	1afffffc 	bne	62a0 <i2cStateMachine+0x12c>
    62ac:	ea00008c 	b	64e4 <i2cStateMachine+0x370>
    62b0:	e59f2250 	ldr	r2, [pc, #592]	; 6508 <i2cStateMachine+0x394>
    62b4:	e5923004 	ldr	r3, [r2, #4]
    62b8:	e3530001 	cmp	r3, #1	; 0x1
    62bc:	0283301f 	addeq	r3, r3, #31	; 0x1f
    62c0:	05853000 	streq	r3, [r5]
    62c4:	0a000014 	beq	631c <i2cStateMachine+0x1a8>
    62c8:	e59f023c 	ldr	r0, [pc, #572]	; 650c <i2cStateMachine+0x398>
    62cc:	e592300c 	ldr	r3, [r2, #12]
    62d0:	e5901000 	ldr	r1, [r0]
    62d4:	e1510003 	cmp	r1, r3
    62d8:	ba00000a 	blt	6308 <i2cStateMachine+0x194>
    62dc:	e3a03020 	mov	r3, #32	; 0x20
    62e0:	e5853018 	str	r3, [r5, #24]
    62e4:	e3a03010 	mov	r3, #16	; 0x10
    62e8:	e5853000 	str	r3, [r5]
    62ec:	e3a03008 	mov	r3, #8	; 0x8
    62f0:	e5853018 	str	r3, [r5, #24]
    62f4:	e1a02005 	mov	r2, r5
    62f8:	e5923000 	ldr	r3, [r2]
    62fc:	e3130010 	tst	r3, #16	; 0x10
    6300:	1afffffc 	bne	62f8 <i2cStateMachine+0x184>
    6304:	ea00007a 	b	64f4 <i2cStateMachine+0x380>
    6308:	e0823001 	add	r3, r2, r1
    630c:	e5d32008 	ldrb	r2, [r3, #8]
    6310:	e2813001 	add	r3, r1, #1	; 0x1
    6314:	e5803000 	str	r3, [r0]
    6318:	e5852008 	str	r2, [r5, #8]
    631c:	e3a03008 	mov	r3, #8	; 0x8
    6320:	e5853018 	str	r3, [r5, #24]
    6324:	ea000036 	b	6404 <i2cStateMachine+0x290>
    6328:	e5952004 	ldr	r2, [r5, #4]
    632c:	e59f31d4 	ldr	r3, [pc, #468]	; 6508 <i2cStateMachine+0x394>
    6330:	e5c32002 	strb	r2, [r3, #2]
    6334:	e3a03020 	mov	r3, #32	; 0x20
    6338:	e5853018 	str	r3, [r5, #24]
    633c:	e3a03010 	mov	r3, #16	; 0x10
    6340:	e5853000 	str	r3, [r5]
    6344:	e3a03008 	mov	r3, #8	; 0x8
    6348:	e5853018 	str	r3, [r5, #24]
    634c:	e1a02005 	mov	r2, r5
    6350:	e5923000 	ldr	r3, [r2]
    6354:	e3130010 	tst	r3, #16	; 0x10
    6358:	1afffffc 	bne	6350 <i2cStateMachine+0x1dc>
    635c:	ea000060 	b	64e4 <i2cStateMachine+0x370>
    6360:	e59f31a0 	ldr	r3, [pc, #416]	; 6508 <i2cStateMachine+0x394>
    6364:	e593300c 	ldr	r3, [r3, #12]
    6368:	e3530001 	cmp	r3, #1	; 0x1
    636c:	e3a03020 	mov	r3, #32	; 0x20
    6370:	e5853018 	str	r3, [r5, #24]
    6374:	ca00001d 	bgt	63f0 <i2cStateMachine+0x27c>
    6378:	ea000019 	b	63e4 <i2cStateMachine+0x270>
    637c:	e5952004 	ldr	r2, [r5, #4]
    6380:	e59f3180 	ldr	r3, [pc, #384]	; 6508 <i2cStateMachine+0x394>
    6384:	e5c32002 	strb	r2, [r3, #2]
    6388:	e3a03020 	mov	r3, #32	; 0x20
    638c:	e5853018 	str	r3, [r5, #24]
    6390:	e3a03010 	mov	r3, #16	; 0x10
    6394:	e5853000 	str	r3, [r5]
    6398:	e3a03008 	mov	r3, #8	; 0x8
    639c:	e5853018 	str	r3, [r5, #24]
    63a0:	e1a02005 	mov	r2, r5
    63a4:	e5923000 	ldr	r3, [r2]
    63a8:	e3130010 	tst	r3, #16	; 0x10
    63ac:	1afffffc 	bne	63a4 <i2cStateMachine+0x230>
    63b0:	ea00004b 	b	64e4 <i2cStateMachine+0x370>
    63b4:	e59f4150 	ldr	r4, [pc, #336]	; 650c <i2cStateMachine+0x398>
    63b8:	e59f2148 	ldr	r2, [pc, #328]	; 6508 <i2cStateMachine+0x394>
    63bc:	e5940000 	ldr	r0, [r4]
    63c0:	e592300c 	ldr	r3, [r2, #12]
    63c4:	e280c001 	add	ip, r0, #1	; 0x1
    63c8:	e2433001 	sub	r3, r3, #1	; 0x1
    63cc:	e5951008 	ldr	r1, [r5, #8]
    63d0:	e0822000 	add	r2, r2, r0
    63d4:	e15c0003 	cmp	ip, r3
    63d8:	e5c21008 	strb	r1, [r2, #8]
    63dc:	e584c000 	str	ip, [r4]
    63e0:	ba000002 	blt	63f0 <i2cStateMachine+0x27c>
    63e4:	e3a03004 	mov	r3, #4	; 0x4
    63e8:	e5853018 	str	r3, [r5, #24]
    63ec:	ea000001 	b	63f8 <i2cStateMachine+0x284>
    63f0:	e3a03004 	mov	r3, #4	; 0x4
    63f4:	e5853000 	str	r3, [r5]
    63f8:	e59f3104 	ldr	r3, [pc, #260]	; 6504 <i2cStateMachine+0x390>
    63fc:	e3a02008 	mov	r2, #8	; 0x8
    6400:	e5832018 	str	r2, [r3, #24]
    6404:	e3a00000 	mov	r0, #0	; 0x0
    6408:	e8bd8030 	pop	{r4, r5, pc}
    640c:	e59f00f8 	ldr	r0, [pc, #248]	; 650c <i2cStateMachine+0x398>
    6410:	e59f30f0 	ldr	r3, [pc, #240]	; 6508 <i2cStateMachine+0x394>
    6414:	e5902000 	ldr	r2, [r0]
    6418:	e5951008 	ldr	r1, [r5, #8]
    641c:	e0833002 	add	r3, r3, r2
    6420:	e5c31008 	strb	r1, [r3, #8]
    6424:	e3a03020 	mov	r3, #32	; 0x20
    6428:	e5853018 	str	r3, [r5, #24]
    642c:	e3a03010 	mov	r3, #16	; 0x10
    6430:	e5853000 	str	r3, [r5]
    6434:	e3a03008 	mov	r3, #8	; 0x8
    6438:	e2822001 	add	r2, r2, #1	; 0x1
    643c:	e5853018 	str	r3, [r5, #24]
    6440:	e5802000 	str	r2, [r0]
    6444:	e1a02005 	mov	r2, r5
    6448:	e5923000 	ldr	r3, [r2]
    644c:	e3130010 	tst	r3, #16	; 0x10
    6450:	1afffffc 	bne	6448 <i2cStateMachine+0x2d4>
    6454:	ea000022 	b	64e4 <i2cStateMachine+0x370>
    6458:	e5952004 	ldr	r2, [r5, #4]
    645c:	e59f30a4 	ldr	r3, [pc, #164]	; 6508 <i2cStateMachine+0x394>
    6460:	e5c32002 	strb	r2, [r3, #2]
    6464:	e3a03020 	mov	r3, #32	; 0x20
    6468:	e5853018 	str	r3, [r5, #24]
    646c:	e3a03010 	mov	r3, #16	; 0x10
    6470:	e5853000 	str	r3, [r5]
    6474:	e3a03008 	mov	r3, #8	; 0x8
    6478:	e5853018 	str	r3, [r5, #24]
    647c:	e1a02005 	mov	r2, r5
    6480:	e5923000 	ldr	r3, [r2]
    6484:	e3130010 	tst	r3, #16	; 0x10
    6488:	1afffffc 	bne	6480 <i2cStateMachine+0x30c>
    648c:	ea000014 	b	64e4 <i2cStateMachine+0x370>
    6490:	e59f3070 	ldr	r3, [pc, #112]	; 6508 <i2cStateMachine+0x394>
    6494:	e5952004 	ldr	r2, [r5, #4]
    6498:	e5c32002 	strb	r2, [r3, #2]
    649c:	e59f3068 	ldr	r3, [pc, #104]	; 650c <i2cStateMachine+0x398>
    64a0:	e3a01000 	mov	r1, #0	; 0x0
    64a4:	e5831000 	str	r1, [r3]
    64a8:	e1a00001 	mov	r0, r1
    64ac:	e8bd8030 	pop	{r4, r5, pc}
    64b0:	e59f204c 	ldr	r2, [pc, #76]	; 6504 <i2cStateMachine+0x390>
    64b4:	e59f304c 	ldr	r3, [pc, #76]	; 6508 <i2cStateMachine+0x394>
    64b8:	e5921004 	ldr	r1, [r2, #4]
    64bc:	e5c31002 	strb	r1, [r3, #2]
    64c0:	e3a03020 	mov	r3, #32	; 0x20
    64c4:	e5823018 	str	r3, [r2, #24]
    64c8:	e3a03010 	mov	r3, #16	; 0x10
    64cc:	e5823000 	str	r3, [r2]
    64d0:	e3a03008 	mov	r3, #8	; 0x8
    64d4:	e5823018 	str	r3, [r2, #24]
    64d8:	e5923000 	ldr	r3, [r2]
    64dc:	e3130010 	tst	r3, #16	; 0x10
    64e0:	1afffffc 	bne	64d8 <i2cStateMachine+0x364>
    64e4:	e59f301c 	ldr	r3, [pc, #28]	; 6508 <i2cStateMachine+0x394>
    64e8:	e5933004 	ldr	r3, [r3, #4]
    64ec:	e3530001 	cmp	r3, #1	; 0x1
    64f0:	0a000001 	beq	64fc <i2cStateMachine+0x388>
    64f4:	e3a00002 	mov	r0, #2	; 0x2
    64f8:	e8bd8030 	pop	{r4, r5, pc}
    64fc:	e3a00001 	mov	r0, #1	; 0x1
    6500:	e8bd8030 	pop	{r4, r5, pc}
    6504:	e001c000 	.word	0xe001c000
    6508:	40000938 	.word	0x40000938
    650c:	40000934 	.word	0x40000934

00006510 <i2cKickOffTransfer>:
    6510:	e92d4030 	push	{r4, r5, lr}
    6514:	e59d400c 	ldr	r4, [sp, #12]
    6518:	e3540004 	cmp	r4, #4	; 0x4
    651c:	e1a0c000 	mov	ip, r0
    6520:	e1a05003 	mov	r5, r3
    6524:	e20110ff 	and	r1, r1, #255	; 0xff
    6528:	e20220ff 	and	r2, r2, #255	; 0xff
    652c:	c8bd8030 	popgt	{r4, r5, pc}
    6530:	e59f003c 	ldr	r0, [pc, #60]	; 6574 <i2cKickOffTransfer+0x64>
    6534:	e3a03000 	mov	r3, #0	; 0x0
    6538:	e35c0000 	cmp	ip, #0	; 0x0
    653c:	e5c03002 	strb	r3, [r0, #2]
    6540:	e5c01000 	strb	r1, [r0]
    6544:	e5c02001 	strb	r2, [r0, #1]
    6548:	e580c004 	str	ip, [r0, #4]
    654c:	e580400c 	str	r4, [r0, #12]
    6550:	02800008 	addeq	r0, r0, #8	; 0x8
    6554:	01a01005 	moveq	r1, r5
    6558:	01a02004 	moveq	r2, r4
    655c:	0b00143c 	bleq	b654 <memcpy>
    6560:	e59f2010 	ldr	r2, [pc, #16]	; 6578 <i2cKickOffTransfer+0x68>
    6564:	e5923000 	ldr	r3, [r2]
    6568:	e3833020 	orr	r3, r3, #32	; 0x20
    656c:	e5823000 	str	r3, [r2]
    6570:	e8bd8030 	pop	{r4, r5, pc}
    6574:	40000938 	.word	0x40000938
    6578:	e001c000 	.word	0xe001c000

0000657c <i2cWriteDeviceRegister>:
    657c:	e92d4070 	push	{r4, r5, r6, lr}
    6580:	e24dd008 	sub	sp, sp, #8	; 0x8
    6584:	e28d6008 	add	r6, sp, #8	; 0x8
    6588:	e59f3048 	ldr	r3, [pc, #72]	; 65d8 <i2cWriteDeviceRegister+0x5c>
    658c:	e5662004 	strb	r2, [r6, #-4]!
    6590:	e1a05001 	mov	r5, r1
    6594:	e3a01000 	mov	r1, #0	; 0x0
    6598:	e20040ff 	and	r4, r0, #255	; 0xff
    659c:	e20550ff 	and	r5, r5, #255	; 0xff
    65a0:	e5930000 	ldr	r0, [r3]
    65a4:	e3e02000 	mvn	r2, #0	; 0x0
    65a8:	e1a03001 	mov	r3, r1
    65ac:	eb000854 	bl	8704 <xQueueGenericReceive>
    65b0:	e3a0c001 	mov	ip, #1	; 0x1
    65b4:	e1a01004 	mov	r1, r4
    65b8:	e1a02005 	mov	r2, r5
    65bc:	e1a03006 	mov	r3, r6
    65c0:	e3a00000 	mov	r0, #0	; 0x0
    65c4:	e58dc000 	str	ip, [sp]
    65c8:	ebffffd0 	bl	6510 <i2cKickOffTransfer>
    65cc:	e3a00000 	mov	r0, #0	; 0x0
    65d0:	e28dd008 	add	sp, sp, #8	; 0x8
    65d4:	e8bd8070 	pop	{r4, r5, r6, pc}
    65d8:	40000a84 	.word	0x40000a84

000065dc <initPE>:
    65dc:	e52de004 	push	{lr}		; (str lr, [sp, #-4]!)
    65e0:	e3a01006 	mov	r1, #6	; 0x6
    65e4:	e3a02000 	mov	r2, #0	; 0x0
    65e8:	e3a00040 	mov	r0, #64	; 0x40
    65ec:	ebffffe2 	bl	657c <i2cWriteDeviceRegister>
    65f0:	e3a01007 	mov	r1, #7	; 0x7
    65f4:	e3a020ff 	mov	r2, #255	; 0xff
    65f8:	e3a00040 	mov	r0, #64	; 0x40
    65fc:	ebffffde 	bl	657c <i2cWriteDeviceRegister>
    6600:	e3a00040 	mov	r0, #64	; 0x40
    6604:	e3a01007 	mov	r1, #7	; 0x7
    6608:	e3a020ff 	mov	r2, #255	; 0xff
    660c:	e49de004 	pop	{lr}		; (ldr lr, [sp], #4)
    6610:	eaffffd9 	b	657c <i2cWriteDeviceRegister>

00006614 <i2cReadDeviceRegister>:
    6614:	e92d41f0 	push	{r4, r5, r6, r7, r8, lr}
    6618:	e59f8090 	ldr	r8, [pc, #144]	; 66b0 <i2cReadDeviceRegister+0x9c>
    661c:	e24dd008 	sub	sp, sp, #8	; 0x8
    6620:	e3a06000 	mov	r6, #0	; 0x0
    6624:	e28d7008 	add	r7, sp, #8	; 0x8
    6628:	e5676001 	strb	r6, [r7, #-1]!
    662c:	e1a03006 	mov	r3, r6
    6630:	e1a04000 	mov	r4, r0
    6634:	e1a05001 	mov	r5, r1
    6638:	e3e02000 	mvn	r2, #0	; 0x0
    663c:	e1a01006 	mov	r1, r6
    6640:	e5980000 	ldr	r0, [r8]
    6644:	eb00082e 	bl	8704 <xQueueGenericReceive>
    6648:	e20440ff 	and	r4, r4, #255	; 0xff
    664c:	e3a0c001 	mov	ip, #1	; 0x1
    6650:	e20550ff 	and	r5, r5, #255	; 0xff
    6654:	e1a0000c 	mov	r0, ip
    6658:	e1a01004 	mov	r1, r4
    665c:	e1a02005 	mov	r2, r5
    6660:	e1a03007 	mov	r3, r7
    6664:	e58dc000 	str	ip, [sp]
    6668:	ebffffa8 	bl	6510 <i2cKickOffTransfer>
    666c:	e59f3040 	ldr	r3, [pc, #64]	; 66b4 <i2cReadDeviceRegister+0xa0>
    6670:	e1a01006 	mov	r1, r6
    6674:	e5930000 	ldr	r0, [r3]
    6678:	e3e02000 	mvn	r2, #0	; 0x0
    667c:	e1a03006 	mov	r3, r6
    6680:	eb00081f 	bl	8704 <xQueueGenericReceive>
    6684:	e59f302c 	ldr	r3, [pc, #44]	; 66b8 <i2cReadDeviceRegister+0xa4>
    6688:	e5d3c008 	ldrb	ip, [r3, #8]
    668c:	e1a01006 	mov	r1, r6
    6690:	e5980000 	ldr	r0, [r8]
    6694:	e1a02006 	mov	r2, r6
    6698:	e1a03006 	mov	r3, r6
    669c:	e5cdc007 	strb	ip, [sp, #7]
    66a0:	eb0008d3 	bl	89f4 <xQueueGenericSend>
    66a4:	e5dd0007 	ldrb	r0, [sp, #7]
    66a8:	e28dd008 	add	sp, sp, #8	; 0x8
    66ac:	e8bd81f0 	pop	{r4, r5, r6, r7, r8, pc}
    66b0:	40000a84 	.word	0x40000a84
    66b4:	40000a80 	.word	0x40000a80
    66b8:	40000938 	.word	0x40000938

000066bc <initialize_I2C0>:
    66bc:	e59fc108 	ldr	ip, [pc, #264]	; 67cc <initialize_I2C0+0x110>
    66c0:	e59c3000 	ldr	r3, [ip]
    66c4:	e3c330f0 	bic	r3, r3, #240	; 0xf0
    66c8:	e58c3000 	str	r3, [ip]
    66cc:	e59f30fc 	ldr	r3, [pc, #252]	; 67d0 <initialize_I2C0+0x114>
    66d0:	e59c2000 	ldr	r2, [ip]
    66d4:	e59f10f8 	ldr	r1, [pc, #248]	; 67d4 <initialize_I2C0+0x118>
    66d8:	e1500003 	cmp	r0, r3
    66dc:	e92d4030 	push	{r4, r5, lr}
    66e0:	e59f40f0 	ldr	r4, [pc, #240]	; 67d8 <initialize_I2C0+0x11c>
    66e4:	91a05000 	movls	r5, r0
    66e8:	81a05001 	movhi	r5, r1
    66ec:	e3822050 	orr	r2, r2, #80	; 0x50
    66f0:	e3a0306c 	mov	r3, #108	; 0x6c
    66f4:	e58c2000 	str	r2, [ip]
    66f8:	e2851001 	add	r1, r5, #1	; 0x1
    66fc:	e5843018 	str	r3, [r4, #24]
    6700:	e59f00d4 	ldr	r0, [pc, #212]	; 67dc <initialize_I2C0+0x120>
    6704:	eb000e41 	bl	a010 <__aeabi_uidiv>
    6708:	e1a03000 	mov	r3, r0
    670c:	e1a01005 	mov	r1, r5
    6710:	e5843010 	str	r3, [r4, #16]
    6714:	e59f00c0 	ldr	r0, [pc, #192]	; 67dc <initialize_I2C0+0x120>
    6718:	eb000e3c 	bl	a010 <__aeabi_uidiv>
    671c:	e3a05000 	mov	r5, #0	; 0x0
    6720:	e3a03040 	mov	r3, #64	; 0x40
    6724:	e5840014 	str	r0, [r4, #20]
    6728:	e584500c 	str	r5, [r4, #12]
    672c:	e5843000 	str	r3, [r4]
    6730:	e3e02000 	mvn	r2, #0	; 0x0
    6734:	e5123ff3 	ldr	r3, [r2, #-4083]
    6738:	e3c33c02 	bic	r3, r3, #512	; 0x200
    673c:	e5023ff3 	str	r3, [r2, #-4083]
    6740:	e3a03029 	mov	r3, #41	; 0x29
    6744:	e5023def 	str	r3, [r2, #-3567]
    6748:	e59f3090 	ldr	r3, [pc, #144]	; 67e0 <initialize_I2C0+0x124>
    674c:	e3a00001 	mov	r0, #1	; 0x1
    6750:	e5023eef 	str	r3, [r2, #-3823]
    6754:	e1a01005 	mov	r1, r5
    6758:	eb000913 	bl	8bac <xQueueCreate>
    675c:	e59f3080 	ldr	r3, [pc, #128]	; 67e4 <initialize_I2C0+0x128>
    6760:	e1500005 	cmp	r0, r5
    6764:	e5830000 	str	r0, [r3]
    6768:	11a01005 	movne	r1, r5
    676c:	11a02005 	movne	r2, r5
    6770:	11a03005 	movne	r3, r5
    6774:	1b00089e 	blne	89f4 <xQueueGenericSend>
    6778:	e3a00001 	mov	r0, #1	; 0x1
    677c:	e3a01000 	mov	r1, #0	; 0x0
    6780:	eb000909 	bl	8bac <xQueueCreate>
    6784:	e59f305c 	ldr	r3, [pc, #92]	; 67e8 <initialize_I2C0+0x12c>
    6788:	e3500000 	cmp	r0, #0	; 0x0
    678c:	e5830000 	str	r0, [r3]
    6790:	13a01000 	movne	r1, #0	; 0x0
    6794:	11a02001 	movne	r2, r1
    6798:	11a03001 	movne	r3, r1
    679c:	1b000894 	blne	89f4 <xQueueGenericSend>
    67a0:	e59f3040 	ldr	r3, [pc, #64]	; 67e8 <initialize_I2C0+0x12c>
    67a4:	e3a01000 	mov	r1, #0	; 0x0
    67a8:	e1a02001 	mov	r2, r1
    67ac:	e5930000 	ldr	r0, [r3]
    67b0:	e1a03001 	mov	r3, r1
    67b4:	eb0007d2 	bl	8704 <xQueueGenericReceive>
    67b8:	e3a02c02 	mov	r2, #512	; 0x200
    67bc:	e3e03000 	mvn	r3, #0	; 0x0
    67c0:	e5032fef 	str	r2, [r3, #-4079]
    67c4:	e8bd4030 	pop	{r4, r5, lr}
    67c8:	eaffff83 	b	65dc <initPE>
    67cc:	e002c000 	.word	0xe002c000
    67d0:	000f4240 	.word	0x000f4240
    67d4:	00061a80 	.word	0x00061a80
    67d8:	e001c000 	.word	0xe001c000
    67dc:	016e3600 	.word	0x016e3600
    67e0:	000067ec 	.word	0x000067ec
    67e4:	40000a84 	.word	0x40000a84
    67e8:	40000a80 	.word	0x40000a80

000067ec <i2cISR>:
    67ec:	e92d0001 	push	{r0}
    67f0:	e94d2000 	stmdb	sp, {sp}^
    67f4:	e1a00000 	nop			(mov r0,r0)
    67f8:	e24dd004 	sub	sp, sp, #4	; 0x4
    67fc:	e8bd0001 	pop	{r0}
    6800:	e9204000 	stmdb	r0!, {lr}
    6804:	e1a0e000 	mov	lr, r0
    6808:	e8bd0001 	pop	{r0}
    680c:	e94e7fff 	stmdb	lr, {r0, r1, r2, r3, r4, r5, r6, r7, r8, r9, sl, fp, ip, sp, lr}^
    6810:	e1a00000 	nop			(mov r0,r0)
    6814:	e24ee03c 	sub	lr, lr, #60	; 0x3c
    6818:	e14f0000 	mrs	r0, SPSR
    681c:	e92e0001 	stmdb	lr!, {r0}
    6820:	e59f00c4 	ldr	r0, [pc, #196]	; 68ec <i2cISR+0x100>
    6824:	e5900000 	ldr	r0, [r0]
    6828:	e92e0001 	stmdb	lr!, {r0}
    682c:	e59f00bc 	ldr	r0, [pc, #188]	; 68f0 <i2cISR+0x104>
    6830:	e5900000 	ldr	r0, [r0]
    6834:	e580e000 	str	lr, [r0]
    6838:	e59f309c 	ldr	r3, [pc, #156]	; 68dc <i2cISR+0xf0>
    683c:	e5933000 	ldr	r3, [r3]
    6840:	e59f3098 	ldr	r3, [pc, #152]	; 68e0 <i2cISR+0xf4>
    6844:	e3a04000 	mov	r4, #0	; 0x0
    6848:	e5933000 	ldr	r3, [r3]
    684c:	e58d4000 	str	r4, [sp]
    6850:	ebfffe47 	bl	6174 <i2cStateMachine>
    6854:	e3500001 	cmp	r0, #1	; 0x1
    6858:	01a01004 	moveq	r1, r4
    685c:	059f3080 	ldreq	r3, [pc, #128]	; 68e4 <i2cISR+0xf8>
    6860:	0a000003 	beq	6874 <i2cISR+0x88>
    6864:	e3500002 	cmp	r0, #2	; 0x2
    6868:	1a000005 	bne	6884 <i2cISR+0x98>
    686c:	e59f3074 	ldr	r3, [pc, #116]	; 68e8 <i2cISR+0xfc>
    6870:	e1a01004 	mov	r1, r4
    6874:	e5930000 	ldr	r0, [r3]
    6878:	e1a0200d 	mov	r2, sp
    687c:	e1a03001 	mov	r3, r1
    6880:	eb00083f 	bl	8984 <xQueueGenericSendFromISR>
    6884:	e59d3000 	ldr	r3, [sp]
    6888:	e3530000 	cmp	r3, #0	; 0x0
    688c:	1b000bef 	blne	9850 <vTaskSwitchContext>
    6890:	e3a02000 	mov	r2, #0	; 0x0
    6894:	e3e03000 	mvn	r3, #0	; 0x0
    6898:	e5032fcf 	str	r2, [r3, #-4047]
    689c:	e59f004c 	ldr	r0, [pc, #76]	; 68f0 <i2cISR+0x104>
    68a0:	e5900000 	ldr	r0, [r0]
    68a4:	e590e000 	ldr	lr, [r0]
    68a8:	e59f003c 	ldr	r0, [pc, #60]	; 68ec <i2cISR+0x100>
    68ac:	e8be0002 	ldm	lr!, {r1}
    68b0:	e5801000 	str	r1, [r0]
    68b4:	e8be0001 	ldm	lr!, {r0}
    68b8:	e169f000 	msr	SPSR_fc, r0
    68bc:	e8de7fff 	ldm	lr, {r0, r1, r2, r3, r4, r5, r6, r7, r8, r9, sl, fp, ip, sp, lr}^
    68c0:	e1a00000 	nop			(mov r0,r0)
    68c4:	e59ee03c 	ldr	lr, [lr, #60]
    68c8:	e25ef004 	subs	pc, lr, #4	; 0x4
    68cc:	e59f3008 	ldr	r3, [pc, #8]	; 68dc <i2cISR+0xf0>
    68d0:	e5933000 	ldr	r3, [r3]
    68d4:	e59f3004 	ldr	r3, [pc, #4]	; 68e0 <i2cISR+0xf4>
    68d8:	e5933000 	ldr	r3, [r3]
    68dc:	400000fc 	.word	0x400000fc
    68e0:	40000950 	.word	0x40000950
    68e4:	40000a80 	.word	0x40000a80
    68e8:	40000a84 	.word	0x40000a84
    68ec:	400000fc 	.word	0x400000fc
    68f0:	40000950 	.word	0x40000950

000068f4 <pcm1774_sendByte>:
    68f4:	e12fff1e 	bx	lr

000068f8 <pcm1774_readByte>:
    68f8:	e3a00000 	mov	r0, #0	; 0x0
    68fc:	e12fff1e 	bx	lr

00006900 <pcm1774_bitMask>:
    6900:	e12fff1e 	bx	lr

00006904 <initialize_pcm1774>:
    6904:	e3a00001 	mov	r0, #1	; 0x1
    6908:	e12fff1e 	bx	lr

0000690c <pcm1774_Reset>:
    690c:	e24dd004 	sub	sp, sp, #4	; 0x4
    6910:	e3a03000 	mov	r3, #0	; 0x0
    6914:	e58d3000 	str	r3, [sp]
    6918:	e59f2024 	ldr	r2, [pc, #36]	; 6944 <pcm1774_Reset+0x38>
    691c:	e58d3000 	str	r3, [sp]
    6920:	ea000002 	b	6930 <pcm1774_Reset+0x24>
    6924:	e59d3000 	ldr	r3, [sp]
    6928:	e2833001 	add	r3, r3, #1	; 0x1
    692c:	e58d3000 	str	r3, [sp]
    6930:	e59d3000 	ldr	r3, [sp]
    6934:	e1530002 	cmp	r3, r2
    6938:	dafffff9 	ble	6924 <pcm1774_Reset+0x18>
    693c:	e28dd004 	add	sp, sp, #4	; 0x4
    6940:	e12fff1e 	bx	lr
    6944:	00001387 	.word	0x00001387

00006948 <pcm1774_LoadDefaultDigitalConfiguration>:
    6948:	e12fff1e 	bx	lr

0000694c <pcm1774_OutputVolume>:
    694c:	e12fff1e 	bx	lr

00006950 <pcm1774_ConnectDigitalOutputs>:
    6950:	e12fff1e 	bx	lr

00006954 <pcm1774_DigitalVolume>:
    6954:	e12fff1e 	bx	lr

00006958 <pcm1774_DigitalDeEmphasisFilter>:
    6958:	e12fff1e 	bx	lr

0000695c <pcm1774_DigitalInterfaceSelection>:
    695c:	e12fff1e 	bx	lr

00006960 <pcm1774_DigitalGainControl>:
    6960:	e12fff1e 	bx	lr

00006964 <pcm1774_DigitalOversamplingControl>:
    6964:	e12fff1e 	bx	lr

00006968 <pcm1774_PowerUpMixer>:
    6968:	e12fff1e 	bx	lr

0000696c <pcm1774_PowerUpAnalogBiasControl>:
    696c:	e12fff1e 	bx	lr

00006970 <pcm1774_PowerUpDAC>:
    6970:	e12fff1e 	bx	lr

00006974 <pcm1774_PowerUpAnalog>:
    6974:	e12fff1e 	bx	lr

00006978 <pcm1774_LineOutputConfiguration>:
    6978:	e12fff1e 	bx	lr

0000697c <pcm1774_PowerUpVcom>:
    697c:	e12fff1e 	bx	lr

00006980 <pcm1774_setShortCircuitProtectionLeft>:
    6980:	e12fff1e 	bx	lr

00006984 <pcm1774_setShortCircuitProtectionRight>:
    6984:	e12fff1e 	bx	lr

00006988 <pcm1774_readShortCircuitStatusLeft>:
    6988:	e3a00001 	mov	r0, #1	; 0x1
    698c:	e12fff1e 	bx	lr

00006990 <pcm1774_readShortCircuitStatusRight>:
    6990:	e3a00001 	mov	r0, #1	; 0x1
    6994:	e12fff1e 	bx	lr

00006998 <pcm1774_PowerUpGainAmplifierAnalog>:
    6998:	e12fff1e 	bx	lr

0000699c <pcm1774_selectAnalogInput>:
    699c:	e12fff1e 	bx	lr

000069a0 <pcm1774_gainAmplifierAnalogInput>:
    69a0:	e12fff1e 	bx	lr

000069a4 <pcm1774_redirectAnalogInputToLeftOutput>:
    69a4:	e12fff1e 	bx	lr

000069a8 <pcm1774_redirectAnalogInputToRightOutput>:
    69a8:	e12fff1e 	bx	lr

000069ac <pcm1774_bassBoost>:
    69ac:	e12fff1e 	bx	lr

000069b0 <pcm1774_middleBoost>:
    69b0:	e12fff1e 	bx	lr

000069b4 <pcm1774_trebleBoost>:
    69b4:	e12fff1e 	bx	lr

000069b8 <pcm1774_3dSoundEffect>:
    69b8:	e12fff1e 	bx	lr

000069bc <initialize_SSPSPI>:
    69bc:	e59f2034 	ldr	r2, [pc, #52]	; 69f8 <initialize_SSPSPI+0x3c>
    69c0:	e5923004 	ldr	r3, [r2, #4]
    69c4:	e3c33fff 	bic	r3, r3, #1020	; 0x3fc
    69c8:	e5823004 	str	r3, [r2, #4]
    69cc:	e5923004 	ldr	r3, [r2, #4]
    69d0:	e59f1024 	ldr	r1, [pc, #36]	; 69fc <initialize_SSPSPI+0x40>
    69d4:	e3833faa 	orr	r3, r3, #680	; 0x2a8
    69d8:	e5823004 	str	r3, [r2, #4]
    69dc:	e3a03020 	mov	r3, #32	; 0x20
    69e0:	e5813010 	str	r3, [r1, #16]
    69e4:	e3a03007 	mov	r3, #7	; 0x7
    69e8:	e5813000 	str	r3, [r1]
    69ec:	e3a03002 	mov	r3, #2	; 0x2
    69f0:	e5813004 	str	r3, [r1, #4]
    69f4:	e12fff1e 	bx	lr
    69f8:	e002c000 	.word	0xe002c000
    69fc:	e0068000 	.word	0xe0068000

00006a00 <rxTxByteSSPSPI>:
    6a00:	e59f3024 	ldr	r3, [pc, #36]	; 6a2c <rxTxByteSSPSPI+0x2c>
    6a04:	e20000ff 	and	r0, r0, #255	; 0xff
    6a08:	e5830008 	str	r0, [r3, #8]
    6a0c:	e1a02003 	mov	r2, r3
    6a10:	e592300c 	ldr	r3, [r2, #12]
    6a14:	e3130010 	tst	r3, #16	; 0x10
    6a18:	1afffffc 	bne	6a10 <rxTxByteSSPSPI+0x10>
    6a1c:	e59f3008 	ldr	r3, [pc, #8]	; 6a2c <rxTxByteSSPSPI+0x2c>
    6a20:	e5930008 	ldr	r0, [r3, #8]
    6a24:	e20000ff 	and	r0, r0, #255	; 0xff
    6a28:	e12fff1e 	bx	lr
    6a2c:	e0068000 	.word	0xe0068000

00006a30 <setSSPSPI_Divider>:
    6a30:	e59f3008 	ldr	r3, [pc, #8]	; 6a40 <setSSPSPI_Divider+0x10>
    6a34:	e3c00001 	bic	r0, r0, #1	; 0x1
    6a38:	e5830010 	str	r0, [r3, #16]
    6a3c:	e12fff1e 	bx	lr
    6a40:	e0068000 	.word	0xe0068000

00006a44 <sta013ReadReg>:
    6a44:	e3a00000 	mov	r0, #0	; 0x0
    6a48:	e12fff1e 	bx	lr

00006a4c <sta013WriteReg>:
    6a4c:	e12fff1e 	bx	lr

00006a50 <sta013HWReset>:
    6a50:	e24dd004 	sub	sp, sp, #4	; 0x4
    6a54:	e3a03000 	mov	r3, #0	; 0x0
    6a58:	e58d3000 	str	r3, [sp]
    6a5c:	e59f3058 	ldr	r3, [pc, #88]	; 6abc <sta013HWReset+0x6c>
    6a60:	e3a02a02 	mov	r2, #8192	; 0x2000
    6a64:	e583200c 	str	r2, [r3, #12]
    6a68:	e59f3050 	ldr	r3, [pc, #80]	; 6ac0 <sta013HWReset+0x70>
    6a6c:	e58d3000 	str	r3, [sp]
    6a70:	e59d3000 	ldr	r3, [sp]
    6a74:	e2433001 	sub	r3, r3, #1	; 0x1
    6a78:	e58d3000 	str	r3, [sp]
    6a7c:	e59d3000 	ldr	r3, [sp]
    6a80:	e3530000 	cmp	r3, #0	; 0x0
    6a84:	1afffff9 	bne	6a70 <sta013HWReset+0x20>
    6a88:	e59f202c 	ldr	r2, [pc, #44]	; 6abc <sta013HWReset+0x6c>
    6a8c:	e2833a02 	add	r3, r3, #8192	; 0x2000
    6a90:	e5823004 	str	r3, [r2, #4]
    6a94:	e59f3024 	ldr	r3, [pc, #36]	; 6ac0 <sta013HWReset+0x70>
    6a98:	e58d3000 	str	r3, [sp]
    6a9c:	e59d3000 	ldr	r3, [sp]
    6aa0:	e2433001 	sub	r3, r3, #1	; 0x1
    6aa4:	e58d3000 	str	r3, [sp]
    6aa8:	e59d3000 	ldr	r3, [sp]
    6aac:	e3530000 	cmp	r3, #0	; 0x0
    6ab0:	1afffff9 	bne	6a9c <sta013HWReset+0x4c>
    6ab4:	e28dd004 	add	sp, sp, #4	; 0x4
    6ab8:	e12fff1e 	bx	lr
    6abc:	e0028000 	.word	0xe0028000
    6ac0:	0000445c 	.word	0x0000445c

00006ac4 <sta013DownloadUpdate>:
    6ac4:	e59f101c 	ldr	r1, [pc, #28]	; 6ae8 <sta013DownloadUpdate+0x24>
    6ac8:	e3a03002 	mov	r3, #2	; 0x2
    6acc:	e7d12003 	ldrb	r2, [r1, r3]
    6ad0:	e2833002 	add	r3, r3, #2	; 0x2
    6ad4:	e1a03803 	lsl	r3, r3, #16
    6ad8:	e35200ff 	cmp	r2, #255	; 0xff
    6adc:	e1a03823 	lsr	r3, r3, #16
    6ae0:	1afffff9 	bne	6acc <sta013DownloadUpdate+0x8>
    6ae4:	e12fff1e 	bx	lr
    6ae8:	0000ee72 	.word	0x0000ee72

00006aec <initialize_sta013>:
    6aec:	e59f1068 	ldr	r1, [pc, #104]	; 6b5c <initialize_sta013+0x70>
    6af0:	e5913000 	ldr	r3, [r1]
    6af4:	e3c33303 	bic	r3, r3, #201326592	; 0xc000000
    6af8:	e5813000 	str	r3, [r1]
    6afc:	e5913000 	ldr	r3, [r1]
    6b00:	e3c33103 	bic	r3, r3, #-1073741824	; 0xc0000000
    6b04:	e5813000 	str	r3, [r1]
    6b08:	e5913014 	ldr	r3, [r1, #20]
    6b0c:	e59f204c 	ldr	r2, [pc, #76]	; 6b60 <initialize_sta013+0x74>
    6b10:	e3c33303 	bic	r3, r3, #201326592	; 0xc000000
    6b14:	e5813014 	str	r3, [r1, #20]
    6b18:	e3a03202 	mov	r3, #536870912	; 0x20000000
    6b1c:	e582301c 	str	r3, [r2, #28]
    6b20:	e5923018 	ldr	r3, [r2, #24]
    6b24:	e3833202 	orr	r3, r3, #536870912	; 0x20000000
    6b28:	e5823018 	str	r3, [r2, #24]
    6b2c:	e3a03a02 	mov	r3, #8192	; 0x2000
    6b30:	e5823004 	str	r3, [r2, #4]
    6b34:	e5923008 	ldr	r3, [r2, #8]
    6b38:	e3833a02 	orr	r3, r3, #8192	; 0x2000
    6b3c:	e5823008 	str	r3, [r2, #8]
    6b40:	e5923008 	ldr	r3, [r2, #8]
    6b44:	e3c33902 	bic	r3, r3, #32768	; 0x8000
    6b48:	e52de004 	push	{lr}		; (str lr, [sp, #-4]!)
    6b4c:	e5823008 	str	r3, [r2, #8]
    6b50:	ebffffbe 	bl	6a50 <sta013HWReset>
    6b54:	e3a00000 	mov	r0, #0	; 0x0
    6b58:	e49df004 	pop	{pc}		; (ldr pc, [sp], #4)
    6b5c:	e002c000 	.word	0xe002c000
    6b60:	e0028000 	.word	0xe0028000

00006b64 <sta013StartDecoder>:
    6b64:	e12fff1e 	bx	lr

00006b68 <sta013StopDecoder>:
    6b68:	e12fff1e 	bx	lr

00006b6c <sta013PauseDecoder>:
    6b6c:	e12fff1e 	bx	lr

00006b70 <sta013ResumeDecoder>:
    6b70:	e12fff1e 	bx	lr

00006b74 <sta013GetMP3Info>:
    6b74:	e3a03000 	mov	r3, #0	; 0x0
    6b78:	e5c23000 	strb	r3, [r2]
    6b7c:	e1c030b0 	strh	r3, [r0]
    6b80:	e3a0300b 	mov	r3, #11	; 0xb
    6b84:	e5c13000 	strb	r3, [r1]
    6b88:	e12fff1e 	bx	lr

00006b8c <sta013GetAverageBitrate>:
    6b8c:	e3a00000 	mov	r0, #0	; 0x0
    6b90:	e12fff1e 	bx	lr

00006b94 <sta013SetVolume>:
    6b94:	e12fff1e 	bx	lr

00006b98 <sta013SetTone>:
    6b98:	e12fff1e 	bx	lr

00006b9c <cpuSetupHardware>:
    6b9c:	e59f2088 	ldr	r2, [pc, #136]	; 6c2c <cpuSetupHardware+0x90>
    6ba0:	e59f0088 	ldr	r0, [pc, #136]	; 6c30 <cpuSetupHardware+0x94>
    6ba4:	e3a03000 	mov	r3, #0	; 0x0
    6ba8:	e59f1084 	ldr	r1, [pc, #132]	; 6c34 <cpuSetupHardware+0x98>
    6bac:	e5823000 	str	r3, [r2]
    6bb0:	e5823004 	str	r3, [r2, #4]
    6bb4:	e5823014 	str	r3, [r2, #20]
    6bb8:	e5803008 	str	r3, [r0, #8]
    6bbc:	e5803018 	str	r3, [r0, #24]
    6bc0:	e2833023 	add	r3, r3, #35	; 0x23
    6bc4:	e5813084 	str	r3, [r1, #132]
    6bc8:	e3a03001 	mov	r3, #1	; 0x1
    6bcc:	e5813080 	str	r3, [r1, #128]
    6bd0:	e28330a9 	add	r3, r3, #169	; 0xa9
    6bd4:	e581308c 	str	r3, [r1, #140]
    6bd8:	e3a03055 	mov	r3, #85	; 0x55
    6bdc:	e581308c 	str	r3, [r1, #140]
    6be0:	e5913088 	ldr	r3, [r1, #136]
    6be4:	e3130b01 	tst	r3, #1024	; 0x400
    6be8:	e59f0044 	ldr	r0, [pc, #68]	; 6c34 <cpuSetupHardware+0x98>
    6bec:	0afffffb 	beq	6be0 <cpuSetupHardware+0x44>
    6bf0:	e3a02003 	mov	r2, #3	; 0x3
    6bf4:	e3a030aa 	mov	r3, #170	; 0xaa
    6bf8:	e5802080 	str	r2, [r0, #128]
    6bfc:	e580308c 	str	r3, [r0, #140]
    6c00:	e3a03055 	mov	r3, #85	; 0x55
    6c04:	e580308c 	str	r3, [r0, #140]
    6c08:	e3a03002 	mov	r3, #2	; 0x2
    6c0c:	e5802004 	str	r2, [r0, #4]
    6c10:	e5803000 	str	r3, [r0]
    6c14:	e59f201c 	ldr	r2, [pc, #28]	; 6c38 <cpuSetupHardware+0x9c>
    6c18:	e3a03001 	mov	r3, #1	; 0x1
    6c1c:	e5803100 	str	r3, [r0, #256]
    6c20:	e3e03000 	mvn	r3, #0	; 0x0
    6c24:	e5032feb 	str	r2, [r3, #-4075]
    6c28:	e12fff1e 	bx	lr
    6c2c:	e002c000 	.word	0xe002c000
    6c30:	e0028000 	.word	0xe0028000
    6c34:	e01fc000 	.word	0xe01fc000
    6c38:	007ffffd 	.word	0x007ffffd

00006c3c <cpuSetupFIQISR>:
    6c3c:	e12fff1e 	bx	lr

00006c40 <cpuPrintMemoryInfo>:
    6c40:	e92d4030 	push	{r4, r5, lr}
    6c44:	e59f4054 	ldr	r4, [pc, #84]	; 6ca0 <cpuPrintMemoryInfo+0x60>
    6c48:	e59f0054 	ldr	r0, [pc, #84]	; 6ca4 <cpuPrintMemoryInfo+0x64>
    6c4c:	eb00016d 	bl	7208 <rprintf>
    6c50:	e1a00004 	mov	r0, r4
    6c54:	eb00016b 	bl	7208 <rprintf>
    6c58:	e59f0048 	ldr	r0, [pc, #72]	; 6ca8 <cpuPrintMemoryInfo+0x68>
    6c5c:	eb000169 	bl	7208 <rprintf>
    6c60:	e59f5044 	ldr	r5, [pc, #68]	; 6cac <cpuPrintMemoryInfo+0x6c>
    6c64:	e1a00004 	mov	r0, r4
    6c68:	eb000166 	bl	7208 <rprintf>
    6c6c:	e59f003c 	ldr	r0, [pc, #60]	; 6cb0 <cpuPrintMemoryInfo+0x70>
    6c70:	e3a01d11 	mov	r1, #1088	; 0x440
    6c74:	eb000163 	bl	7208 <rprintf>
    6c78:	e1a01005 	mov	r1, r5
    6c7c:	e59f0030 	ldr	r0, [pc, #48]	; 6cb4 <cpuPrintMemoryInfo+0x74>
    6c80:	eb000160 	bl	7208 <rprintf>
    6c84:	e2651c7b 	rsb	r1, r5, #31488	; 0x7b00
    6c88:	e28110a0 	add	r1, r1, #160	; 0xa0
    6c8c:	e59f0024 	ldr	r0, [pc, #36]	; 6cb8 <cpuPrintMemoryInfo+0x78>
    6c90:	eb00015c 	bl	7208 <rprintf>
    6c94:	e1a00004 	mov	r0, r4
    6c98:	e8bd4030 	pop	{r4, r5, lr}
    6c9c:	ea000159 	b	7208 <rprintf>
    6ca0:	000104fc 	.word	0x000104fc
    6ca4:	00010a28 	.word	0x00010a28
    6ca8:	00010214 	.word	0x00010214
    6cac:	00000b18 	.word	0x00000b18
    6cb0:	00010234 	.word	0x00010234
    6cb4:	00010253 	.word	0x00010253
    6cb8:	00010272 	.word	0x00010272

00006cbc <didSystemCrash>:
    6cbc:	e59f302c 	ldr	r3, [pc, #44]	; 6cf0 <didSystemCrash+0x34>
    6cc0:	e5d30004 	ldrb	r0, [r3, #4]
    6cc4:	e5d32005 	ldrb	r2, [r3, #5]
    6cc8:	e5d31006 	ldrb	r1, [r3, #6]
    6ccc:	e1800402 	orr	r0, r0, r2, lsl #8
    6cd0:	e5d33007 	ldrb	r3, [r3, #7]
    6cd4:	e1800801 	orr	r0, r0, r1, lsl #16
    6cd8:	e1800c03 	orr	r0, r0, r3, lsl #24
    6cdc:	e59f3010 	ldr	r3, [pc, #16]	; 6cf4 <didSystemCrash+0x38>
    6ce0:	e1500003 	cmp	r0, r3
    6ce4:	13a00000 	movne	r0, #0	; 0x0
    6ce8:	03a00001 	moveq	r0, #1	; 0x1
    6cec:	e12fff1e 	bx	lr
    6cf0:	40000040 	.word	0x40000040
    6cf4:	deadc0de 	.word	0xdeadc0de

00006cf8 <performUndefinedInstructionCrash>:
    6cf8:	06000010 	undefined
    6cfc:	e12fff1e 	bx	lr

00006d00 <performPABORTCrash>:
    6d00:	e3a00702 	mov	r0, #524288	; 0x80000
    6d04:	e1a0f000 	mov	pc, r0
    6d08:	e12fff1e 	bx	lr

00006d0c <performDABORTCrash>:
    6d0c:	e59f3004 	ldr	r3, [pc, #4]	; 6d18 <performDABORTCrash+0xc>
    6d10:	e5d33000 	ldrb	r3, [r3]
    6d14:	e12fff1e 	bx	lr
    6d18:	40008000 	.word	0x40008000

00006d1c <clearCrashInfo>:
    6d1c:	e92d4030 	push	{r4, r5, lr}
    6d20:	e59f504c 	ldr	r5, [pc, #76]	; 6d74 <clearCrashInfo+0x58>
    6d24:	e5d53009 	ldrb	r3, [r5, #9]
    6d28:	e5d54008 	ldrb	r4, [r5, #8]
    6d2c:	e5d5200a 	ldrb	r2, [r5, #10]
    6d30:	e1844403 	orr	r4, r4, r3, lsl #8
    6d34:	e5d5300b 	ldrb	r3, [r5, #11]
    6d38:	e1844802 	orr	r4, r4, r2, lsl #16
    6d3c:	e1844c03 	orr	r4, r4, r3, lsl #24
    6d40:	e1a00005 	mov	r0, r5
    6d44:	e3a01000 	mov	r1, #0	; 0x0
    6d48:	e3a02078 	mov	r2, #120	; 0x78
    6d4c:	eb00127f 	bl	b750 <memset>
    6d50:	e1a03c24 	lsr	r3, r4, #24
    6d54:	e1a02424 	lsr	r2, r4, #8
    6d58:	e1a01824 	lsr	r1, r4, #16
    6d5c:	e5c5300b 	strb	r3, [r5, #11]
    6d60:	e5c52009 	strb	r2, [r5, #9]
    6d64:	e5c5100a 	strb	r1, [r5, #10]
    6d68:	e5c54008 	strb	r4, [r5, #8]
    6d6c:	e3a00000 	mov	r0, #0	; 0x0
    6d70:	e8bd8030 	pop	{r4, r5, pc}
    6d74:	40000040 	.word	0x40000040

00006d78 <printCrashInfo>:
    6d78:	e92d4ff0 	push	{r4, r5, r6, r7, r8, r9, sl, fp, lr}
    6d7c:	e59fb3e4 	ldr	fp, [pc, #996]	; 7168 <printCrashInfo+0x3f0>
    6d80:	e5db1005 	ldrb	r1, [fp, #5]
    6d84:	e5db2004 	ldrb	r2, [fp, #4]
    6d88:	e5dbe006 	ldrb	lr, [fp, #6]
    6d8c:	e5db0009 	ldrb	r0, [fp, #9]
    6d90:	e5db3008 	ldrb	r3, [fp, #8]
    6d94:	e1822401 	orr	r2, r2, r1, lsl #8
    6d98:	e5db1007 	ldrb	r1, [fp, #7]
    6d9c:	e5dbc00a 	ldrb	ip, [fp, #10]
    6da0:	e182280e 	orr	r2, r2, lr, lsl #16
    6da4:	e1822c01 	orr	r2, r2, r1, lsl #24
    6da8:	e1833400 	orr	r3, r3, r0, lsl #8
    6dac:	e59f13b8 	ldr	r1, [pc, #952]	; 716c <printCrashInfo+0x3f4>
    6db0:	e5dbe00b 	ldrb	lr, [fp, #11]
    6db4:	e183380c 	orr	r3, r3, ip, lsl #16
    6db8:	e59f03b0 	ldr	r0, [pc, #944]	; 7170 <printCrashInfo+0x3f8>
    6dbc:	e59fc3b0 	ldr	ip, [pc, #944]	; 7174 <printCrashInfo+0x3fc>
    6dc0:	e1520001 	cmp	r2, r1
    6dc4:	01a01000 	moveq	r1, r0
    6dc8:	11a0100c 	movne	r1, ip
    6dcc:	e1833c0e 	orr	r3, r3, lr, lsl #24
    6dd0:	e24dd004 	sub	sp, sp, #4	; 0x4
    6dd4:	e59f039c 	ldr	r0, [pc, #924]	; 7178 <printCrashInfo+0x400>
    6dd8:	eb00010a 	bl	7208 <rprintf>
    6ddc:	e5db200d 	ldrb	r2, [fp, #13]
    6de0:	e5db300c 	ldrb	r3, [fp, #12]
    6de4:	e5db100e 	ldrb	r1, [fp, #14]
    6de8:	e1833402 	orr	r3, r3, r2, lsl #8
    6dec:	e5db200f 	ldrb	r2, [fp, #15]
    6df0:	e1833801 	orr	r3, r3, r1, lsl #16
    6df4:	e1931c02 	orrs	r1, r3, r2, lsl #24
    6df8:	059f137c 	ldreq	r1, [pc, #892]	; 717c <printCrashInfo+0x404>
    6dfc:	0a000007 	beq	6e20 <printCrashInfo+0xa8>
    6e00:	e3510001 	cmp	r1, #1	; 0x1
    6e04:	059f1374 	ldreq	r1, [pc, #884]	; 7180 <printCrashInfo+0x408>
    6e08:	0a000004 	beq	6e20 <printCrashInfo+0xa8>
    6e0c:	e59f2370 	ldr	r2, [pc, #880]	; 7184 <printCrashInfo+0x40c>
    6e10:	e59f3370 	ldr	r3, [pc, #880]	; 7188 <printCrashInfo+0x410>
    6e14:	e3510002 	cmp	r1, #2	; 0x2
    6e18:	01a01003 	moveq	r1, r3
    6e1c:	11a01002 	movne	r1, r2
    6e20:	e59f0364 	ldr	r0, [pc, #868]	; 718c <printCrashInfo+0x414>
    6e24:	eb0000f7 	bl	7208 <rprintf>
    6e28:	e5db0011 	ldrb	r0, [fp, #17]
    6e2c:	e5db3015 	ldrb	r3, [fp, #21]
    6e30:	e5db1010 	ldrb	r1, [fp, #16]
    6e34:	e5db2014 	ldrb	r2, [fp, #20]
    6e38:	e5dbc012 	ldrb	ip, [fp, #18]
    6e3c:	e5db4016 	ldrb	r4, [fp, #22]
    6e40:	e1811400 	orr	r1, r1, r0, lsl #8
    6e44:	e1822403 	orr	r2, r2, r3, lsl #8
    6e48:	e5db0017 	ldrb	r0, [fp, #23]
    6e4c:	e5db3013 	ldrb	r3, [fp, #19]
    6e50:	e181180c 	orr	r1, r1, ip, lsl #16
    6e54:	e1822804 	orr	r2, r2, r4, lsl #16
    6e58:	e1811c03 	orr	r1, r1, r3, lsl #24
    6e5c:	e1822c00 	orr	r2, r2, r0, lsl #24
    6e60:	e59f0328 	ldr	r0, [pc, #808]	; 7190 <printCrashInfo+0x418>
    6e64:	eb0000e7 	bl	7208 <rprintf>
    6e68:	e59f0324 	ldr	r0, [pc, #804]	; 7194 <printCrashInfo+0x41c>
    6e6c:	eb0000e5 	bl	7208 <rprintf>
    6e70:	e5db4019 	ldrb	r4, [fp, #25]
    6e74:	e5dbc021 	ldrb	ip, [fp, #33]
    6e78:	e5db001d 	ldrb	r0, [fp, #29]
    6e7c:	e5db1018 	ldrb	r1, [fp, #24]
    6e80:	e5db2020 	ldrb	r2, [fp, #32]
    6e84:	e5db301c 	ldrb	r3, [fp, #28]
    6e88:	e5db501a 	ldrb	r5, [fp, #26]
    6e8c:	e5db6022 	ldrb	r6, [fp, #34]
    6e90:	e5db701e 	ldrb	r7, [fp, #30]
    6e94:	e1811404 	orr	r1, r1, r4, lsl #8
    6e98:	e182240c 	orr	r2, r2, ip, lsl #8
    6e9c:	e5db401f 	ldrb	r4, [fp, #31]
    6ea0:	e5dbc023 	ldrb	ip, [fp, #35]
    6ea4:	e1833400 	orr	r3, r3, r0, lsl #8
    6ea8:	e5db001b 	ldrb	r0, [fp, #27]
    6eac:	e1811805 	orr	r1, r1, r5, lsl #16
    6eb0:	e1822806 	orr	r2, r2, r6, lsl #16
    6eb4:	e1833807 	orr	r3, r3, r7, lsl #16
    6eb8:	e1811c00 	orr	r1, r1, r0, lsl #24
    6ebc:	e1822c0c 	orr	r2, r2, ip, lsl #24
    6ec0:	e1833c04 	orr	r3, r3, r4, lsl #24
    6ec4:	e59f02cc 	ldr	r0, [pc, #716]	; 7198 <printCrashInfo+0x420>
    6ec8:	eb0000ce 	bl	7208 <rprintf>
    6ecc:	e5db6025 	ldrb	r6, [fp, #37]
    6ed0:	e5db5029 	ldrb	r5, [fp, #41]
    6ed4:	e5db402d 	ldrb	r4, [fp, #45]
    6ed8:	e5db0031 	ldrb	r0, [fp, #49]
    6edc:	e5db1024 	ldrb	r1, [fp, #36]
    6ee0:	e5db2028 	ldrb	r2, [fp, #40]
    6ee4:	e5db302c 	ldrb	r3, [fp, #44]
    6ee8:	e5dbc030 	ldrb	ip, [fp, #48]
    6eec:	e5db7026 	ldrb	r7, [fp, #38]
    6ef0:	e5db802a 	ldrb	r8, [fp, #42]
    6ef4:	e5dba02e 	ldrb	sl, [fp, #46]
    6ef8:	e5db9032 	ldrb	r9, [fp, #50]
    6efc:	e1811406 	orr	r1, r1, r6, lsl #8
    6f00:	e1822405 	orr	r2, r2, r5, lsl #8
    6f04:	e5db602f 	ldrb	r6, [fp, #47]
    6f08:	e5db502b 	ldrb	r5, [fp, #43]
    6f0c:	e1833404 	orr	r3, r3, r4, lsl #8
    6f10:	e18cc400 	orr	ip, ip, r0, lsl #8
    6f14:	e5db4027 	ldrb	r4, [fp, #39]
    6f18:	e5db0033 	ldrb	r0, [fp, #51]
    6f1c:	e1811807 	orr	r1, r1, r7, lsl #16
    6f20:	e1822808 	orr	r2, r2, r8, lsl #16
    6f24:	e183380a 	orr	r3, r3, sl, lsl #16
    6f28:	e18cc809 	orr	ip, ip, r9, lsl #16
    6f2c:	e18ccc00 	orr	ip, ip, r0, lsl #24
    6f30:	e1811c04 	orr	r1, r1, r4, lsl #24
    6f34:	e1822c05 	orr	r2, r2, r5, lsl #24
    6f38:	e1833c06 	orr	r3, r3, r6, lsl #24
    6f3c:	e59f0258 	ldr	r0, [pc, #600]	; 719c <printCrashInfo+0x424>
    6f40:	e58dc000 	str	ip, [sp]
    6f44:	eb0000af 	bl	7208 <rprintf>
    6f48:	e5db6035 	ldrb	r6, [fp, #53]
    6f4c:	e5db5039 	ldrb	r5, [fp, #57]
    6f50:	e5db403d 	ldrb	r4, [fp, #61]
    6f54:	e5db0041 	ldrb	r0, [fp, #65]
    6f58:	e5db1034 	ldrb	r1, [fp, #52]
    6f5c:	e5db2038 	ldrb	r2, [fp, #56]
    6f60:	e5db303c 	ldrb	r3, [fp, #60]
    6f64:	e5dbc040 	ldrb	ip, [fp, #64]
    6f68:	e5db7036 	ldrb	r7, [fp, #54]
    6f6c:	e5db803a 	ldrb	r8, [fp, #58]
    6f70:	e5dba03e 	ldrb	sl, [fp, #62]
    6f74:	e5db9042 	ldrb	r9, [fp, #66]
    6f78:	e1811406 	orr	r1, r1, r6, lsl #8
    6f7c:	e1822405 	orr	r2, r2, r5, lsl #8
    6f80:	e5db603f 	ldrb	r6, [fp, #63]
    6f84:	e5db503b 	ldrb	r5, [fp, #59]
    6f88:	e1833404 	orr	r3, r3, r4, lsl #8
    6f8c:	e18cc400 	orr	ip, ip, r0, lsl #8
    6f90:	e5db4037 	ldrb	r4, [fp, #55]
    6f94:	e5db0043 	ldrb	r0, [fp, #67]
    6f98:	e1811807 	orr	r1, r1, r7, lsl #16
    6f9c:	e1822808 	orr	r2, r2, r8, lsl #16
    6fa0:	e183380a 	orr	r3, r3, sl, lsl #16
    6fa4:	e18cc809 	orr	ip, ip, r9, lsl #16
    6fa8:	e18ccc00 	orr	ip, ip, r0, lsl #24
    6fac:	e1811c04 	orr	r1, r1, r4, lsl #24
    6fb0:	e1822c05 	orr	r2, r2, r5, lsl #24
    6fb4:	e1833c06 	orr	r3, r3, r6, lsl #24
    6fb8:	e59f01e0 	ldr	r0, [pc, #480]	; 71a0 <printCrashInfo+0x428>
    6fbc:	e58dc000 	str	ip, [sp]
    6fc0:	eb000090 	bl	7208 <rprintf>
    6fc4:	e5db6045 	ldrb	r6, [fp, #69]
    6fc8:	e5db5049 	ldrb	r5, [fp, #73]
    6fcc:	e5db404d 	ldrb	r4, [fp, #77]
    6fd0:	e5db0051 	ldrb	r0, [fp, #81]
    6fd4:	e5db1044 	ldrb	r1, [fp, #68]
    6fd8:	e5db2048 	ldrb	r2, [fp, #72]
    6fdc:	e5db304c 	ldrb	r3, [fp, #76]
    6fe0:	e5dbc050 	ldrb	ip, [fp, #80]
    6fe4:	e5db7046 	ldrb	r7, [fp, #70]
    6fe8:	e5db804a 	ldrb	r8, [fp, #74]
    6fec:	e5dba04e 	ldrb	sl, [fp, #78]
    6ff0:	e5db9052 	ldrb	r9, [fp, #82]
    6ff4:	e1811406 	orr	r1, r1, r6, lsl #8
    6ff8:	e1822405 	orr	r2, r2, r5, lsl #8
    6ffc:	e5db6047 	ldrb	r6, [fp, #71]
    7000:	e5db5053 	ldrb	r5, [fp, #83]
    7004:	e1833404 	orr	r3, r3, r4, lsl #8
    7008:	e18cc400 	orr	ip, ip, r0, lsl #8
    700c:	e5db404f 	ldrb	r4, [fp, #79]
    7010:	e5db004b 	ldrb	r0, [fp, #75]
    7014:	e1811807 	orr	r1, r1, r7, lsl #16
    7018:	e1822808 	orr	r2, r2, r8, lsl #16
    701c:	e183380a 	orr	r3, r3, sl, lsl #16
    7020:	e18cc809 	orr	ip, ip, r9, lsl #16
    7024:	e18ccc05 	orr	ip, ip, r5, lsl #24
    7028:	e1822c00 	orr	r2, r2, r0, lsl #24
    702c:	e1833c04 	orr	r3, r3, r4, lsl #24
    7030:	e1811c06 	orr	r1, r1, r6, lsl #24
    7034:	e59f0168 	ldr	r0, [pc, #360]	; 71a4 <printCrashInfo+0x42c>
    7038:	e58dc000 	str	ip, [sp]
    703c:	eb000071 	bl	7208 <rprintf>
    7040:	e5db3055 	ldrb	r3, [fp, #85]
    7044:	e5db1054 	ldrb	r1, [fp, #84]
    7048:	e5db2056 	ldrb	r2, [fp, #86]
    704c:	e1811403 	orr	r1, r1, r3, lsl #8
    7050:	e5db3057 	ldrb	r3, [fp, #87]
    7054:	e1811802 	orr	r1, r1, r2, lsl #16
    7058:	e1811c03 	orr	r1, r1, r3, lsl #24
    705c:	e59f0144 	ldr	r0, [pc, #324]	; 71a8 <printCrashInfo+0x430>
    7060:	eb000068 	bl	7208 <rprintf>
    7064:	e5db6059 	ldrb	r6, [fp, #89]
    7068:	e5db505d 	ldrb	r5, [fp, #93]
    706c:	e5db4061 	ldrb	r4, [fp, #97]
    7070:	e5db0065 	ldrb	r0, [fp, #101]
    7074:	e5db1058 	ldrb	r1, [fp, #88]
    7078:	e5db205c 	ldrb	r2, [fp, #92]
    707c:	e5db3060 	ldrb	r3, [fp, #96]
    7080:	e5dbc064 	ldrb	ip, [fp, #100]
    7084:	e5db705a 	ldrb	r7, [fp, #90]
    7088:	e5db805e 	ldrb	r8, [fp, #94]
    708c:	e5dba062 	ldrb	sl, [fp, #98]
    7090:	e5db9066 	ldrb	r9, [fp, #102]
    7094:	e1811406 	orr	r1, r1, r6, lsl #8
    7098:	e1822405 	orr	r2, r2, r5, lsl #8
    709c:	e5db6063 	ldrb	r6, [fp, #99]
    70a0:	e5db505f 	ldrb	r5, [fp, #95]
    70a4:	e1833404 	orr	r3, r3, r4, lsl #8
    70a8:	e18cc400 	orr	ip, ip, r0, lsl #8
    70ac:	e5db405b 	ldrb	r4, [fp, #91]
    70b0:	e5db0067 	ldrb	r0, [fp, #103]
    70b4:	e1811807 	orr	r1, r1, r7, lsl #16
    70b8:	e1822808 	orr	r2, r2, r8, lsl #16
    70bc:	e183380a 	orr	r3, r3, sl, lsl #16
    70c0:	e18cc809 	orr	ip, ip, r9, lsl #16
    70c4:	e18ccc00 	orr	ip, ip, r0, lsl #24
    70c8:	e1811c04 	orr	r1, r1, r4, lsl #24
    70cc:	e1822c05 	orr	r2, r2, r5, lsl #24
    70d0:	e1833c06 	orr	r3, r3, r6, lsl #24
    70d4:	e59f00d0 	ldr	r0, [pc, #208]	; 71ac <printCrashInfo+0x434>
    70d8:	e58dc000 	str	ip, [sp]
    70dc:	eb000049 	bl	7208 <rprintf>
    70e0:	e5db6069 	ldrb	r6, [fp, #105]
    70e4:	e5db506d 	ldrb	r5, [fp, #109]
    70e8:	e5db4071 	ldrb	r4, [fp, #113]
    70ec:	e5db0075 	ldrb	r0, [fp, #117]
    70f0:	e5db1068 	ldrb	r1, [fp, #104]
    70f4:	e5db206c 	ldrb	r2, [fp, #108]
    70f8:	e5db3070 	ldrb	r3, [fp, #112]
    70fc:	e5dbc074 	ldrb	ip, [fp, #116]
    7100:	e5db706a 	ldrb	r7, [fp, #106]
    7104:	e5db806e 	ldrb	r8, [fp, #110]
    7108:	e5dba072 	ldrb	sl, [fp, #114]
    710c:	e5db9076 	ldrb	r9, [fp, #118]
    7110:	e1811406 	orr	r1, r1, r6, lsl #8
    7114:	e1822405 	orr	r2, r2, r5, lsl #8
    7118:	e5db6073 	ldrb	r6, [fp, #115]
    711c:	e5db506f 	ldrb	r5, [fp, #111]
    7120:	e1833404 	orr	r3, r3, r4, lsl #8
    7124:	e18cc400 	orr	ip, ip, r0, lsl #8
    7128:	e5db406b 	ldrb	r4, [fp, #107]
    712c:	e5db0077 	ldrb	r0, [fp, #119]
    7130:	e1811807 	orr	r1, r1, r7, lsl #16
    7134:	e1822808 	orr	r2, r2, r8, lsl #16
    7138:	e183380a 	orr	r3, r3, sl, lsl #16
    713c:	e18cc809 	orr	ip, ip, r9, lsl #16
    7140:	e18ccc00 	orr	ip, ip, r0, lsl #24
    7144:	e1811c04 	orr	r1, r1, r4, lsl #24
    7148:	e1822c05 	orr	r2, r2, r5, lsl #24
    714c:	e1833c06 	orr	r3, r3, r6, lsl #24
    7150:	e59f0058 	ldr	r0, [pc, #88]	; 71b0 <printCrashInfo+0x438>
    7154:	e58dc000 	str	ip, [sp]
    7158:	eb00002a 	bl	7208 <rprintf>
    715c:	e3a00000 	mov	r0, #0	; 0x0
    7160:	e28dd004 	add	sp, sp, #4	; 0x4
    7164:	e8bd8ff0 	pop	{r4, r5, r6, r7, r8, r9, sl, fp, pc}
    7168:	40000040 	.word	0x40000040
    716c:	deadc0de 	.word	0xdeadc0de
    7170:	00010299 	.word	0x00010299
    7174:	00010291 	.word	0x00010291
    7178:	000102a0 	.word	0x000102a0
    717c:	000102cc 	.word	0x000102cc
    7180:	000102e2 	.word	0x000102e2
    7184:	000102f1 	.word	0x000102f1
    7188:	000102f9 	.word	0x000102f9
    718c:	00010304 	.word	0x00010304
    7190:	00010314 	.word	0x00010314
    7194:	00010334 	.word	0x00010334
    7198:	0001037a 	.word	0x0001037a
    719c:	0001039d 	.word	0x0001039d
    71a0:	000103cb 	.word	0x000103cb
    71a4:	000103f9 	.word	0x000103f9
    71a8:	00010427 	.word	0x00010427
    71ac:	00010434 	.word	0x00010434
    71b0:	0001046c 	.word	0x0001046c

000071b4 <fiqISR>:
    71b4:	e25ef004 	subs	pc, lr, #4	; 0x4

000071b8 <rprintf_devopen>:
    71b8:	e59f3004 	ldr	r3, [pc, #4]	; 71c4 <rprintf_devopen+0xc>
    71bc:	e5830000 	str	r0, [r3]
    71c0:	e12fff1e 	bx	lr
    71c4:	40000948 	.word	0x40000948

000071c8 <rprintf_putCharSource>:
    71c8:	e92d4010 	push	{r4, lr}
    71cc:	e20040ff 	and	r4, r0, #255	; 0xff
    71d0:	e354000a 	cmp	r4, #10	; 0xa
    71d4:	03a0000d 	moveq	r0, #13	; 0xd
    71d8:	059f1020 	ldreq	r1, [pc, #32]	; 7200 <rprintf_putCharSource+0x38>
    71dc:	059f3020 	ldreq	r3, [pc, #32]	; 7204 <rprintf_putCharSource+0x3c>
    71e0:	01a0e00f 	moveq	lr, pc
    71e4:	0593f000 	ldreq	pc, [r3]
    71e8:	e1a00004 	mov	r0, r4
    71ec:	e59f100c 	ldr	r1, [pc, #12]	; 7200 <rprintf_putCharSource+0x38>
    71f0:	e59f300c 	ldr	r3, [pc, #12]	; 7204 <rprintf_putCharSource+0x3c>
    71f4:	e1a0e00f 	mov	lr, pc
    71f8:	e593f000 	ldr	pc, [r3]
    71fc:	e8bd8010 	pop	{r4, pc}
    7200:	0001869f 	.word	0x0001869f
    7204:	40000948 	.word	0x40000948

00007208 <rprintf>:
    7208:	e92d000f 	push	{r0, r1, r2, r3}
    720c:	e92d4ff0 	push	{r4, r5, r6, r7, r8, r9, sl, fp, lr}
    7210:	e24dd00c 	sub	sp, sp, #12	; 0xc
    7214:	e59da030 	ldr	sl, [sp, #48]
    7218:	e28d5034 	add	r5, sp, #52	; 0x34
    721c:	e28db00b 	add	fp, sp, #11	; 0xb
    7220:	ea000002 	b	7230 <rprintf+0x28>
    7224:	e3500000 	cmp	r0, #0	; 0x0
    7228:	0a000077 	beq	740c <rprintf+0x204>
    722c:	ebffffe5 	bl	71c8 <rprintf_putCharSource>
    7230:	e4da0001 	ldrb	r0, [sl], #1
    7234:	e3500025 	cmp	r0, #37	; 0x25
    7238:	1afffff9 	bne	7224 <rprintf+0x1c>
    723c:	e4da0001 	ldrb	r0, [sl], #1
    7240:	e3500020 	cmp	r0, #32	; 0x20
    7244:	13500030 	cmpne	r0, #48	; 0x30
    7248:	13a03000 	movne	r3, #0	; 0x0
    724c:	03a03001 	moveq	r3, #1	; 0x1
    7250:	11a09003 	movne	r9, r3
    7254:	11a06009 	movne	r6, r9
    7258:	1a000008 	bne	7280 <rprintf+0x78>
    725c:	e4da2001 	ldrb	r2, [sl], #1
    7260:	e2423030 	sub	r3, r2, #48	; 0x30
    7264:	e20360ff 	and	r6, r3, #255	; 0xff
    7268:	e3560009 	cmp	r6, #9	; 0x9
    726c:	91a09000 	movls	r9, r0
    7270:	94da0001 	ldrbls	r0, [sl], #1
    7274:	81a09000 	movhi	r9, r0
    7278:	83a06000 	movhi	r6, #0	; 0x0
    727c:	81a00002 	movhi	r0, r2
    7280:	e350004c 	cmp	r0, #76	; 0x4c
    7284:	1350006c 	cmpne	r0, #108	; 0x6c
    7288:	04da0001 	ldrbeq	r0, [sl], #1
    728c:	e3500058 	cmp	r0, #88	; 0x58
    7290:	0a00001b 	beq	7304 <rprintf+0xfc>
    7294:	8a00000b 	bhi	72c8 <rprintf+0xc0>
    7298:	e3500049 	cmp	r0, #73	; 0x49
    729c:	0a000027 	beq	7340 <rprintf+0x138>
    72a0:	8a000003 	bhi	72b4 <rprintf+0xac>
    72a4:	e3500043 	cmp	r0, #67	; 0x43
    72a8:	0a000017 	beq	730c <rprintf+0x104>
    72ac:	e3500044 	cmp	r0, #68	; 0x44
    72b0:	ea00000a 	b	72e0 <rprintf+0xd8>
    72b4:	e3500053 	cmp	r0, #83	; 0x53
    72b8:	0a000016 	beq	7318 <rprintf+0x110>
    72bc:	e3500055 	cmp	r0, #85	; 0x55
    72c0:	1affffd9 	bne	722c <rprintf+0x24>
    72c4:	ea00004b 	b	73f8 <rprintf+0x1f0>
    72c8:	e3500069 	cmp	r0, #105	; 0x69
    72cc:	0a00001b 	beq	7340 <rprintf+0x138>
    72d0:	8a000004 	bhi	72e8 <rprintf+0xe0>
    72d4:	e3500063 	cmp	r0, #99	; 0x63
    72d8:	0a00000b 	beq	730c <rprintf+0x104>
    72dc:	e3500064 	cmp	r0, #100	; 0x64
    72e0:	1affffd1 	bne	722c <rprintf+0x24>
    72e4:	ea000015 	b	7340 <rprintf+0x138>
    72e8:	e3500075 	cmp	r0, #117	; 0x75
    72ec:	0a000041 	beq	73f8 <rprintf+0x1f0>
    72f0:	e3500078 	cmp	r0, #120	; 0x78
    72f4:	0a000002 	beq	7304 <rprintf+0xfc>
    72f8:	e3500073 	cmp	r0, #115	; 0x73
    72fc:	1affffca 	bne	722c <rprintf+0x24>
    7300:	ea000004 	b	7318 <rprintf+0x110>
    7304:	e3a08010 	mov	r8, #16	; 0x10
    7308:	ea00003b 	b	73fc <rprintf+0x1f4>
    730c:	e5d50000 	ldrb	r0, [r5]
    7310:	e2855004 	add	r5, r5, #4	; 0x4
    7314:	eaffffc4 	b	722c <rprintf+0x24>
    7318:	e5956000 	ldr	r6, [r5]
    731c:	e3a04000 	mov	r4, #0	; 0x0
    7320:	e2855004 	add	r5, r5, #4	; 0x4
    7324:	ea000000 	b	732c <rprintf+0x124>
    7328:	ebffffa6 	bl	71c8 <rprintf_putCharSource>
    732c:	e7d63004 	ldrb	r3, [r6, r4]
    7330:	e2530000 	subs	r0, r3, #0	; 0x0
    7334:	e2844001 	add	r4, r4, #1	; 0x1
    7338:	1afffffa 	bne	7328 <rprintf+0x120>
    733c:	eaffffbb 	b	7230 <rprintf+0x28>
    7340:	e5954000 	ldr	r4, [r5]
    7344:	e2853004 	add	r3, r5, #4	; 0x4
    7348:	e3540000 	cmp	r4, #0	; 0x0
    734c:	e1a05003 	mov	r5, r3
    7350:	b3a0002d 	movlt	r0, #45	; 0x2d
    7354:	b2644000 	rsblt	r4, r4, #0	; 0x0
    7358:	bbffff9a 	bllt	71c8 <rprintf_putCharSource>
    735c:	e3a0800a 	mov	r8, #10	; 0xa
    7360:	e3a03000 	mov	r3, #0	; 0x0
    7364:	e5cb3000 	strb	r3, [fp]
    7368:	e1a0700b 	mov	r7, fp
    736c:	e1a00004 	mov	r0, r4
    7370:	e1a01008 	mov	r1, r8
    7374:	eb000bb9 	bl	a260 <__umodsi3>
    7378:	e2800030 	add	r0, r0, #48	; 0x30
    737c:	e20030ff 	and	r3, r0, #255	; 0xff
    7380:	e3530039 	cmp	r3, #57	; 0x39
    7384:	e2832007 	add	r2, r3, #7	; 0x7
    7388:	820230ff 	andhi	r3, r2, #255	; 0xff
    738c:	e1a00004 	mov	r0, r4
    7390:	e5673001 	strb	r3, [r7, #-1]!
    7394:	e1a01008 	mov	r1, r8
    7398:	eb000b1c 	bl	a010 <__aeabi_uidiv>
    739c:	e3560000 	cmp	r6, #0	; 0x0
    73a0:	e2463001 	sub	r3, r6, #1	; 0x1
    73a4:	120360ff 	andne	r6, r3, #255	; 0xff
    73a8:	e3500000 	cmp	r0, #0	; 0x0
    73ac:	e1a04000 	mov	r4, r0
    73b0:	1affffed 	bne	736c <rprintf+0x164>
    73b4:	e1a02006 	mov	r2, r6
    73b8:	ea000001 	b	73c4 <rprintf+0x1bc>
    73bc:	e7c79000 	strb	r9, [r7, r0]
    73c0:	e20360ff 	and	r6, r3, #255	; 0xff
    73c4:	e3560000 	cmp	r6, #0	; 0x0
    73c8:	e2463001 	sub	r3, r6, #1	; 0x1
    73cc:	e2400001 	sub	r0, r0, #1	; 0x1
    73d0:	1afffff9 	bne	73bc <rprintf+0x1b4>
    73d4:	e0627007 	rsb	r7, r2, r7
    73d8:	e1a04006 	mov	r4, r6
    73dc:	ea000000 	b	73e4 <rprintf+0x1dc>
    73e0:	ebffff78 	bl	71c8 <rprintf_putCharSource>
    73e4:	e7d73004 	ldrb	r3, [r7, r4]
    73e8:	e2530000 	subs	r0, r3, #0	; 0x0
    73ec:	e2844001 	add	r4, r4, #1	; 0x1
    73f0:	1afffffa 	bne	73e0 <rprintf+0x1d8>
    73f4:	eaffff8d 	b	7230 <rprintf+0x28>
    73f8:	e3a0800a 	mov	r8, #10	; 0xa
    73fc:	e2853004 	add	r3, r5, #4	; 0x4
    7400:	e5954000 	ldr	r4, [r5]
    7404:	e1a05003 	mov	r5, r3
    7408:	eaffffd4 	b	7360 <rprintf+0x158>
    740c:	e28dd00c 	add	sp, sp, #12	; 0xc
    7410:	e8bd4ff0 	pop	{r4, r5, r6, r7, r8, r9, sl, fp, lr}
    7414:	e28dd010 	add	sp, sp, #16	; 0x10
    7418:	e12fff1e 	bx	lr

0000741c <_close_r>:
    741c:	e3a00000 	mov	r0, #0	; 0x0
    7420:	e12fff1e 	bx	lr

00007424 <_lseek_r>:
    7424:	e3a00000 	mov	r0, #0	; 0x0
    7428:	e12fff1e 	bx	lr

0000742c <_fstat_r>:
    742c:	e3a03a02 	mov	r3, #8192	; 0x2000
    7430:	e5823004 	str	r3, [r2, #4]
    7434:	e3a00000 	mov	r0, #0	; 0x0
    7438:	e12fff1e 	bx	lr

0000743c <isatty>:
    743c:	e3a00001 	mov	r0, #1	; 0x1
    7440:	e12fff1e 	bx	lr

00007444 <_sbrk_r>:
    7444:	e59f2040 	ldr	r2, [pc, #64]	; 748c <_sbrk_r+0x48>
    7448:	e5923000 	ldr	r3, [r2]
    744c:	e3530000 	cmp	r3, #0	; 0x0
    7450:	059f3038 	ldreq	r3, [pc, #56]	; 7490 <_sbrk_r+0x4c>
    7454:	05823000 	streq	r3, [r2]
    7458:	e59f3030 	ldr	r3, [pc, #48]	; 7490 <_sbrk_r+0x4c>
    745c:	e15d0003 	cmp	sp, r3
    7460:	e59f3024 	ldr	r3, [pc, #36]	; 748c <_sbrk_r+0x48>
    7464:	e5930000 	ldr	r0, [r3]
    7468:	959f3024 	ldrls	r3, [pc, #36]	; 7494 <_sbrk_r+0x50>
    746c:	e1a0200d 	mov	r2, sp
    7470:	95932000 	ldrls	r2, [r3]
    7474:	e0801001 	add	r1, r0, r1
    7478:	e1510002 	cmp	r1, r2
    747c:	959f3008 	ldrls	r3, [pc, #8]	; 748c <_sbrk_r+0x48>
    7480:	83e00000 	mvnhi	r0, #0	; 0x0
    7484:	95831000 	strls	r1, [r3]
    7488:	e12fff1e 	bx	lr
    748c:	4000094c 	.word	0x4000094c
    7490:	40000b18 	.word	0x40000b18
    7494:	400000e8 	.word	0x400000e8

00007498 <_write_r>:
    7498:	e92d40f0 	push	{r4, r5, r6, r7, lr}
    749c:	e1a06003 	mov	r6, r3
    74a0:	e1a07002 	mov	r7, r2
    74a4:	e1a05003 	mov	r5, r3
    74a8:	e3a04000 	mov	r4, #0	; 0x0
    74ac:	ea000002 	b	74bc <_write_r+0x24>
    74b0:	e7d70004 	ldrb	r0, [r7, r4]
    74b4:	ebfffa39 	bl	5da0 <uart0PutChar>
    74b8:	e2844001 	add	r4, r4, #1	; 0x1
    74bc:	e3e01000 	mvn	r1, #0	; 0x0
    74c0:	e3550000 	cmp	r5, #0	; 0x0
    74c4:	e0855001 	add	r5, r5, r1
    74c8:	1afffff8 	bne	74b0 <_write_r+0x18>
    74cc:	e1a00006 	mov	r0, r6
    74d0:	e8bd80f0 	pop	{r4, r5, r6, r7, pc}

000074d4 <_read_r>:
    74d4:	e92d4030 	push	{r4, r5, lr}
    74d8:	e24dd004 	sub	sp, sp, #4	; 0x4
    74dc:	e1a04002 	mov	r4, r2
    74e0:	e28d5003 	add	r5, sp, #3	; 0x3
    74e4:	e1a00005 	mov	r0, r5
    74e8:	e3e01000 	mvn	r1, #0	; 0x0
    74ec:	ebfffa1f 	bl	5d70 <uart0GetChar>
    74f0:	e3500000 	cmp	r0, #0	; 0x0
    74f4:	0afffffa 	beq	74e4 <_read_r+0x10>
    74f8:	e5dd3003 	ldrb	r3, [sp, #3]
    74fc:	e3530000 	cmp	r3, #0	; 0x0
    7500:	0afffff7 	beq	74e4 <_read_r+0x10>
    7504:	e5c43000 	strb	r3, [r4]
    7508:	e3a00001 	mov	r0, #1	; 0x1
    750c:	e28dd004 	add	sp, sp, #4	; 0x4
    7510:	e8bd8030 	pop	{r4, r5, pc}

00007514 <_kill_r>:
    7514:	e52de004 	push	{lr}		; (str lr, [sp, #-4]!)
    7518:	e59f0008 	ldr	r0, [pc, #8]	; 7528 <_kill_r+0x14>
    751c:	ebffff39 	bl	7208 <rprintf>
    7520:	e3a00000 	mov	r0, #0	; 0x0
    7524:	e49df004 	pop	{pc}		; (ldr pc, [sp], #4)
    7528:	000104a5 	.word	0x000104a5

0000752c <_getpid_r>:
    752c:	e52de004 	push	{lr}		; (str lr, [sp, #-4]!)
    7530:	e59f0008 	ldr	r0, [pc, #8]	; 7540 <_getpid_r+0x14>
    7534:	ebffff33 	bl	7208 <rprintf>
    7538:	e3a00000 	mov	r0, #0	; 0x0
    753c:	e49df004 	pop	{pc}		; (ldr pc, [sp], #4)
    7540:	000104ae 	.word	0x000104ae

00007544 <watchdog_Reset>:
    7544:	e3a0320e 	mov	r3, #-536870912	; 0xe0000000
    7548:	e3a020aa 	mov	r2, #170	; 0xaa
    754c:	e5832008 	str	r2, [r3, #8]
    7550:	e3a02055 	mov	r2, #85	; 0x55
    7554:	e5832008 	str	r2, [r3, #8]
    7558:	e12fff1e 	bx	lr

0000755c <watchdog_Feed>:
    755c:	e3a0320e 	mov	r3, #-536870912	; 0xe0000000
    7560:	e3a020aa 	mov	r2, #170	; 0xaa
    7564:	e5832008 	str	r2, [r3, #8]
    7568:	e3a02055 	mov	r2, #85	; 0x55
    756c:	e5832008 	str	r2, [r3, #8]
    7570:	e12fff1e 	bx	lr

00007574 <watchdog_Start>:
    7574:	e3a0220e 	mov	r2, #-536870912	; 0xe0000000
    7578:	e3e03000 	mvn	r3, #0	; 0x0
    757c:	e5823004 	str	r3, [r2, #4]
    7580:	e2833002 	add	r3, r3, #2	; 0x2
    7584:	e5823000 	str	r3, [r2]
    7588:	e28330a9 	add	r3, r3, #169	; 0xa9
    758c:	e5823008 	str	r3, [r2, #8]
    7590:	e3a03055 	mov	r3, #85	; 0x55
    7594:	e5823008 	str	r3, [r2, #8]
    7598:	e12fff1e 	bx	lr

0000759c <watchdog_Stop>:
    759c:	e3a0220e 	mov	r2, #-536870912	; 0xe0000000
    75a0:	e3a03000 	mov	r3, #0	; 0x0
    75a4:	e5823000 	str	r3, [r2]
    75a8:	e28330aa 	add	r3, r3, #170	; 0xaa
    75ac:	e5823008 	str	r3, [r2, #8]
    75b0:	e3a03055 	mov	r3, #85	; 0x55
    75b4:	e5823008 	str	r3, [r2, #8]
    75b8:	e12fff1e 	bx	lr

000075bc <watchdogDelayUs>:
    75bc:	e3a0300c 	mov	r3, #12	; 0xc
    75c0:	e0010093 	mul	r1, r3, r0
    75c4:	e3a0220e 	mov	r2, #-536870912	; 0xe0000000
    75c8:	e3e03000 	mvn	r3, #0	; 0x0
    75cc:	e5823004 	str	r3, [r2, #4]
    75d0:	e2833002 	add	r3, r3, #2	; 0x2
    75d4:	e5823000 	str	r3, [r2]
    75d8:	e28330a9 	add	r3, r3, #169	; 0xa9
    75dc:	e5823008 	str	r3, [r2, #8]
    75e0:	e3a03055 	mov	r3, #85	; 0x55
    75e4:	e5823008 	str	r3, [r2, #8]
    75e8:	e1e01001 	mvn	r1, r1
    75ec:	e592300c 	ldr	r3, [r2, #12]
    75f0:	e1530001 	cmp	r3, r1
    75f4:	e3a0020e 	mov	r0, #-536870912	; 0xe0000000
    75f8:	8afffffb 	bhi	75ec <watchdogDelayUs+0x30>
    75fc:	e3a03000 	mov	r3, #0	; 0x0
    7600:	e5803000 	str	r3, [r0]
    7604:	e28330aa 	add	r3, r3, #170	; 0xaa
    7608:	e5803008 	str	r3, [r0, #8]
    760c:	e3a03055 	mov	r3, #85	; 0x55
    7610:	e5803008 	str	r3, [r0, #8]
    7614:	e12fff1e 	bx	lr

00007618 <retGlobals>:
    7618:	e20000ff 	and	r0, r0, #255	; 0xff
    761c:	e3500053 	cmp	r0, #83	; 0x53
    7620:	1a00000c 	bne	7658 <retGlobals+0x40>
    7624:	e59f1068 	ldr	r1, [pc, #104]	; 7694 <retGlobals+0x7c>
    7628:	e59f3068 	ldr	r3, [pc, #104]	; 7698 <retGlobals+0x80>
    762c:	e5912000 	ldr	r2, [r1]
    7630:	e5933000 	ldr	r3, [r3]
    7634:	e1520003 	cmp	r2, r3
    7638:	b2823001 	addlt	r3, r2, #1	; 0x1
    763c:	a3a03000 	movge	r3, #0	; 0x0
    7640:	e5813000 	str	r3, [r1]
    7644:	e59f3048 	ldr	r3, [pc, #72]	; 7694 <retGlobals+0x7c>
    7648:	e5932000 	ldr	r2, [r3]
    764c:	e59f3048 	ldr	r3, [pc, #72]	; 769c <retGlobals+0x84>
    7650:	e7930102 	ldr	r0, [r3, r2, lsl #2]
    7654:	e12fff1e 	bx	lr
    7658:	e3500050 	cmp	r0, #80	; 0x50
    765c:	159f003c 	ldrne	r0, [pc, #60]	; 76a0 <retGlobals+0x88>
    7660:	112fff1e 	bxne	lr
    7664:	e59f2028 	ldr	r2, [pc, #40]	; 7694 <retGlobals+0x7c>
    7668:	e5923000 	ldr	r3, [r2]
    766c:	e3530000 	cmp	r3, #0	; 0x0
    7670:	d59f3020 	ldrle	r3, [pc, #32]	; 7698 <retGlobals+0x80>
    7674:	d5933000 	ldrle	r3, [r3]
    7678:	c2433001 	subgt	r3, r3, #1	; 0x1
    767c:	e5823000 	str	r3, [r2]
    7680:	e59f300c 	ldr	r3, [pc, #12]	; 7694 <retGlobals+0x7c>
    7684:	e5932000 	ldr	r2, [r3]
    7688:	e59f300c 	ldr	r3, [pc, #12]	; 769c <retGlobals+0x84>
    768c:	e7930102 	ldr	r0, [r3, r2, lsl #2]
    7690:	e12fff1e 	bx	lr
    7694:	40000a98 	.word	0x40000a98
    7698:	40000a94 	.word	0x40000a94
    769c:	40000a9c 	.word	0x40000a9c
    76a0:	000104b9 	.word	0x000104b9

000076a4 <getMP3Names>:
    76a4:	e92d4ff0 	push	{r4, r5, r6, r7, r8, r9, sl, fp, lr}
    76a8:	e24ddf91 	sub	sp, sp, #580	; 0x244
    76ac:	e28d9f89 	add	r9, sp, #548	; 0x224
    76b0:	e59fa0c8 	ldr	sl, [pc, #200]	; 7780 <getMP3Names+0xdc>
    76b4:	e3a05000 	mov	r5, #0	; 0x0
    76b8:	e28dbc02 	add	fp, sp, #512	; 0x200
    76bc:	e2898009 	add	r8, r9, #9	; 0x9
    76c0:	e3a06000 	mov	r6, #0	; 0x0
    76c4:	e3a03c02 	mov	r3, #512	; 0x200
    76c8:	e1a01009 	mov	r1, r9
    76cc:	e08d2006 	add	r2, sp, r6
    76d0:	e1a0000b 	mov	r0, fp
    76d4:	e58d3240 	str	r3, [sp, #576]
    76d8:	e58d223c 	str	r2, [sp, #572]
    76dc:	ebfff4a7 	bl	4980 <f_readdir>
    76e0:	e1a03000 	mov	r3, r0
    76e4:	e21370ff 	ands	r7, r3, #255	; 0xff
    76e8:	e1a01008 	mov	r1, r8
    76ec:	e1a00006 	mov	r0, r6
    76f0:	1a000020 	bne	7778 <getMP3Names+0xd4>
    76f4:	e5dd322d 	ldrb	r3, [sp, #557]
    76f8:	e1530006 	cmp	r3, r6
    76fc:	0a00001d 	beq	7778 <getMP3Names+0xd4>
    7700:	eb0010de 	bl	ba80 <strcpy>
    7704:	e59f1078 	ldr	r1, [pc, #120]	; 7784 <getMP3Names+0xe0>
    7708:	e1a00006 	mov	r0, r6
    770c:	eb001173 	bl	bce0 <strtok>
    7710:	e1a01007 	mov	r1, r7
    7714:	e1a04000 	mov	r4, r0
    7718:	e1a00006 	mov	r0, r6
    771c:	eb00116f 	bl	bce0 <strtok>
    7720:	e59f3060 	ldr	r3, [pc, #96]	; 7788 <getMP3Names+0xe4>
    7724:	e20000ff 	and	r0, r0, #255	; 0xff
    7728:	e1500003 	cmp	r0, r3
    772c:	1a000008 	bne	7754 <getMP3Names+0xb0>
    7730:	e20440ff 	and	r4, r4, #255	; 0xff
    7734:	e79a0105 	ldr	r0, [sl, r5, lsl #2]
    7738:	e1a01004 	mov	r1, r4
    773c:	eb0010cf 	bl	ba80 <strcpy>
    7740:	e59f2044 	ldr	r2, [pc, #68]	; 778c <getMP3Names+0xe8>
    7744:	e5923000 	ldr	r3, [r2]
    7748:	e1530004 	cmp	r3, r4
    774c:	059f303c 	ldreq	r3, [pc, #60]	; 7790 <getMP3Names+0xec>
    7750:	05835000 	streq	r5, [r3]
    7754:	e59f2038 	ldr	r2, [pc, #56]	; 7794 <getMP3Names+0xf0>
    7758:	e355001e 	cmp	r5, #30	; 0x1e
    775c:	e5825000 	str	r5, [r2]
    7760:	e1a01008 	mov	r1, r8
    7764:	e2855001 	add	r5, r5, #1	; 0x1
    7768:	0a000002 	beq	7778 <getMP3Names+0xd4>
    776c:	e59a0000 	ldr	r0, [sl]
    7770:	eb0010c2 	bl	ba80 <strcpy>
    7774:	eaffffd1 	b	76c0 <getMP3Names+0x1c>
    7778:	e28ddf91 	add	sp, sp, #580	; 0x244
    777c:	e8bd8ff0 	pop	{r4, r5, r6, r7, r8, r9, sl, fp, pc}
    7780:	40000a9c 	.word	0x40000a9c
    7784:	000104c0 	.word	0x000104c0
    7788:	00010752 	.word	0x00010752
    778c:	40000a90 	.word	0x40000a90
    7790:	40000a98 	.word	0x40000a98
    7794:	40000a94 	.word	0x40000a94

00007798 <getUartLine>:
    7798:	e92d4070 	push	{r4, r5, r6, lr}
    779c:	e24dd004 	sub	sp, sp, #4	; 0x4
    77a0:	e1a05000 	mov	r5, r0
    77a4:	e3a04000 	mov	r4, #0	; 0x0
    77a8:	e28d6003 	add	r6, sp, #3	; 0x3
    77ac:	e3e01000 	mvn	r1, #0	; 0x0
    77b0:	e1a00006 	mov	r0, r6
    77b4:	ebfff96d 	bl	5d70 <uart0GetChar>
    77b8:	e3500000 	cmp	r0, #0	; 0x0
    77bc:	0afffffa 	beq	77ac <getUartLine+0x14>
    77c0:	e5dd2003 	ldrb	r2, [sp, #3]
    77c4:	e352000a 	cmp	r2, #10	; 0xa
    77c8:	1a000006 	bne	77e8 <getUartLine+0x50>
    77cc:	e3a03000 	mov	r3, #0	; 0x0
    77d0:	e7c53004 	strb	r3, [r5, r4]
    77d4:	e1a00002 	mov	r0, r2
    77d8:	e3a01064 	mov	r1, #100	; 0x64
    77dc:	ebfff96f 	bl	5da0 <uart0PutChar>
    77e0:	e28dd004 	add	sp, sp, #4	; 0x4
    77e4:	e8bd8070 	pop	{r4, r5, r6, pc}
    77e8:	e352000d 	cmp	r2, #13	; 0xd
    77ec:	0affffee 	beq	77ac <getUartLine+0x14>
    77f0:	e3520008 	cmp	r2, #8	; 0x8
    77f4:	e1a00002 	mov	r0, r2
    77f8:	e3a01064 	mov	r1, #100	; 0x64
    77fc:	1a000008 	bne	7824 <getUartLine+0x8c>
    7800:	e2541000 	subs	r1, r4, #0	; 0x0
    7804:	e59f002c 	ldr	r0, [pc, #44]	; 7838 <getUartLine+0xa0>
    7808:	0a000002 	beq	7818 <getUartLine+0x80>
    780c:	e2444001 	sub	r4, r4, #1	; 0x1
    7810:	ebfffe7c 	bl	7208 <rprintf>
    7814:	eaffffe4 	b	77ac <getUartLine+0x14>
    7818:	e3a00007 	mov	r0, #7	; 0x7
    781c:	ebfff95f 	bl	5da0 <uart0PutChar>
    7820:	eaffffe1 	b	77ac <getUartLine+0x14>
    7824:	ebfff95d 	bl	5da0 <uart0PutChar>
    7828:	e5dd3003 	ldrb	r3, [sp, #3]
    782c:	e7c53004 	strb	r3, [r5, r4]
    7830:	e2844001 	add	r4, r4, #1	; 0x1
    7834:	eaffffdc 	b	77ac <getUartLine+0x14>
    7838:	000104c2 	.word	0x000104c2

0000783c <printLine>:
    783c:	e59f0000 	ldr	r0, [pc, #0]	; 7844 <printLine+0x8>
    7840:	eafffe70 	b	7208 <rprintf>
    7844:	000104c6 	.word	0x000104c6

00007848 <uartUI>:
    7848:	e92d4ff0 	push	{r4, r5, r6, r7, r8, r9, sl, fp, lr}
    784c:	e590301c 	ldr	r3, [r0, #28]
    7850:	e24ddd26 	sub	sp, sp, #2432	; 0x980
    7854:	e3530000 	cmp	r3, #0	; 0x0
    7858:	e24dd00c 	sub	sp, sp, #12	; 0xc
    785c:	e1a0b000 	mov	fp, r0
    7860:	1a000002 	bne	7870 <uartUI+0x28>
    7864:	e59f06bc 	ldr	r0, [pc, #1724]	; 7f28 <uartUI+0x6e0>
    7868:	ebfffe66 	bl	7208 <rprintf>
    786c:	eafffffe 	b	786c <uartUI+0x24>
    7870:	ebfffc51 	bl	69bc <initialize_SSPSPI>
    7874:	e59f06b0 	ldr	r0, [pc, #1712]	; 7f2c <uartUI+0x6e4>
    7878:	ebfffb8f 	bl	66bc <initialize_I2C0>
    787c:	e28b001c 	add	r0, fp, #28	; 0x1c
    7880:	ebffe7d2 	bl	17d0 <diskio_initializeSPIMutex>
    7884:	ebffe7d5 	bl	17e0 <initialize_SdCardSignals>
    7888:	ebfffc97 	bl	6aec <initialize_sta013>
    788c:	ebfffc1c 	bl	6904 <initialize_pcm1774>
    7890:	e3a00000 	mov	r0, #0	; 0x0
    7894:	e28d102c 	add	r1, sp, #44	; 0x2c
    7898:	ebfff865 	bl	5a34 <f_mount>
    789c:	e3500000 	cmp	r0, #0	; 0x0
    78a0:	159f0688 	ldrne	r0, [pc, #1672]	; 7f30 <uartUI+0x6e8>
    78a4:	1bfffe57 	blne	7208 <rprintf>
    78a8:	e28d3e95 	add	r3, sp, #2384	; 0x950
    78ac:	e28b2008 	add	r2, fp, #8	; 0x8
    78b0:	e2833009 	add	r3, r3, #9	; 0x9
    78b4:	e58d2028 	str	r2, [sp, #40]
    78b8:	e58d3024 	str	r3, [sp, #36]
    78bc:	e28d5d22 	add	r5, sp, #2176	; 0x880
    78c0:	e59f066c 	ldr	r0, [pc, #1644]	; 7f34 <uartUI+0x6ec>
    78c4:	e2855008 	add	r5, r5, #8	; 0x8
    78c8:	ebfffe4e 	bl	7208 <rprintf>
    78cc:	e3a01000 	mov	r1, #0	; 0x0
    78d0:	e3a02080 	mov	r2, #128	; 0x80
    78d4:	e1a00005 	mov	r0, r5
    78d8:	eb000f9c 	bl	b750 <memset>
    78dc:	e1a00005 	mov	r0, r5
    78e0:	ebffffac 	bl	7798 <getUartLine>
    78e4:	e5dd3888 	ldrb	r3, [sp, #2184]
    78e8:	e3530000 	cmp	r3, #0	; 0x0
    78ec:	0afffff2 	beq	78bc <uartUI+0x74>
    78f0:	e59f1640 	ldr	r1, [pc, #1600]	; 7f38 <uartUI+0x6f0>
    78f4:	e1a00005 	mov	r0, r5
    78f8:	eb0010f8 	bl	bce0 <strtok>
    78fc:	e59f1638 	ldr	r1, [pc, #1592]	; 7f3c <uartUI+0x6f4>
    7900:	e1a04000 	mov	r4, r0
    7904:	eb001023 	bl	b998 <strcmp>
    7908:	e3500000 	cmp	r0, #0	; 0x0
    790c:	1a000004 	bne	7924 <uartUI+0xdc>
    7910:	e59f1628 	ldr	r1, [pc, #1576]	; 7f40 <uartUI+0x6f8>
    7914:	eb0010f1 	bl	bce0 <strtok>
    7918:	e1a01000 	mov	r1, r0
    791c:	e59f0620 	ldr	r0, [pc, #1568]	; 7f44 <uartUI+0x6fc>
    7920:	ea000014 	b	7978 <uartUI+0x130>
    7924:	e59f061c 	ldr	r0, [pc, #1564]	; 7f48 <uartUI+0x700>
    7928:	e1a01004 	mov	r1, r4
    792c:	eb001019 	bl	b998 <strcmp>
    7930:	e2503000 	subs	r3, r0, #0	; 0x0
    7934:	1a00006f 	bne	7af8 <uartUI+0x2b0>
    7938:	e28d4d26 	add	r4, sp, #2432	; 0x980
    793c:	e2844009 	add	r4, r4, #9	; 0x9
    7940:	e28d6e92 	add	r6, sp, #2336	; 0x920
    7944:	e59f1600 	ldr	r1, [pc, #1536]	; 7f4c <uartUI+0x704>
    7948:	e3a02003 	mov	r2, #3	; 0x3
    794c:	e1a00004 	mov	r0, r4
    7950:	e286600c 	add	r6, r6, #12	; 0xc
    7954:	e58d3980 	str	r3, [sp, #2432]
    7958:	eb000f3d 	bl	b654 <memcpy>
    795c:	e1a00006 	mov	r0, r6
    7960:	e1a01004 	mov	r1, r4
    7964:	ebfff434 	bl	4a3c <f_opendir>
    7968:	e2505000 	subs	r5, r0, #0	; 0x0
    796c:	0a000003 	beq	7980 <uartUI+0x138>
    7970:	e59f05d8 	ldr	r0, [pc, #1496]	; 7f50 <uartUI+0x708>
    7974:	e1a01004 	mov	r1, r4
    7978:	ebfffe22 	bl	7208 <rprintf>
    797c:	eaffffce 	b	78bc <uartUI+0x74>
    7980:	e1a01004 	mov	r1, r4
    7984:	e59f05c8 	ldr	r0, [pc, #1480]	; 7f54 <uartUI+0x70c>
    7988:	ebfffe1e 	bl	7208 <rprintf>
    798c:	e1a0a005 	mov	sl, r5
    7990:	e1a09005 	mov	r9, r5
    7994:	e28d0e92 	add	r0, sp, #2336	; 0x920
    7998:	e28dcd1a 	add	ip, sp, #1664	; 0x680
    799c:	e28cc008 	add	ip, ip, #8	; 0x8
    79a0:	e3a02c02 	mov	r2, #512	; 0x200
    79a4:	e28d1e95 	add	r1, sp, #2384	; 0x950
    79a8:	e280000c 	add	r0, r0, #12	; 0xc
    79ac:	e58dc968 	str	ip, [sp, #2408]
    79b0:	e58d296c 	str	r2, [sp, #2412]
    79b4:	ebfff3f1 	bl	4980 <f_readdir>
    79b8:	e31000ff 	tst	r0, #255	; 0xff
    79bc:	1a000038 	bne	7aa4 <uartUI+0x25c>
    79c0:	e5dd3959 	ldrb	r3, [sp, #2393]
    79c4:	e3530000 	cmp	r3, #0	; 0x0
    79c8:	0a000035 	beq	7aa4 <uartUI+0x25c>
    79cc:	e5dd0958 	ldrb	r0, [sp, #2392]
    79d0:	e3100010 	tst	r0, #16	; 0x10
    79d4:	059d3980 	ldreq	r3, [sp, #2432]
    79d8:	059d2950 	ldreq	r2, [sp, #2384]
    79dc:	00833002 	addeq	r3, r3, r2
    79e0:	058d3980 	streq	r3, [sp, #2432]
    79e4:	e28d3c09 	add	r3, sp, #2304	; 0x900
    79e8:	e1d345b4 	ldrh	r4, [r3, #84]
    79ec:	e1a0c4a4 	lsr	ip, r4, #9
    79f0:	e28cce7b 	add	ip, ip, #1968	; 0x7b0
    79f4:	13a01044 	movne	r1, #68	; 0x44
    79f8:	03a0102d 	moveq	r1, #45	; 0x2d
    79fc:	12899001 	addne	r9, r9, #1	; 0x1
    7a00:	028aa001 	addeq	sl, sl, #1	; 0x1
    7a04:	e28cc00c 	add	ip, ip, #12	; 0xc
    7a08:	e3100001 	tst	r0, #1	; 0x1
    7a0c:	e1d365b6 	ldrh	r6, [r3, #86]
    7a10:	13a02052 	movne	r2, #82	; 0x52
    7a14:	03a0202d 	moveq	r2, #45	; 0x2d
    7a18:	e58dc008 	str	ip, [sp, #8]
    7a1c:	e3100002 	tst	r0, #2	; 0x2
    7a20:	e59dc950 	ldr	ip, [sp, #2384]
    7a24:	13a03048 	movne	r3, #72	; 0x48
    7a28:	03a0302d 	moveq	r3, #45	; 0x2d
    7a2c:	e3100004 	tst	r0, #4	; 0x4
    7a30:	13a08053 	movne	r8, #83	; 0x53
    7a34:	03a0802d 	moveq	r8, #45	; 0x2d
    7a38:	e58dc01c 	str	ip, [sp, #28]
    7a3c:	e3100020 	tst	r0, #32	; 0x20
    7a40:	e59dc024 	ldr	ip, [sp, #36]
    7a44:	e1a052a6 	lsr	r5, r6, #5
    7a48:	e1a0e2a4 	lsr	lr, r4, #5
    7a4c:	13a07041 	movne	r7, #65	; 0x41
    7a50:	03a0702d 	moveq	r7, #45	; 0x2d
    7a54:	e20ee00f 	and	lr, lr, #15	; 0xf
    7a58:	e204401f 	and	r4, r4, #31	; 0x1f
    7a5c:	e205503f 	and	r5, r5, #63	; 0x3f
    7a60:	e1a065a6 	lsr	r6, r6, #11
    7a64:	e59f04ec 	ldr	r0, [pc, #1260]	; 7f58 <uartUI+0x710>
    7a68:	e58de00c 	str	lr, [sp, #12]
    7a6c:	e58dc020 	str	ip, [sp, #32]
    7a70:	e58d8000 	str	r8, [sp]
    7a74:	e58d7004 	str	r7, [sp, #4]
    7a78:	e58d4010 	str	r4, [sp, #16]
    7a7c:	e58d6014 	str	r6, [sp, #20]
    7a80:	e58d5018 	str	r5, [sp, #24]
    7a84:	eb000ce4 	bl	ae1c <iprintf>
    7a88:	e28d1d1a 	add	r1, sp, #1664	; 0x680
    7a8c:	e2811008 	add	r1, r1, #8	; 0x8
    7a90:	e59f04c4 	ldr	r0, [pc, #1220]	; 7f5c <uartUI+0x714>
    7a94:	eb000ce0 	bl	ae1c <iprintf>
    7a98:	e59f04c0 	ldr	r0, [pc, #1216]	; 7f60 <uartUI+0x718>
    7a9c:	eb000cde 	bl	ae1c <iprintf>
    7aa0:	eaffffbb 	b	7994 <uartUI+0x14c>
    7aa4:	e1a0100a 	mov	r1, sl
    7aa8:	e1a03009 	mov	r3, r9
    7aac:	e59d2980 	ldr	r2, [sp, #2432]
    7ab0:	e59f04ac 	ldr	r0, [pc, #1196]	; 7f64 <uartUI+0x71c>
    7ab4:	eb000cd8 	bl	ae1c <iprintf>
    7ab8:	e28d0d22 	add	r0, sp, #2176	; 0x880
    7abc:	e28d2d26 	add	r2, sp, #2432	; 0x980
    7ac0:	e2800008 	add	r0, r0, #8	; 0x8
    7ac4:	e28d1d26 	add	r1, sp, #2432	; 0x980
    7ac8:	e2822004 	add	r2, r2, #4	; 0x4
    7acc:	ebfff32d 	bl	4788 <f_getfree>
    7ad0:	e3500000 	cmp	r0, #0	; 0x0
    7ad4:	1affff78 	bne	78bc <uartUI+0x74>
    7ad8:	e59d3984 	ldr	r3, [sp, #2436]
    7adc:	e5d32002 	ldrb	r2, [r3, #2]
    7ae0:	e59d3980 	ldr	r3, [sp, #2432]
    7ae4:	e0010293 	mul	r1, r3, r2
    7ae8:	e59f0478 	ldr	r0, [pc, #1144]	; 7f68 <uartUI+0x720>
    7aec:	e1a010a1 	lsr	r1, r1, #1
    7af0:	eb000cc9 	bl	ae1c <iprintf>
    7af4:	eaffff70 	b	78bc <uartUI+0x74>
    7af8:	e1a00004 	mov	r0, r4
    7afc:	e59f1468 	ldr	r1, [pc, #1128]	; 7f6c <uartUI+0x724>
    7b00:	eb000fa4 	bl	b998 <strcmp>
    7b04:	e3500000 	cmp	r0, #0	; 0x0
    7b08:	1a00002f 	bne	7bcc <uartUI+0x384>
    7b0c:	e59f142c 	ldr	r1, [pc, #1068]	; 7f40 <uartUI+0x6f8>
    7b10:	eb001072 	bl	bce0 <strtok>
    7b14:	e28d6f9b 	add	r6, sp, #620	; 0x26c
    7b18:	e1a04000 	mov	r4, r0
    7b1c:	e1a01004 	mov	r1, r4
    7b20:	e59f0448 	ldr	r0, [pc, #1096]	; 7f70 <uartUI+0x728>
    7b24:	e246600c 	sub	r6, r6, #12	; 0xc
    7b28:	ebfffdb6 	bl	7208 <rprintf>
    7b2c:	e1a01004 	mov	r1, r4
    7b30:	e1a00006 	mov	r0, r6
    7b34:	e3a02001 	mov	r2, #1	; 0x1
    7b38:	ebfff72c 	bl	57f0 <f_open>
    7b3c:	e2507000 	subs	r7, r0, #0	; 0x0
    7b40:	1a00004c 	bne	7c78 <uartUI+0x430>
    7b44:	e28d4d12 	add	r4, sp, #1152	; 0x480
    7b48:	e284400c 	add	r4, r4, #12	; 0xc
    7b4c:	e59f0420 	ldr	r0, [pc, #1056]	; 7f74 <uartUI+0x72c>
    7b50:	e2444005 	sub	r4, r4, #5	; 0x5
    7b54:	e28d5d26 	add	r5, sp, #2432	; 0x980
    7b58:	ebfffdaa 	bl	7208 <rprintf>
    7b5c:	e285500c 	add	r5, r5, #12	; 0xc
    7b60:	e1a01007 	mov	r1, r7
    7b64:	e59f240c 	ldr	r2, [pc, #1036]	; 7f78 <uartUI+0x730>
    7b68:	e1a00004 	mov	r0, r4
    7b6c:	eb000ef7 	bl	b750 <memset>
    7b70:	e59f0404 	ldr	r0, [pc, #1028]	; 7f7c <uartUI+0x734>
    7b74:	e525700c 	str	r7, [r5, #-12]!
    7b78:	ebfffda2 	bl	7208 <rprintf>
    7b7c:	e59f03fc 	ldr	r0, [pc, #1020]	; 7f80 <uartUI+0x738>
    7b80:	ebfffda0 	bl	7208 <rprintf>
    7b84:	e1a01004 	mov	r1, r4
    7b88:	e3a02c02 	mov	r2, #512	; 0x200
    7b8c:	e1a03005 	mov	r3, r5
    7b90:	e1a00006 	mov	r0, r6
    7b94:	ebfff558 	bl	50fc <f_read>
    7b98:	e3500000 	cmp	r0, #0	; 0x0
    7b9c:	e1a01004 	mov	r1, r4
    7ba0:	e59f03dc 	ldr	r0, [pc, #988]	; 7f84 <uartUI+0x73c>
    7ba4:	0a000002 	beq	7bb4 <uartUI+0x36c>
    7ba8:	e59f03d8 	ldr	r0, [pc, #984]	; 7f88 <uartUI+0x740>
    7bac:	ebfffd95 	bl	7208 <rprintf>
    7bb0:	ea000003 	b	7bc4 <uartUI+0x37c>
    7bb4:	ebfffd93 	bl	7208 <rprintf>
    7bb8:	e59d3980 	ldr	r3, [sp, #2432]
    7bbc:	e3530c02 	cmp	r3, #512	; 0x200
    7bc0:	0affffef 	beq	7b84 <uartUI+0x33c>
    7bc4:	e59f03b4 	ldr	r0, [pc, #948]	; 7f80 <uartUI+0x738>
    7bc8:	ea000024 	b	7c60 <uartUI+0x418>
    7bcc:	e1a00004 	mov	r0, r4
    7bd0:	e59f13b4 	ldr	r1, [pc, #948]	; 7f8c <uartUI+0x744>
    7bd4:	eb000f6f 	bl	b998 <strcmp>
    7bd8:	e3500000 	cmp	r0, #0	; 0x0
    7bdc:	1a000027 	bne	7c80 <uartUI+0x438>
    7be0:	e59f1358 	ldr	r1, [pc, #856]	; 7f40 <uartUI+0x6f8>
    7be4:	eb00103d 	bl	bce0 <strtok>
    7be8:	e28d5f9b 	add	r5, sp, #620	; 0x26c
    7bec:	e1a04000 	mov	r4, r0
    7bf0:	e1a01004 	mov	r1, r4
    7bf4:	e59f0394 	ldr	r0, [pc, #916]	; 7f90 <uartUI+0x748>
    7bf8:	e245500c 	sub	r5, r5, #12	; 0xc
    7bfc:	ebfffd81 	bl	7208 <rprintf>
    7c00:	e1a01004 	mov	r1, r4
    7c04:	e1a00005 	mov	r0, r5
    7c08:	e3a0200a 	mov	r2, #10	; 0xa
    7c0c:	ebfff6f7 	bl	57f0 <f_open>
    7c10:	e2506000 	subs	r6, r0, #0	; 0x0
    7c14:	1a000017 	bne	7c78 <uartUI+0x430>
    7c18:	e28d4c09 	add	r4, sp, #2304	; 0x900
    7c1c:	e59f0350 	ldr	r0, [pc, #848]	; 7f74 <uartUI+0x72c>
    7c20:	e2844008 	add	r4, r4, #8	; 0x8
    7c24:	ebfffd77 	bl	7208 <rprintf>
    7c28:	e59f1364 	ldr	r1, [pc, #868]	; 7f94 <uartUI+0x74c>
    7c2c:	e3a02024 	mov	r2, #36	; 0x24
    7c30:	e1a00004 	mov	r0, r4
    7c34:	eb000e86 	bl	b654 <memcpy>
    7c38:	e28d3d26 	add	r3, sp, #2432	; 0x980
    7c3c:	e283300c 	add	r3, r3, #12	; 0xc
    7c40:	e523600c 	str	r6, [r3, #-12]!
    7c44:	e1a00005 	mov	r0, r5
    7c48:	e1a01004 	mov	r1, r4
    7c4c:	e3a02024 	mov	r2, #36	; 0x24
    7c50:	ebfff458 	bl	4db8 <f_write>
    7c54:	e3500000 	cmp	r0, #0	; 0x0
    7c58:	0a000001 	beq	7c64 <uartUI+0x41c>
    7c5c:	e59f0334 	ldr	r0, [pc, #820]	; 7f98 <uartUI+0x750>
    7c60:	ebfffd68 	bl	7208 <rprintf>
    7c64:	e28d0f9b 	add	r0, sp, #620	; 0x26c
    7c68:	e240000c 	sub	r0, r0, #12	; 0xc
    7c6c:	ebfff6d9 	bl	57d8 <f_close>
    7c70:	e59f0324 	ldr	r0, [pc, #804]	; 7f9c <uartUI+0x754>
    7c74:	ea0000a9 	b	7f20 <uartUI+0x6d8>
    7c78:	e59f0320 	ldr	r0, [pc, #800]	; 7fa0 <uartUI+0x758>
    7c7c:	ea0000a7 	b	7f20 <uartUI+0x6d8>
    7c80:	e1a00004 	mov	r0, r4
    7c84:	e59f1318 	ldr	r1, [pc, #792]	; 7fa4 <uartUI+0x75c>
    7c88:	eb000f42 	bl	b998 <strcmp>
    7c8c:	e3500000 	cmp	r0, #0	; 0x0
    7c90:	1a000017 	bne	7cf4 <uartUI+0x4ac>
    7c94:	e59f12a4 	ldr	r1, [pc, #676]	; 7f40 <uartUI+0x6f8>
    7c98:	eb001010 	bl	bce0 <strtok>
    7c9c:	e59f1304 	ldr	r1, [pc, #772]	; 7fa8 <uartUI+0x760>
    7ca0:	e1a04000 	mov	r4, r0
    7ca4:	eb000f3b 	bl	b998 <strcmp>
    7ca8:	e3500000 	cmp	r0, #0	; 0x0
    7cac:	1a000001 	bne	7cb8 <uartUI+0x470>
    7cb0:	ebfffc10 	bl	6cf8 <performUndefinedInstructionCrash>
    7cb4:	eaffff00 	b	78bc <uartUI+0x74>
    7cb8:	e1a00004 	mov	r0, r4
    7cbc:	e59f12e8 	ldr	r1, [pc, #744]	; 7fac <uartUI+0x764>
    7cc0:	eb000f34 	bl	b998 <strcmp>
    7cc4:	e3500000 	cmp	r0, #0	; 0x0
    7cc8:	1a000001 	bne	7cd4 <uartUI+0x48c>
    7ccc:	ebfffc0b 	bl	6d00 <performPABORTCrash>
    7cd0:	eafffef9 	b	78bc <uartUI+0x74>
    7cd4:	e1a00004 	mov	r0, r4
    7cd8:	e59f12d0 	ldr	r1, [pc, #720]	; 7fb0 <uartUI+0x768>
    7cdc:	eb000f2d 	bl	b998 <strcmp>
    7ce0:	e3500000 	cmp	r0, #0	; 0x0
    7ce4:	159f02c8 	ldrne	r0, [pc, #712]	; 7fb4 <uartUI+0x76c>
    7ce8:	1a00008c 	bne	7f20 <uartUI+0x6d8>
    7cec:	ebfffc06 	bl	6d0c <performDABORTCrash>
    7cf0:	eafffef1 	b	78bc <uartUI+0x74>
    7cf4:	e1a00004 	mov	r0, r4
    7cf8:	e59f12b8 	ldr	r1, [pc, #696]	; 7fb8 <uartUI+0x770>
    7cfc:	eb000f25 	bl	b998 <strcmp>
    7d00:	e3500000 	cmp	r0, #0	; 0x0
    7d04:	0a000004 	beq	7d1c <uartUI+0x4d4>
    7d08:	e1a00004 	mov	r0, r4
    7d0c:	e59f12a8 	ldr	r1, [pc, #680]	; 7fbc <uartUI+0x774>
    7d10:	eb000f20 	bl	b998 <strcmp>
    7d14:	e3500000 	cmp	r0, #0	; 0x0
    7d18:	1a00001f 	bne	7d9c <uartUI+0x554>
    7d1c:	e59f129c 	ldr	r1, [pc, #668]	; 7fc0 <uartUI+0x778>
    7d20:	e3a00000 	mov	r0, #0	; 0x0
    7d24:	eb000fed 	bl	bce0 <strtok>
    7d28:	e28d4e97 	add	r4, sp, #2416	; 0x970
    7d2c:	e2844001 	add	r4, r4, #1	; 0x1
    7d30:	e1a01000 	mov	r1, r0
    7d34:	e1a00004 	mov	r0, r4
    7d38:	eb000f50 	bl	ba80 <strcpy>
    7d3c:	e59f3280 	ldr	r3, [pc, #640]	; 7fc4 <uartUI+0x77c>
    7d40:	e1a01004 	mov	r1, r4
    7d44:	e5930000 	ldr	r0, [r3]
    7d48:	eb000f4c 	bl	ba80 <strcpy>
    7d4c:	e59f1274 	ldr	r1, [pc, #628]	; 7fc8 <uartUI+0x780>
    7d50:	e1a00004 	mov	r0, r4
    7d54:	eb000ee6 	bl	b8f4 <strcat>
    7d58:	e59f026c 	ldr	r0, [pc, #620]	; 7fcc <uartUI+0x784>
    7d5c:	e1a01004 	mov	r1, r4
    7d60:	ebfffd28 	bl	7208 <rprintf>
    7d64:	e59f0264 	ldr	r0, [pc, #612]	; 7fd0 <uartUI+0x788>
    7d68:	e59f1264 	ldr	r1, [pc, #612]	; 7fd4 <uartUI+0x78c>
    7d6c:	ebfffd25 	bl	7208 <rprintf>
    7d70:	e1a01004 	mov	r1, r4
    7d74:	e59b0000 	ldr	r0, [fp]
    7d78:	e3a02064 	mov	r2, #100	; 0x64
    7d7c:	e3a03000 	mov	r3, #0	; 0x0
    7d80:	eb00031b 	bl	89f4 <xQueueGenericSend>
    7d84:	e3500000 	cmp	r0, #0	; 0x0
    7d88:	11a01004 	movne	r1, r4
    7d8c:	159f0244 	ldrne	r0, [pc, #580]	; 7fd8 <uartUI+0x790>
    7d90:	059f0244 	ldreq	r0, [pc, #580]	; 7fdc <uartUI+0x794>
    7d94:	0a000061 	beq	7f20 <uartUI+0x6d8>
    7d98:	eafffef6 	b	7978 <uartUI+0x130>
    7d9c:	e1a00004 	mov	r0, r4
    7da0:	e59f1238 	ldr	r1, [pc, #568]	; 7fe0 <uartUI+0x798>
    7da4:	eb000efb 	bl	b998 <strcmp>
    7da8:	e3500000 	cmp	r0, #0	; 0x0
    7dac:	1a000004 	bne	7dc4 <uartUI+0x57c>
    7db0:	e1a01000 	mov	r1, r0
    7db4:	e1a00005 	mov	r0, r5
    7db8:	eb000747 	bl	9adc <vTaskGetRunTimeStats>
    7dbc:	e1a01005 	mov	r1, r5
    7dc0:	ea00001f 	b	7e44 <uartUI+0x5fc>
    7dc4:	e1a00004 	mov	r0, r4
    7dc8:	e59f1214 	ldr	r1, [pc, #532]	; 7fe4 <uartUI+0x79c>
    7dcc:	eb000ef1 	bl	b998 <strcmp>
    7dd0:	e3500000 	cmp	r0, #0	; 0x0
    7dd4:	028d4d22 	addeq	r4, sp, #2176	; 0x880
    7dd8:	02844008 	addeq	r4, r4, #8	; 0x8
    7ddc:	0a000014 	beq	7e34 <uartUI+0x5ec>
    7de0:	e1a00004 	mov	r0, r4
    7de4:	e59f11fc 	ldr	r1, [pc, #508]	; 7fe8 <uartUI+0x7a0>
    7de8:	eb000eea 	bl	b998 <strcmp>
    7dec:	e3500000 	cmp	r0, #0	; 0x0
    7df0:	1a000015 	bne	7e4c <uartUI+0x604>
    7df4:	e59f1144 	ldr	r1, [pc, #324]	; 7f40 <uartUI+0x6f8>
    7df8:	eb000fb8 	bl	bce0 <strtok>
    7dfc:	eb000bfa 	bl	adec <atoi>
    7e00:	e2505000 	subs	r5, r0, #0	; 0x0
    7e04:	d59f01e0 	ldrle	r0, [pc, #480]	; 7fec <uartUI+0x7a4>
    7e08:	da000044 	ble	7f20 <uartUI+0x6d8>
    7e0c:	e28d4d22 	add	r4, sp, #2176	; 0x880
    7e10:	e1a01005 	mov	r1, r5
    7e14:	e59f01d4 	ldr	r0, [pc, #468]	; 7ff0 <uartUI+0x7a8>
    7e18:	e2844008 	add	r4, r4, #8	; 0x8
    7e1c:	ebfffcf9 	bl	7208 <rprintf>
    7e20:	e1a00004 	mov	r0, r4
    7e24:	e3a01001 	mov	r1, #1	; 0x1
    7e28:	eb00072b 	bl	9adc <vTaskGetRunTimeStats>
    7e2c:	e1a00005 	mov	r0, r5
    7e30:	eb000632 	bl	9700 <vTaskDelay>
    7e34:	e3a01001 	mov	r1, #1	; 0x1
    7e38:	e1a00004 	mov	r0, r4
    7e3c:	eb000726 	bl	9adc <vTaskGetRunTimeStats>
    7e40:	e1a01004 	mov	r1, r4
    7e44:	e59f0180 	ldr	r0, [pc, #384]	; 7fcc <uartUI+0x784>
    7e48:	eafffeca 	b	7978 <uartUI+0x130>
    7e4c:	e1a00004 	mov	r0, r4
    7e50:	e59f119c 	ldr	r1, [pc, #412]	; 7ff4 <uartUI+0x7ac>
    7e54:	eb000ecf 	bl	b998 <strcmp>
    7e58:	e2505000 	subs	r5, r0, #0	; 0x0
    7e5c:	1a000012 	bne	7eac <uartUI+0x664>
    7e60:	e59f0190 	ldr	r0, [pc, #400]	; 7ff8 <uartUI+0x7b0>
    7e64:	ebfffce7 	bl	7208 <rprintf>
    7e68:	e1a04005 	mov	r4, r5
    7e6c:	ea000009 	b	7e98 <uartUI+0x650>
    7e70:	e59d2028 	ldr	r2, [sp, #40]
    7e74:	e7923104 	ldr	r3, [r2, r4, lsl #2]
    7e78:	e2530000 	subs	r0, r3, #0	; 0x0
    7e7c:	0a000004 	beq	7e94 <uartUI+0x64c>
    7e80:	eb0003b3 	bl	8d54 <uxTaskGetStackHighWaterMark>
    7e84:	e2841001 	add	r1, r4, #1	; 0x1
    7e88:	e1a02100 	lsl	r2, r0, #2
    7e8c:	e59f0168 	ldr	r0, [pc, #360]	; 7ffc <uartUI+0x7b4>
    7e90:	ebfffcdc 	bl	7208 <rprintf>
    7e94:	e2844001 	add	r4, r4, #1	; 0x1
    7e98:	eb00037f 	bl	8c9c <uxTaskGetNumberOfTasks>
    7e9c:	e2400001 	sub	r0, r0, #1	; 0x1
    7ea0:	e1540000 	cmp	r4, r0
    7ea4:	3afffff1 	bcc	7e70 <uartUI+0x628>
    7ea8:	eafffe83 	b	78bc <uartUI+0x74>
    7eac:	e1a01004 	mov	r1, r4
    7eb0:	e59f0148 	ldr	r0, [pc, #328]	; 8000 <uartUI+0x7b8>
    7eb4:	eb000eb7 	bl	b998 <strcmp>
    7eb8:	e3500000 	cmp	r0, #0	; 0x0
    7ebc:	159f0140 	ldrne	r0, [pc, #320]	; 8004 <uartUI+0x7bc>
    7ec0:	1a000016 	bne	7f20 <uartUI+0x6d8>
    7ec4:	e59f0094 	ldr	r0, [pc, #148]	; 7f60 <uartUI+0x718>
    7ec8:	ebfffcce 	bl	7208 <rprintf>
    7ecc:	e59f00ac 	ldr	r0, [pc, #172]	; 7f80 <uartUI+0x738>
    7ed0:	ebfffccc 	bl	7208 <rprintf>
    7ed4:	e59f012c 	ldr	r0, [pc, #300]	; 8008 <uartUI+0x7c0>
    7ed8:	ebfffcca 	bl	7208 <rprintf>
    7edc:	e59f009c 	ldr	r0, [pc, #156]	; 7f80 <uartUI+0x738>
    7ee0:	ebfffcc8 	bl	7208 <rprintf>
    7ee4:	e59f0120 	ldr	r0, [pc, #288]	; 800c <uartUI+0x7c4>
    7ee8:	ebfffcc6 	bl	7208 <rprintf>
    7eec:	e59f011c 	ldr	r0, [pc, #284]	; 8010 <uartUI+0x7c8>
    7ef0:	ebfffcc4 	bl	7208 <rprintf>
    7ef4:	e59f0118 	ldr	r0, [pc, #280]	; 8014 <uartUI+0x7cc>
    7ef8:	ebfffcc2 	bl	7208 <rprintf>
    7efc:	e59f0114 	ldr	r0, [pc, #276]	; 8018 <uartUI+0x7d0>
    7f00:	ebfffcc0 	bl	7208 <rprintf>
    7f04:	e59f0110 	ldr	r0, [pc, #272]	; 801c <uartUI+0x7d4>
    7f08:	ebfffcbe 	bl	7208 <rprintf>
    7f0c:	e59f010c 	ldr	r0, [pc, #268]	; 8020 <uartUI+0x7d8>
    7f10:	ebfffcbc 	bl	7208 <rprintf>
    7f14:	e59f0108 	ldr	r0, [pc, #264]	; 8024 <uartUI+0x7dc>
    7f18:	ebfffcba 	bl	7208 <rprintf>
    7f1c:	e59f005c 	ldr	r0, [pc, #92]	; 7f80 <uartUI+0x738>
    7f20:	ebfffcb8 	bl	7208 <rprintf>
    7f24:	eafffe64 	b	78bc <uartUI+0x74>
    7f28:	0001051c 	.word	0x0001051c
    7f2c:	000186a0 	.word	0x000186a0
    7f30:	0001053d 	.word	0x0001053d
    7f34:	00010565 	.word	0x00010565
    7f38:	00010569 	.word	0x00010569
    7f3c:	0001056b 	.word	0x0001056b
    7f40:	000104c5 	.word	0x000104c5
    7f44:	00010570 	.word	0x00010570
    7f48:	0001057a 	.word	0x0001057a
    7f4c:	00010a43 	.word	0x00010a43
    7f50:	0001057d 	.word	0x0001057d
    7f54:	00010596 	.word	0x00010596
    7f58:	000105b1 	.word	0x000105b1
    7f5c:	000105da 	.word	0x000105da
    7f60:	00010a28 	.word	0x00010a28
    7f64:	000105e1 	.word	0x000105e1
    7f68:	0001060b 	.word	0x0001060b
    7f6c:	0001061f 	.word	0x0001061f
    7f70:	00010624 	.word	0x00010624
    7f74:	00010638 	.word	0x00010638
    7f78:	00000201 	.word	0x00000201
    7f7c:	00010652 	.word	0x00010652
    7f80:	000104c6 	.word	0x000104c6
    7f84:	00010692 	.word	0x00010692
    7f88:	00010662 	.word	0x00010662
    7f8c:	000106c2 	.word	0x000106c2
    7f90:	000106c8 	.word	0x000106c8
    7f94:	00010a46 	.word	0x00010a46
    7f98:	000106dd 	.word	0x000106dd
    7f9c:	00010699 	.word	0x00010699
    7fa0:	000106a9 	.word	0x000106a9
    7fa4:	000106f3 	.word	0x000106f3
    7fa8:	000106f9 	.word	0x000106f9
    7fac:	000106ff 	.word	0x000106ff
    7fb0:	00010706 	.word	0x00010706
    7fb4:	0001070d 	.word	0x0001070d
    7fb8:	00010747 	.word	0x00010747
    7fbc:	0001074c 	.word	0x0001074c
    7fc0:	000104c0 	.word	0x000104c0
    7fc4:	40000a90 	.word	0x40000a90
    7fc8:	00010751 	.word	0x00010751
    7fcc:	00010696 	.word	0x00010696
    7fd0:	00010756 	.word	0x00010756
    7fd4:	0000fe22 	.word	0x0000fe22
    7fd8:	00010780 	.word	0x00010780
    7fdc:	00010070 	.word	0x00010070
    7fe0:	00010794 	.word	0x00010794
    7fe4:	00010798 	.word	0x00010798
    7fe8:	0001079d 	.word	0x0001079d
    7fec:	000107e0 	.word	0x000107e0
    7ff0:	000107a2 	.word	0x000107a2
    7ff4:	0001081c 	.word	0x0001081c
    7ff8:	00010821 	.word	0x00010821
    7ffc:	0001084c 	.word	0x0001084c
    8000:	0001085c 	.word	0x0001085c
    8004:	00010a2a 	.word	0x00010a2a
    8008:	00010861 	.word	0x00010861
    800c:	00010870 	.word	0x00010870
    8010:	000108a1 	.word	0x000108a1
    8014:	000108ce 	.word	0x000108ce
    8018:	00010903 	.word	0x00010903
    801c:	00010948 	.word	0x00010948
    8020:	0001099c 	.word	0x0001099c
    8024:	000109dd 	.word	0x000109dd

00008028 <vPortFree>:
    8028:	e92d4010 	push	{r4, lr}
    802c:	e2504000 	subs	r4, r0, #0	; 0x0
    8030:	08bd8010 	popeq	{r4, pc}
    8034:	eb000312 	bl	8c84 <vTaskSuspendAll>
    8038:	e1a00004 	mov	r0, r4
    803c:	eb000b82 	bl	ae4c <free>
    8040:	e8bd4010 	pop	{r4, lr}
    8044:	ea000465 	b	91e0 <xTaskResumeAll>

00008048 <pvPortMalloc>:
    8048:	e92d4010 	push	{r4, lr}
    804c:	e1a04000 	mov	r4, r0
    8050:	eb00030b 	bl	8c84 <vTaskSuspendAll>
    8054:	e1a00004 	mov	r0, r4
    8058:	eb000b80 	bl	ae60 <malloc>
    805c:	e1a04000 	mov	r4, r0
    8060:	eb00045e 	bl	91e0 <xTaskResumeAll>
    8064:	e3540000 	cmp	r4, #0	; 0x0
    8068:	0b0007d3 	bleq	9fbc <vApplicationMallocFailedHook>
    806c:	e1a00004 	mov	r0, r4
    8070:	e8bd8010 	pop	{r4, pc}

00008074 <vListInitialise>:
    8074:	e3e03000 	mvn	r3, #0	; 0x0
    8078:	e5803008 	str	r3, [r0, #8]
    807c:	e2802008 	add	r2, r0, #8	; 0x8
    8080:	e2833001 	add	r3, r3, #1	; 0x1
    8084:	e580200c 	str	r2, [r0, #12]
    8088:	e5802004 	str	r2, [r0, #4]
    808c:	e5802010 	str	r2, [r0, #16]
    8090:	e5803000 	str	r3, [r0]
    8094:	e12fff1e 	bx	lr

00008098 <vListInitialiseItem>:
    8098:	e3a03000 	mov	r3, #0	; 0x0
    809c:	e5803010 	str	r3, [r0, #16]
    80a0:	e12fff1e 	bx	lr

000080a4 <vListInsertEnd>:
    80a4:	e5903004 	ldr	r3, [r0, #4]
    80a8:	e5932004 	ldr	r2, [r3, #4]
    80ac:	e5812004 	str	r2, [r1, #4]
    80b0:	e5932004 	ldr	r2, [r3, #4]
    80b4:	e5813008 	str	r3, [r1, #8]
    80b8:	e5821008 	str	r1, [r2, #8]
    80bc:	e5831004 	str	r1, [r3, #4]
    80c0:	e5903000 	ldr	r3, [r0]
    80c4:	e2833001 	add	r3, r3, #1	; 0x1
    80c8:	e5803000 	str	r3, [r0]
    80cc:	e5810010 	str	r0, [r1, #16]
    80d0:	e5801004 	str	r1, [r0, #4]
    80d4:	e12fff1e 	bx	lr

000080d8 <vListInsert>:
    80d8:	e591c000 	ldr	ip, [r1]
    80dc:	e37c0001 	cmn	ip, #1	; 0x1
    80e0:	05902010 	ldreq	r2, [r0, #16]
    80e4:	12802008 	addne	r2, r0, #8	; 0x8
    80e8:	1a000001 	bne	80f4 <vListInsert+0x1c>
    80ec:	ea000004 	b	8104 <vListInsert+0x2c>
    80f0:	e5922004 	ldr	r2, [r2, #4]
    80f4:	e5923004 	ldr	r3, [r2, #4]
    80f8:	e5933000 	ldr	r3, [r3]
    80fc:	e153000c 	cmp	r3, ip
    8100:	9afffffa 	bls	80f0 <vListInsert+0x18>
    8104:	e5923004 	ldr	r3, [r2, #4]
    8108:	e5831008 	str	r1, [r3, #8]
    810c:	e5813004 	str	r3, [r1, #4]
    8110:	e5821004 	str	r1, [r2, #4]
    8114:	e5903000 	ldr	r3, [r0]
    8118:	e2833001 	add	r3, r3, #1	; 0x1
    811c:	e5803000 	str	r3, [r0]
    8120:	e5810010 	str	r0, [r1, #16]
    8124:	e5812008 	str	r2, [r1, #8]
    8128:	e12fff1e 	bx	lr

0000812c <vListRemove>:
    812c:	e5903004 	ldr	r3, [r0, #4]
    8130:	e5902008 	ldr	r2, [r0, #8]
    8134:	e5832008 	str	r2, [r3, #8]
    8138:	e5902008 	ldr	r2, [r0, #8]
    813c:	e5901010 	ldr	r1, [r0, #16]
    8140:	e5823004 	str	r3, [r2, #4]
    8144:	e5913004 	ldr	r3, [r1, #4]
    8148:	e1530000 	cmp	r3, r0
    814c:	e5913000 	ldr	r3, [r1]
    8150:	05812004 	streq	r2, [r1, #4]
    8154:	e2433001 	sub	r3, r3, #1	; 0x1
    8158:	e3a02000 	mov	r2, #0	; 0x0
    815c:	e5802010 	str	r2, [r0, #16]
    8160:	e5813000 	str	r3, [r1]
    8164:	e12fff1e 	bx	lr

00008168 <pxPortInitialiseStack>:
    8168:	e1a0c000 	mov	ip, r0
    816c:	e2813004 	add	r3, r1, #4	; 0x4
    8170:	e40c3004 	str	r3, [ip], #-4
    8174:	e92d4ff0 	push	{r4, r5, r6, r7, r8, r9, sl, fp, lr}
    8178:	e24c4004 	sub	r4, ip, #4	; 0x4
    817c:	e2445004 	sub	r5, r4, #4	; 0x4
    8180:	e2456004 	sub	r6, r5, #4	; 0x4
    8184:	e2467004 	sub	r7, r6, #4	; 0x4
    8188:	e2478004 	sub	r8, r7, #4	; 0x4
    818c:	e248a004 	sub	sl, r8, #4	; 0x4
    8190:	e24a9004 	sub	r9, sl, #4	; 0x4
    8194:	e24dd01c 	sub	sp, sp, #28	; 0x1c
    8198:	e2493004 	sub	r3, r9, #4	; 0x4
    819c:	e58d3004 	str	r3, [sp, #4]
    81a0:	e2433004 	sub	r3, r3, #4	; 0x4
    81a4:	e58d3008 	str	r3, [sp, #8]
    81a8:	e2433004 	sub	r3, r3, #4	; 0x4
    81ac:	e58d300c 	str	r3, [sp, #12]
    81b0:	e2433004 	sub	r3, r3, #4	; 0x4
    81b4:	e58d3010 	str	r3, [sp, #16]
    81b8:	e2433004 	sub	r3, r3, #4	; 0x4
    81bc:	e58d3014 	str	r3, [sp, #20]
    81c0:	e3110001 	tst	r1, #1	; 0x1
    81c4:	e2433004 	sub	r3, r3, #4	; 0x4
    81c8:	e2431004 	sub	r1, r3, #4	; 0x4
    81cc:	e58d3018 	str	r3, [sp, #24]
    81d0:	13a0303f 	movne	r3, #63	; 0x3f
    81d4:	03a0301f 	moveq	r3, #31	; 0x1f
    81d8:	e58d3000 	str	r3, [sp]
    81dc:	e59f30a0 	ldr	r3, [pc, #160]	; 8284 <pxPortInitialiseStack+0x11c>
    81e0:	e5003004 	str	r3, [r0, #-4]
    81e4:	e59f309c 	ldr	r3, [pc, #156]	; 8288 <pxPortInitialiseStack+0x120>
    81e8:	e50c0004 	str	r0, [ip, #-4]
    81ec:	e5043004 	str	r3, [r4, #-4]
    81f0:	e59f3094 	ldr	r3, [pc, #148]	; 828c <pxPortInitialiseStack+0x124>
    81f4:	e5053004 	str	r3, [r5, #-4]
    81f8:	e59f3090 	ldr	r3, [pc, #144]	; 8290 <pxPortInitialiseStack+0x128>
    81fc:	e5063004 	str	r3, [r6, #-4]
    8200:	e59f308c 	ldr	r3, [pc, #140]	; 8294 <pxPortInitialiseStack+0x12c>
    8204:	e5073004 	str	r3, [r7, #-4]
    8208:	e59f3088 	ldr	r3, [pc, #136]	; 8298 <pxPortInitialiseStack+0x130>
    820c:	e5083004 	str	r3, [r8, #-4]
    8210:	e59f3084 	ldr	r3, [pc, #132]	; 829c <pxPortInitialiseStack+0x134>
    8214:	e50a3004 	str	r3, [sl, #-4]
    8218:	e59f3080 	ldr	r3, [pc, #128]	; 82a0 <pxPortInitialiseStack+0x138>
    821c:	e59d0004 	ldr	r0, [sp, #4]
    8220:	e5093004 	str	r3, [r9, #-4]
    8224:	e59f3078 	ldr	r3, [pc, #120]	; 82a4 <pxPortInitialiseStack+0x13c>
    8228:	e5003004 	str	r3, [r0, #-4]
    822c:	e59d0008 	ldr	r0, [sp, #8]
    8230:	e59f3070 	ldr	r3, [pc, #112]	; 82a8 <pxPortInitialiseStack+0x140>
    8234:	e5003004 	str	r3, [r0, #-4]
    8238:	e59d000c 	ldr	r0, [sp, #12]
    823c:	e59f3068 	ldr	r3, [pc, #104]	; 82ac <pxPortInitialiseStack+0x144>
    8240:	e5003004 	str	r3, [r0, #-4]
    8244:	e59d0010 	ldr	r0, [sp, #16]
    8248:	e59f3060 	ldr	r3, [pc, #96]	; 82b0 <pxPortInitialiseStack+0x148>
    824c:	e5003004 	str	r3, [r0, #-4]
    8250:	e59d0014 	ldr	r0, [sp, #20]
    8254:	e59f3058 	ldr	r3, [pc, #88]	; 82b4 <pxPortInitialiseStack+0x14c>
    8258:	e5003004 	str	r3, [r0, #-4]
    825c:	e59d3018 	ldr	r3, [sp, #24]
    8260:	e59d0000 	ldr	r0, [sp]
    8264:	e5032004 	str	r2, [r3, #-4]
    8268:	e241b004 	sub	fp, r1, #4	; 0x4
    826c:	e3a03000 	mov	r3, #0	; 0x0
    8270:	e5010004 	str	r0, [r1, #-4]
    8274:	e50b3004 	str	r3, [fp, #-4]
    8278:	e24b0004 	sub	r0, fp, #4	; 0x4
    827c:	e28dd01c 	add	sp, sp, #28	; 0x1c
    8280:	e8bd8ff0 	pop	{r4, r5, r6, r7, r8, r9, sl, fp, pc}
    8284:	aaaaaaaa 	.word	0xaaaaaaaa
    8288:	12121212 	.word	0x12121212
    828c:	11111111 	.word	0x11111111
    8290:	10101010 	.word	0x10101010
    8294:	09090909 	.word	0x09090909
    8298:	08080808 	.word	0x08080808
    829c:	07070707 	.word	0x07070707
    82a0:	06060606 	.word	0x06060606
    82a4:	05050505 	.word	0x05050505
    82a8:	04040404 	.word	0x04040404
    82ac:	03030303 	.word	0x03030303
    82b0:	02020202 	.word	0x02020202
    82b4:	01010101 	.word	0x01010101

000082b8 <vPortEndScheduler>:
    82b8:	e12fff1e 	bx	lr

000082bc <xPortStartScheduler>:
    82bc:	e59f1058 	ldr	r1, [pc, #88]	; 831c <xPortStartScheduler+0x60>
    82c0:	e59f3058 	ldr	r3, [pc, #88]	; 8320 <xPortStartScheduler+0x64>
    82c4:	e92d4010 	push	{r4, lr}
    82c8:	e3a04000 	mov	r4, #0	; 0x0
    82cc:	e581400c 	str	r4, [r1, #12]
    82d0:	e5813018 	str	r3, [r1, #24]
    82d4:	e3a03003 	mov	r3, #3	; 0x3
    82d8:	e5813014 	str	r3, [r1, #20]
    82dc:	e3e02000 	mvn	r2, #0	; 0x0
    82e0:	e5123ff3 	ldr	r3, [r2, #-4083]
    82e4:	e3c33010 	bic	r3, r3, #16	; 0x10
    82e8:	e5023ff3 	str	r3, [r2, #-4083]
    82ec:	e5123fef 	ldr	r3, [r2, #-4079]
    82f0:	e3833010 	orr	r3, r3, #16	; 0x10
    82f4:	e5023fef 	str	r3, [r2, #-4079]
    82f8:	e59f3024 	ldr	r3, [pc, #36]	; 8324 <xPortStartScheduler+0x68>
    82fc:	e5023eff 	str	r3, [r2, #-3839]
    8300:	e3a03024 	mov	r3, #36	; 0x24
    8304:	e5023dff 	str	r3, [r2, #-3583]
    8308:	e3a03001 	mov	r3, #1	; 0x1
    830c:	e5813004 	str	r3, [r1, #4]
    8310:	eb000004 	bl	8328 <vPortISRStartFirstTask>
    8314:	e1a00004 	mov	r0, r4
    8318:	e8bd8010 	pop	{r4, pc}
    831c:	e0004000 	.word	0xe0004000
    8320:	0000bb80 	.word	0x0000bb80
    8324:	00008418 	.word	0x00008418

00008328 <vPortISRStartFirstTask>:
    8328:	e59f0218 	ldr	r0, [pc, #536]	; 8548 <vPortExitCritical+0x44>
    832c:	e5900000 	ldr	r0, [r0]
    8330:	e590e000 	ldr	lr, [r0]
    8334:	e59f0210 	ldr	r0, [pc, #528]	; 854c <vPortExitCritical+0x48>
    8338:	e8be0002 	ldm	lr!, {r1}
    833c:	e5801000 	str	r1, [r0]
    8340:	e8be0001 	ldm	lr!, {r0}
    8344:	e169f000 	msr	SPSR_fc, r0
    8348:	e8de7fff 	ldm	lr, {r0, r1, r2, r3, r4, r5, r6, r7, r8, r9, sl, fp, ip, sp, lr}^
    834c:	e1a00000 	nop			(mov r0,r0)
    8350:	e59ee03c 	ldr	lr, [lr, #60]
    8354:	e25ef004 	subs	pc, lr, #4	; 0x4
    8358:	e59f300c 	ldr	r3, [pc, #12]	; 836c <vPortISRStartFirstTask+0x44>
    835c:	e5933000 	ldr	r3, [r3]
    8360:	e59f3008 	ldr	r3, [pc, #8]	; 8370 <vPortISRStartFirstTask+0x48>
    8364:	e5933000 	ldr	r3, [r3]
    8368:	e12fff1e 	bx	lr
    836c:	400000fc 	.word	0x400000fc
    8370:	40000950 	.word	0x40000950

00008374 <vPortYieldProcessor>:
    8374:	e28ee004 	add	lr, lr, #4	; 0x4
    8378:	e92d0001 	push	{r0}
    837c:	e94d2000 	stmdb	sp, {sp}^
    8380:	e1a00000 	nop			(mov r0,r0)
    8384:	e24dd004 	sub	sp, sp, #4	; 0x4
    8388:	e8bd0001 	pop	{r0}
    838c:	e9204000 	stmdb	r0!, {lr}
    8390:	e1a0e000 	mov	lr, r0
    8394:	e8bd0001 	pop	{r0}
    8398:	e94e7fff 	stmdb	lr, {r0, r1, r2, r3, r4, r5, r6, r7, r8, r9, sl, fp, ip, sp, lr}^
    839c:	e1a00000 	nop			(mov r0,r0)
    83a0:	e24ee03c 	sub	lr, lr, #60	; 0x3c
    83a4:	e14f0000 	mrs	r0, SPSR
    83a8:	e92e0001 	stmdb	lr!, {r0}
    83ac:	e59f0198 	ldr	r0, [pc, #408]	; 854c <vPortExitCritical+0x48>
    83b0:	e5900000 	ldr	r0, [r0]
    83b4:	e92e0001 	stmdb	lr!, {r0}
    83b8:	e59f0188 	ldr	r0, [pc, #392]	; 8548 <vPortExitCritical+0x44>
    83bc:	e5900000 	ldr	r0, [r0]
    83c0:	e580e000 	str	lr, [r0]
    83c4:	e59f3044 	ldr	r3, [pc, #68]	; 8410 <vPortYieldProcessor+0x9c>
    83c8:	e59f2044 	ldr	r2, [pc, #68]	; 8414 <vPortYieldProcessor+0xa0>
    83cc:	e5931000 	ldr	r1, [r3]
    83d0:	e5921000 	ldr	r1, [r2]
    83d4:	eb00051d 	bl	9850 <vTaskSwitchContext>
    83d8:	e59f0168 	ldr	r0, [pc, #360]	; 8548 <vPortExitCritical+0x44>
    83dc:	e5900000 	ldr	r0, [r0]
    83e0:	e590e000 	ldr	lr, [r0]
    83e4:	e59f0160 	ldr	r0, [pc, #352]	; 854c <vPortExitCritical+0x48>
    83e8:	e8be0002 	ldm	lr!, {r1}
    83ec:	e5801000 	str	r1, [r0]
    83f0:	e8be0001 	ldm	lr!, {r0}
    83f4:	e169f000 	msr	SPSR_fc, r0
    83f8:	e8de7fff 	ldm	lr, {r0, r1, r2, r3, r4, r5, r6, r7, r8, r9, sl, fp, ip, sp, lr}^
    83fc:	e1a00000 	nop			(mov r0,r0)
    8400:	e59ee03c 	ldr	lr, [lr, #60]
    8404:	e25ef004 	subs	pc, lr, #4	; 0x4
    8408:	e5933000 	ldr	r3, [r3]
    840c:	e5922000 	ldr	r2, [r2]
    8410:	400000fc 	.word	0x400000fc
    8414:	40000950 	.word	0x40000950

00008418 <vTickISR>:
    8418:	e92d0001 	push	{r0}
    841c:	e94d2000 	stmdb	sp, {sp}^
    8420:	e1a00000 	nop			(mov r0,r0)
    8424:	e24dd004 	sub	sp, sp, #4	; 0x4
    8428:	e8bd0001 	pop	{r0}
    842c:	e9204000 	stmdb	r0!, {lr}
    8430:	e1a0e000 	mov	lr, r0
    8434:	e8bd0001 	pop	{r0}
    8438:	e94e7fff 	stmdb	lr, {r0, r1, r2, r3, r4, r5, r6, r7, r8, r9, sl, fp, ip, sp, lr}^
    843c:	e1a00000 	nop			(mov r0,r0)
    8440:	e24ee03c 	sub	lr, lr, #60	; 0x3c
    8444:	e14f0000 	mrs	r0, SPSR
    8448:	e92e0001 	stmdb	lr!, {r0}
    844c:	e59f00f8 	ldr	r0, [pc, #248]	; 854c <vPortExitCritical+0x48>
    8450:	e5900000 	ldr	r0, [r0]
    8454:	e92e0001 	stmdb	lr!, {r0}
    8458:	e59f00e8 	ldr	r0, [pc, #232]	; 8548 <vPortExitCritical+0x44>
    845c:	e5900000 	ldr	r0, [r0]
    8460:	e580e000 	str	lr, [r0]
    8464:	e59f1060 	ldr	r1, [pc, #96]	; 84cc <vTickISR+0xb4>
    8468:	e59f0060 	ldr	r0, [pc, #96]	; 84d0 <vTickISR+0xb8>
    846c:	e5913000 	ldr	r3, [r1]
    8470:	e5903000 	ldr	r3, [r0]
    8474:	eb0002b2 	bl	8f44 <vTaskIncrementTick>
    8478:	eb0004f4 	bl	9850 <vTaskSwitchContext>
    847c:	e59f3050 	ldr	r3, [pc, #80]	; 84d4 <vTickISR+0xbc>
    8480:	e3a02001 	mov	r2, #1	; 0x1
    8484:	e5832000 	str	r2, [r3]
    8488:	e3a02000 	mov	r2, #0	; 0x0
    848c:	e3e03000 	mvn	r3, #0	; 0x0
    8490:	e5032fcf 	str	r2, [r3, #-4047]
    8494:	e59f00ac 	ldr	r0, [pc, #172]	; 8548 <vPortExitCritical+0x44>
    8498:	e5900000 	ldr	r0, [r0]
    849c:	e590e000 	ldr	lr, [r0]
    84a0:	e59f00a4 	ldr	r0, [pc, #164]	; 854c <vPortExitCritical+0x48>
    84a4:	e8be0002 	ldm	lr!, {r1}
    84a8:	e5801000 	str	r1, [r0]
    84ac:	e8be0001 	ldm	lr!, {r0}
    84b0:	e169f000 	msr	SPSR_fc, r0
    84b4:	e8de7fff 	ldm	lr, {r0, r1, r2, r3, r4, r5, r6, r7, r8, r9, sl, fp, ip, sp, lr}^
    84b8:	e1a00000 	nop			(mov r0,r0)
    84bc:	e59ee03c 	ldr	lr, [lr, #60]
    84c0:	e25ef004 	subs	pc, lr, #4	; 0x4
    84c4:	e5911000 	ldr	r1, [r1]
    84c8:	e5900000 	ldr	r0, [r0]
    84cc:	400000fc 	.word	0x400000fc
    84d0:	40000950 	.word	0x40000950
    84d4:	e0004000 	.word	0xe0004000

000084d8 <vPortEnterCritical>:
    84d8:	e92d0001 	push	{r0}
    84dc:	e10f0000 	mrs	r0, CPSR
    84e0:	e38000c0 	orr	r0, r0, #192	; 0xc0
    84e4:	e129f000 	msr	CPSR_fc, r0
    84e8:	e8bd0001 	pop	{r0}
    84ec:	e59f200c 	ldr	r2, [pc, #12]	; 8500 <vPortEnterCritical+0x28>
    84f0:	e5923000 	ldr	r3, [r2]
    84f4:	e2833001 	add	r3, r3, #1	; 0x1
    84f8:	e5823000 	str	r3, [r2]
    84fc:	e12fff1e 	bx	lr
    8500:	400000fc 	.word	0x400000fc

00008504 <vPortExitCritical>:
    8504:	e59f2038 	ldr	r2, [pc, #56]	; 8544 <vPortExitCritical+0x40>
    8508:	e5923000 	ldr	r3, [r2]
    850c:	e3530000 	cmp	r3, #0	; 0x0
    8510:	012fff1e 	bxeq	lr
    8514:	e5923000 	ldr	r3, [r2]
    8518:	e2433001 	sub	r3, r3, #1	; 0x1
    851c:	e5823000 	str	r3, [r2]
    8520:	e5923000 	ldr	r3, [r2]
    8524:	e3530000 	cmp	r3, #0	; 0x0
    8528:	112fff1e 	bxne	lr
    852c:	e92d0001 	push	{r0}
    8530:	e10f0000 	mrs	r0, CPSR
    8534:	e3c000c0 	bic	r0, r0, #192	; 0xc0
    8538:	e129f000 	msr	CPSR_fc, r0
    853c:	e8bd0001 	pop	{r0}
    8540:	e12fff1e 	bx	lr
    8544:	400000fc 	.word	0x400000fc
    8548:	40000950 	.word	0x40000950
    854c:	400000fc 	.word	0x400000fc

00008550 <uxQueueMessagesWaitingFromISR>:
    8550:	e5900038 	ldr	r0, [r0, #56]
    8554:	e12fff1e 	bx	lr

00008558 <xQueueIsQueueEmptyFromISR>:
    8558:	e5900038 	ldr	r0, [r0, #56]
    855c:	e2700001 	rsbs	r0, r0, #1	; 0x1
    8560:	33a00000 	movcc	r0, #0	; 0x0
    8564:	e12fff1e 	bx	lr

00008568 <xQueueIsQueueFullFromISR>:
    8568:	e590303c 	ldr	r3, [r0, #60]
    856c:	e5900038 	ldr	r0, [r0, #56]
    8570:	e1500003 	cmp	r0, r3
    8574:	13a00000 	movne	r0, #0	; 0x0
    8578:	03a00001 	moveq	r0, #1	; 0x1
    857c:	e12fff1e 	bx	lr

00008580 <vQueueDelete>:
    8580:	e92d4010 	push	{r4, lr}
    8584:	e1a04000 	mov	r4, r0
    8588:	e5900000 	ldr	r0, [r0]
    858c:	ebfffea5 	bl	8028 <vPortFree>
    8590:	e1a00004 	mov	r0, r4
    8594:	e8bd4010 	pop	{r4, lr}
    8598:	eafffea2 	b	8028 <vPortFree>

0000859c <uxQueueMessagesWaiting>:
    859c:	e92d4010 	push	{r4, lr}
    85a0:	e1a04000 	mov	r4, r0
    85a4:	ebffffcb 	bl	84d8 <vPortEnterCritical>
    85a8:	e5944038 	ldr	r4, [r4, #56]
    85ac:	ebffffd4 	bl	8504 <vPortExitCritical>
    85b0:	e1a00004 	mov	r0, r4
    85b4:	e8bd8010 	pop	{r4, pc}

000085b8 <xQueueReceiveFromISR>:
    85b8:	e92d4070 	push	{r4, r5, r6, lr}
    85bc:	e1a04000 	mov	r4, r0
    85c0:	e5900038 	ldr	r0, [r0, #56]
    85c4:	e3500000 	cmp	r0, #0	; 0x0
    85c8:	e1a05001 	mov	r5, r1
    85cc:	e1a06002 	mov	r6, r2
    85d0:	08bd8070 	popeq	{r4, r5, r6, pc}
    85d4:	e594c000 	ldr	ip, [r4]
    85d8:	e35c0000 	cmp	ip, #0	; 0x0
    85dc:	0a00000a 	beq	860c <xQueueReceiveFromISR+0x54>
    85e0:	e594300c 	ldr	r3, [r4, #12]
    85e4:	e5942040 	ldr	r2, [r4, #64]
    85e8:	e5941004 	ldr	r1, [r4, #4]
    85ec:	e0833002 	add	r3, r3, r2
    85f0:	e1530001 	cmp	r3, r1
    85f4:	e584300c 	str	r3, [r4, #12]
    85f8:	2584c00c 	strcs	ip, [r4, #12]
    85fc:	e1a00005 	mov	r0, r5
    8600:	e594100c 	ldr	r1, [r4, #12]
    8604:	e5942040 	ldr	r2, [r4, #64]
    8608:	eb000c11 	bl	b654 <memcpy>
    860c:	e5942044 	ldr	r2, [r4, #68]
    8610:	e5943038 	ldr	r3, [r4, #56]
    8614:	e3720001 	cmn	r2, #1	; 0x1
    8618:	e2433001 	sub	r3, r3, #1	; 0x1
    861c:	e5843038 	str	r3, [r4, #56]
    8620:	12823001 	addne	r3, r2, #1	; 0x1
    8624:	15843044 	strne	r3, [r4, #68]
    8628:	13a00001 	movne	r0, #1	; 0x1
    862c:	18bd8070 	popne	{r4, r5, r6, pc}
    8630:	e5943010 	ldr	r3, [r4, #16]
    8634:	e3530000 	cmp	r3, #0	; 0x0
    8638:	0a000006 	beq	8658 <xQueueReceiveFromISR+0xa0>
    863c:	e2840010 	add	r0, r4, #16	; 0x10
    8640:	eb000216 	bl	8ea0 <xTaskRemoveFromEventList>
    8644:	e3500000 	cmp	r0, #0	; 0x0
    8648:	13a03001 	movne	r3, #1	; 0x1
    864c:	15863000 	strne	r3, [r6]
    8650:	11a00003 	movne	r0, r3
    8654:	18bd8070 	popne	{r4, r5, r6, pc}
    8658:	e3a00001 	mov	r0, #1	; 0x1
    865c:	e8bd8070 	pop	{r4, r5, r6, pc}

00008660 <prvUnlockQueue>:
    8660:	e92d4030 	push	{r4, r5, lr}
    8664:	e1a04000 	mov	r4, r0
    8668:	e2805024 	add	r5, r0, #36	; 0x24
    866c:	ebffff99 	bl	84d8 <vPortEnterCritical>
    8670:	ea000008 	b	8698 <prvUnlockQueue+0x38>
    8674:	e5943024 	ldr	r3, [r4, #36]
    8678:	e3530000 	cmp	r3, #0	; 0x0
    867c:	0a000009 	beq	86a8 <prvUnlockQueue+0x48>
    8680:	eb000206 	bl	8ea0 <xTaskRemoveFromEventList>
    8684:	e3500000 	cmp	r0, #0	; 0x0
    8688:	1b0001ac 	blne	8d40 <vTaskMissedYield>
    868c:	e5943048 	ldr	r3, [r4, #72]
    8690:	e2433001 	sub	r3, r3, #1	; 0x1
    8694:	e5843048 	str	r3, [r4, #72]
    8698:	e5943048 	ldr	r3, [r4, #72]
    869c:	e3530000 	cmp	r3, #0	; 0x0
    86a0:	e1a00005 	mov	r0, r5
    86a4:	cafffff2 	bgt	8674 <prvUnlockQueue+0x14>
    86a8:	e3e03000 	mvn	r3, #0	; 0x0
    86ac:	e5843048 	str	r3, [r4, #72]
    86b0:	ebffff93 	bl	8504 <vPortExitCritical>
    86b4:	e2845010 	add	r5, r4, #16	; 0x10
    86b8:	ebffff86 	bl	84d8 <vPortEnterCritical>
    86bc:	ea000008 	b	86e4 <prvUnlockQueue+0x84>
    86c0:	e5943010 	ldr	r3, [r4, #16]
    86c4:	e3530000 	cmp	r3, #0	; 0x0
    86c8:	0a000009 	beq	86f4 <prvUnlockQueue+0x94>
    86cc:	eb0001f3 	bl	8ea0 <xTaskRemoveFromEventList>
    86d0:	e3500000 	cmp	r0, #0	; 0x0
    86d4:	1b000199 	blne	8d40 <vTaskMissedYield>
    86d8:	e5943044 	ldr	r3, [r4, #68]
    86dc:	e2433001 	sub	r3, r3, #1	; 0x1
    86e0:	e5843044 	str	r3, [r4, #68]
    86e4:	e5943044 	ldr	r3, [r4, #68]
    86e8:	e3530000 	cmp	r3, #0	; 0x0
    86ec:	e1a00005 	mov	r0, r5
    86f0:	cafffff2 	bgt	86c0 <prvUnlockQueue+0x60>
    86f4:	e3e03000 	mvn	r3, #0	; 0x0
    86f8:	e5843044 	str	r3, [r4, #68]
    86fc:	e8bd4030 	pop	{r4, r5, lr}
    8700:	eaffff7f 	b	8504 <vPortExitCritical>

00008704 <xQueueGenericReceive>:
    8704:	e92d4ff0 	push	{r4, r5, r6, r7, r8, r9, sl, fp, lr}
    8708:	e3a06000 	mov	r6, #0	; 0x0
    870c:	e24dd00c 	sub	sp, sp, #12	; 0xc
    8710:	e1a05000 	mov	r5, r0
    8714:	e58d2000 	str	r2, [sp]
    8718:	e1a08001 	mov	r8, r1
    871c:	e1a0a003 	mov	sl, r3
    8720:	e2807024 	add	r7, r0, #36	; 0x24
    8724:	e28db004 	add	fp, sp, #4	; 0x4
    8728:	e1a09006 	mov	r9, r6
    872c:	ea000000 	b	8734 <xQueueGenericReceive+0x30>
    8730:	e3a06001 	mov	r6, #1	; 0x1
    8734:	ebffff67 	bl	84d8 <vPortEnterCritical>
    8738:	e5953038 	ldr	r3, [r5, #56]
    873c:	e3530000 	cmp	r3, #0	; 0x0
    8740:	0a00002c 	beq	87f8 <xQueueGenericReceive+0xf4>
    8744:	e5951000 	ldr	r1, [r5]
    8748:	e3510000 	cmp	r1, #0	; 0x0
    874c:	e595400c 	ldr	r4, [r5, #12]
    8750:	0a000009 	beq	877c <xQueueGenericReceive+0x78>
    8754:	e5953040 	ldr	r3, [r5, #64]
    8758:	e5952004 	ldr	r2, [r5, #4]
    875c:	e0843003 	add	r3, r4, r3
    8760:	e1530002 	cmp	r3, r2
    8764:	e585300c 	str	r3, [r5, #12]
    8768:	2585100c 	strcs	r1, [r5, #12]
    876c:	e1a00008 	mov	r0, r8
    8770:	e595100c 	ldr	r1, [r5, #12]
    8774:	e5952040 	ldr	r2, [r5, #64]
    8778:	eb000bb5 	bl	b654 <memcpy>
    877c:	e35a0000 	cmp	sl, #0	; 0x0
    8780:	1a000010 	bne	87c8 <xQueueGenericReceive+0xc4>
    8784:	e5953038 	ldr	r3, [r5, #56]
    8788:	e5952000 	ldr	r2, [r5]
    878c:	e2433001 	sub	r3, r3, #1	; 0x1
    8790:	e3520000 	cmp	r2, #0	; 0x0
    8794:	e5853038 	str	r3, [r5, #56]
    8798:	1a000001 	bne	87a4 <xQueueGenericReceive+0xa0>
    879c:	eb000179 	bl	8d88 <xTaskGetCurrentTaskHandle>
    87a0:	e5850004 	str	r0, [r5, #4]
    87a4:	e5953010 	ldr	r3, [r5, #16]
    87a8:	e3530000 	cmp	r3, #0	; 0x0
    87ac:	0a00000e 	beq	87ec <xQueueGenericReceive+0xe8>
    87b0:	e2850010 	add	r0, r5, #16	; 0x10
    87b4:	eb0001b9 	bl	8ea0 <xTaskRemoveFromEventList>
    87b8:	e3500001 	cmp	r0, #1	; 0x1
    87bc:	1a00000a 	bne	87ec <xQueueGenericReceive+0xe8>
    87c0:	ef000000 	svc	0x00000000
    87c4:	ea000008 	b	87ec <xQueueGenericReceive+0xe8>
    87c8:	e5953024 	ldr	r3, [r5, #36]
    87cc:	e3530000 	cmp	r3, #0	; 0x0
    87d0:	e585400c 	str	r4, [r5, #12]
    87d4:	0a000004 	beq	87ec <xQueueGenericReceive+0xe8>
    87d8:	e1a00007 	mov	r0, r7
    87dc:	eb0001af 	bl	8ea0 <xTaskRemoveFromEventList>
    87e0:	e3500000 	cmp	r0, #0	; 0x0
    87e4:	0a000000 	beq	87ec <xQueueGenericReceive+0xe8>
    87e8:	ef000000 	svc	0x00000000
    87ec:	ebffff44 	bl	8504 <vPortExitCritical>
    87f0:	e3a00001 	mov	r0, #1	; 0x1
    87f4:	ea000035 	b	88d0 <xQueueGenericReceive+0x1cc>
    87f8:	e59d4000 	ldr	r4, [sp]
    87fc:	e3540000 	cmp	r4, #0	; 0x0
    8800:	1a000002 	bne	8810 <xQueueGenericReceive+0x10c>
    8804:	ebffff3e 	bl	8504 <vPortExitCritical>
    8808:	e1a00004 	mov	r0, r4
    880c:	ea00002f 	b	88d0 <xQueueGenericReceive+0x1cc>
    8810:	e3560000 	cmp	r6, #0	; 0x0
    8814:	01a0000b 	moveq	r0, fp
    8818:	0b000140 	bleq	8d20 <vTaskSetTimeOutState>
    881c:	ebffff38 	bl	8504 <vPortExitCritical>
    8820:	eb000117 	bl	8c84 <vTaskSuspendAll>
    8824:	ebffff2b 	bl	84d8 <vPortEnterCritical>
    8828:	e5953044 	ldr	r3, [r5, #68]
    882c:	e3730001 	cmn	r3, #1	; 0x1
    8830:	e5953048 	ldr	r3, [r5, #72]
    8834:	05859044 	streq	r9, [r5, #68]
    8838:	e3730001 	cmn	r3, #1	; 0x1
    883c:	05859048 	streq	r9, [r5, #72]
    8840:	ebffff2f 	bl	8504 <vPortExitCritical>
    8844:	e1a0000b 	mov	r0, fp
    8848:	e1a0100d 	mov	r1, sp
    884c:	eb000234 	bl	9124 <xTaskCheckForTimeOut>
    8850:	e3500000 	cmp	r0, #0	; 0x0
    8854:	1a000019 	bne	88c0 <xQueueGenericReceive+0x1bc>
    8858:	ebffff1e 	bl	84d8 <vPortEnterCritical>
    885c:	e5954038 	ldr	r4, [r5, #56]
    8860:	ebffff27 	bl	8504 <vPortExitCritical>
    8864:	e3540000 	cmp	r4, #0	; 0x0
    8868:	1a000010 	bne	88b0 <xQueueGenericReceive+0x1ac>
    886c:	e5953000 	ldr	r3, [r5]
    8870:	e3530000 	cmp	r3, #0	; 0x0
    8874:	1a000003 	bne	8888 <xQueueGenericReceive+0x184>
    8878:	ebffff16 	bl	84d8 <vPortEnterCritical>
    887c:	e5950004 	ldr	r0, [r5, #4]
    8880:	eb00015e 	bl	8e00 <vTaskPriorityInherit>
    8884:	ebffff1e 	bl	8504 <vPortExitCritical>
    8888:	e59d1000 	ldr	r1, [sp]
    888c:	e1a00007 	mov	r0, r7
    8890:	eb000377 	bl	9674 <vTaskPlaceOnEventList>
    8894:	e1a00005 	mov	r0, r5
    8898:	ebffff70 	bl	8660 <prvUnlockQueue>
    889c:	eb00024f 	bl	91e0 <xTaskResumeAll>
    88a0:	e3500000 	cmp	r0, #0	; 0x0
    88a4:	1affffa1 	bne	8730 <xQueueGenericReceive+0x2c>
    88a8:	ef000000 	svc	0x00000000
    88ac:	eaffff9f 	b	8730 <xQueueGenericReceive+0x2c>
    88b0:	e1a00005 	mov	r0, r5
    88b4:	ebffff69 	bl	8660 <prvUnlockQueue>
    88b8:	eb000248 	bl	91e0 <xTaskResumeAll>
    88bc:	eaffff9b 	b	8730 <xQueueGenericReceive+0x2c>
    88c0:	e1a00005 	mov	r0, r5
    88c4:	ebffff65 	bl	8660 <prvUnlockQueue>
    88c8:	eb000244 	bl	91e0 <xTaskResumeAll>
    88cc:	e3a00000 	mov	r0, #0	; 0x0
    88d0:	e28dd00c 	add	sp, sp, #12	; 0xc
    88d4:	e8bd8ff0 	pop	{r4, r5, r6, r7, r8, r9, sl, fp, pc}

000088d8 <prvCopyDataToQueue>:
    88d8:	e5903040 	ldr	r3, [r0, #64]
    88dc:	e3530000 	cmp	r3, #0	; 0x0
    88e0:	e92d4030 	push	{r4, r5, lr}
    88e4:	e1a04000 	mov	r4, r0
    88e8:	1a000006 	bne	8908 <prvCopyDataToQueue+0x30>
    88ec:	e5905000 	ldr	r5, [r0]
    88f0:	e3550000 	cmp	r5, #0	; 0x0
    88f4:	1a00001e 	bne	8974 <prvCopyDataToQueue+0x9c>
    88f8:	e5900004 	ldr	r0, [r0, #4]
    88fc:	eb000125 	bl	8d98 <vTaskPriorityDisinherit>
    8900:	e5845004 	str	r5, [r4, #4]
    8904:	ea00001a 	b	8974 <prvCopyDataToQueue+0x9c>
    8908:	e3520000 	cmp	r2, #0	; 0x0
    890c:	1a00000b 	bne	8940 <prvCopyDataToQueue+0x68>
    8910:	e1a02003 	mov	r2, r3
    8914:	e5900008 	ldr	r0, [r0, #8]
    8918:	eb000b4d 	bl	b654 <memcpy>
    891c:	e5943008 	ldr	r3, [r4, #8]
    8920:	e5942040 	ldr	r2, [r4, #64]
    8924:	e5941004 	ldr	r1, [r4, #4]
    8928:	e0833002 	add	r3, r3, r2
    892c:	e1530001 	cmp	r3, r1
    8930:	e5843008 	str	r3, [r4, #8]
    8934:	25943000 	ldrcs	r3, [r4]
    8938:	25843008 	strcs	r3, [r4, #8]
    893c:	ea00000c 	b	8974 <prvCopyDataToQueue+0x9c>
    8940:	e1a02003 	mov	r2, r3
    8944:	e590000c 	ldr	r0, [r0, #12]
    8948:	eb000b41 	bl	b654 <memcpy>
    894c:	e5943040 	ldr	r3, [r4, #64]
    8950:	e594200c 	ldr	r2, [r4, #12]
    8954:	e2631000 	rsb	r1, r3, #0	; 0x0
    8958:	e5943000 	ldr	r3, [r4]
    895c:	e0822001 	add	r2, r2, r1
    8960:	e1520003 	cmp	r2, r3
    8964:	35943004 	ldrcc	r3, [r4, #4]
    8968:	30833001 	addcc	r3, r3, r1
    896c:	e584200c 	str	r2, [r4, #12]
    8970:	3584300c 	strcc	r3, [r4, #12]
    8974:	e5943038 	ldr	r3, [r4, #56]
    8978:	e2833001 	add	r3, r3, #1	; 0x1
    897c:	e5843038 	str	r3, [r4, #56]
    8980:	e8bd8030 	pop	{r4, r5, pc}

00008984 <xQueueGenericSendFromISR>:
    8984:	e92d4030 	push	{r4, r5, lr}
    8988:	e590c03c 	ldr	ip, [r0, #60]
    898c:	e5904038 	ldr	r4, [r0, #56]
    8990:	e154000c 	cmp	r4, ip
    8994:	e1a05000 	mov	r5, r0
    8998:	e1a04002 	mov	r4, r2
    899c:	23a00000 	movcs	r0, #0	; 0x0
    89a0:	e1a02003 	mov	r2, r3
    89a4:	28bd8030 	popcs	{r4, r5, pc}
    89a8:	ebffffca 	bl	88d8 <prvCopyDataToQueue>
    89ac:	e5953048 	ldr	r3, [r5, #72]
    89b0:	e3730001 	cmn	r3, #1	; 0x1
    89b4:	12833001 	addne	r3, r3, #1	; 0x1
    89b8:	15853048 	strne	r3, [r5, #72]
    89bc:	13a00001 	movne	r0, #1	; 0x1
    89c0:	18bd8030 	popne	{r4, r5, pc}
    89c4:	e5953024 	ldr	r3, [r5, #36]
    89c8:	e3530000 	cmp	r3, #0	; 0x0
    89cc:	0a000006 	beq	89ec <xQueueGenericSendFromISR+0x68>
    89d0:	e2850024 	add	r0, r5, #36	; 0x24
    89d4:	eb000131 	bl	8ea0 <xTaskRemoveFromEventList>
    89d8:	e3500000 	cmp	r0, #0	; 0x0
    89dc:	13a03001 	movne	r3, #1	; 0x1
    89e0:	15843000 	strne	r3, [r4]
    89e4:	11a00003 	movne	r0, r3
    89e8:	18bd8030 	popne	{r4, r5, pc}
    89ec:	e3a00001 	mov	r0, #1	; 0x1
    89f0:	e8bd8030 	pop	{r4, r5, pc}

000089f4 <xQueueGenericSend>:
    89f4:	e92d4ff0 	push	{r4, r5, r6, r7, r8, r9, sl, fp, lr}
    89f8:	e3a05000 	mov	r5, #0	; 0x0
    89fc:	e24dd00c 	sub	sp, sp, #12	; 0xc
    8a00:	e1a06000 	mov	r6, r0
    8a04:	e58d2000 	str	r2, [sp]
    8a08:	e1a08001 	mov	r8, r1
    8a0c:	e1a0a003 	mov	sl, r3
    8a10:	e2807010 	add	r7, r0, #16	; 0x10
    8a14:	e28db004 	add	fp, sp, #4	; 0x4
    8a18:	e1a09005 	mov	r9, r5
    8a1c:	ea000000 	b	8a24 <xQueueGenericSend+0x30>
    8a20:	e3a05001 	mov	r5, #1	; 0x1
    8a24:	ebfffeab 	bl	84d8 <vPortEnterCritical>
    8a28:	e5962038 	ldr	r2, [r6, #56]
    8a2c:	e596303c 	ldr	r3, [r6, #60]
    8a30:	e1520003 	cmp	r2, r3
    8a34:	2a00000e 	bcs	8a74 <xQueueGenericSend+0x80>
    8a38:	e1a01008 	mov	r1, r8
    8a3c:	e1a0200a 	mov	r2, sl
    8a40:	e1a00006 	mov	r0, r6
    8a44:	ebffffa3 	bl	88d8 <prvCopyDataToQueue>
    8a48:	e5963024 	ldr	r3, [r6, #36]
    8a4c:	e3530000 	cmp	r3, #0	; 0x0
    8a50:	0a000004 	beq	8a68 <xQueueGenericSend+0x74>
    8a54:	e2860024 	add	r0, r6, #36	; 0x24
    8a58:	eb000110 	bl	8ea0 <xTaskRemoveFromEventList>
    8a5c:	e3500001 	cmp	r0, #1	; 0x1
    8a60:	1a000000 	bne	8a68 <xQueueGenericSend+0x74>
    8a64:	ef000000 	svc	0x00000000
    8a68:	ebfffea5 	bl	8504 <vPortExitCritical>
    8a6c:	e3a00001 	mov	r0, #1	; 0x1
    8a70:	ea00002f 	b	8b34 <xQueueGenericSend+0x140>
    8a74:	e59d4000 	ldr	r4, [sp]
    8a78:	e3540000 	cmp	r4, #0	; 0x0
    8a7c:	1a000002 	bne	8a8c <xQueueGenericSend+0x98>
    8a80:	ebfffe9f 	bl	8504 <vPortExitCritical>
    8a84:	e1a00004 	mov	r0, r4
    8a88:	ea000029 	b	8b34 <xQueueGenericSend+0x140>
    8a8c:	e3550000 	cmp	r5, #0	; 0x0
    8a90:	01a0000b 	moveq	r0, fp
    8a94:	0b0000a1 	bleq	8d20 <vTaskSetTimeOutState>
    8a98:	ebfffe99 	bl	8504 <vPortExitCritical>
    8a9c:	eb000078 	bl	8c84 <vTaskSuspendAll>
    8aa0:	ebfffe8c 	bl	84d8 <vPortEnterCritical>
    8aa4:	e5963044 	ldr	r3, [r6, #68]
    8aa8:	e3730001 	cmn	r3, #1	; 0x1
    8aac:	e5963048 	ldr	r3, [r6, #72]
    8ab0:	05869044 	streq	r9, [r6, #68]
    8ab4:	e3730001 	cmn	r3, #1	; 0x1
    8ab8:	05869048 	streq	r9, [r6, #72]
    8abc:	ebfffe90 	bl	8504 <vPortExitCritical>
    8ac0:	e1a0000b 	mov	r0, fp
    8ac4:	e1a0100d 	mov	r1, sp
    8ac8:	eb000195 	bl	9124 <xTaskCheckForTimeOut>
    8acc:	e3500000 	cmp	r0, #0	; 0x0
    8ad0:	1a000013 	bne	8b24 <xQueueGenericSend+0x130>
    8ad4:	ebfffe7f 	bl	84d8 <vPortEnterCritical>
    8ad8:	e5965038 	ldr	r5, [r6, #56]
    8adc:	e596403c 	ldr	r4, [r6, #60]
    8ae0:	ebfffe87 	bl	8504 <vPortExitCritical>
    8ae4:	e1550004 	cmp	r5, r4
    8ae8:	1a000009 	bne	8b14 <xQueueGenericSend+0x120>
    8aec:	e59d1000 	ldr	r1, [sp]
    8af0:	e1a00007 	mov	r0, r7
    8af4:	eb0002de 	bl	9674 <vTaskPlaceOnEventList>
    8af8:	e1a00006 	mov	r0, r6
    8afc:	ebfffed7 	bl	8660 <prvUnlockQueue>
    8b00:	eb0001b6 	bl	91e0 <xTaskResumeAll>
    8b04:	e3500000 	cmp	r0, #0	; 0x0
    8b08:	1affffc4 	bne	8a20 <xQueueGenericSend+0x2c>
    8b0c:	ef000000 	svc	0x00000000
    8b10:	eaffffc2 	b	8a20 <xQueueGenericSend+0x2c>
    8b14:	e1a00006 	mov	r0, r6
    8b18:	ebfffed0 	bl	8660 <prvUnlockQueue>
    8b1c:	eb0001af 	bl	91e0 <xTaskResumeAll>
    8b20:	eaffffbe 	b	8a20 <xQueueGenericSend+0x2c>
    8b24:	e1a00006 	mov	r0, r6
    8b28:	ebfffecc 	bl	8660 <prvUnlockQueue>
    8b2c:	eb0001ab 	bl	91e0 <xTaskResumeAll>
    8b30:	e3a00000 	mov	r0, #0	; 0x0
    8b34:	e28dd00c 	add	sp, sp, #12	; 0xc
    8b38:	e8bd8ff0 	pop	{r4, r5, r6, r7, r8, r9, sl, fp, pc}

00008b3c <xQueueCreateMutex>:
    8b3c:	e92d4030 	push	{r4, r5, lr}
    8b40:	e3a0004c 	mov	r0, #76	; 0x4c
    8b44:	ebfffd3f 	bl	8048 <pvPortMalloc>
    8b48:	e2505000 	subs	r5, r0, #0	; 0x0
    8b4c:	0a000014 	beq	8ba4 <xQueueCreateMutex+0x68>
    8b50:	e3a04000 	mov	r4, #0	; 0x0
    8b54:	e3e02000 	mvn	r2, #0	; 0x0
    8b58:	e3a03001 	mov	r3, #1	; 0x1
    8b5c:	e585303c 	str	r3, [r5, #60]
    8b60:	e5852048 	str	r2, [r5, #72]
    8b64:	e5852044 	str	r2, [r5, #68]
    8b68:	e2850010 	add	r0, r5, #16	; 0x10
    8b6c:	e5854004 	str	r4, [r5, #4]
    8b70:	e5854000 	str	r4, [r5]
    8b74:	e5854008 	str	r4, [r5, #8]
    8b78:	e585400c 	str	r4, [r5, #12]
    8b7c:	e5854038 	str	r4, [r5, #56]
    8b80:	e5854040 	str	r4, [r5, #64]
    8b84:	ebfffd3a 	bl	8074 <vListInitialise>
    8b88:	e2850024 	add	r0, r5, #36	; 0x24
    8b8c:	ebfffd38 	bl	8074 <vListInitialise>
    8b90:	e1a00005 	mov	r0, r5
    8b94:	e1a01004 	mov	r1, r4
    8b98:	e1a02004 	mov	r2, r4
    8b9c:	e1a03004 	mov	r3, r4
    8ba0:	ebffff93 	bl	89f4 <xQueueGenericSend>
    8ba4:	e1a00005 	mov	r0, r5
    8ba8:	e8bd8030 	pop	{r4, r5, pc}

00008bac <xQueueCreate>:
    8bac:	e92d41f0 	push	{r4, r5, r6, r7, r8, lr}
    8bb0:	e2506000 	subs	r6, r0, #0	; 0x0
    8bb4:	e1a07001 	mov	r7, r1
    8bb8:	01a04006 	moveq	r4, r6
    8bbc:	0a00001f 	beq	8c40 <xQueueCreate+0x94>
    8bc0:	e3a0004c 	mov	r0, #76	; 0x4c
    8bc4:	ebfffd1f 	bl	8048 <pvPortMalloc>
    8bc8:	e2504000 	subs	r4, r0, #0	; 0x0
    8bcc:	0a00001b 	beq	8c40 <xQueueCreate+0x94>
    8bd0:	e0080796 	mul	r8, r6, r7
    8bd4:	e2880001 	add	r0, r8, #1	; 0x1
    8bd8:	ebfffd1a 	bl	8048 <pvPortMalloc>
    8bdc:	e3500000 	cmp	r0, #0	; 0x0
    8be0:	e1a05000 	mov	r5, r0
    8be4:	e5840000 	str	r0, [r4]
    8be8:	0a000011 	beq	8c34 <xQueueCreate+0x88>
    8bec:	e2463001 	sub	r3, r6, #1	; 0x1
    8bf0:	e0220397 	mla	r2, r7, r3, r0
    8bf4:	e0803008 	add	r3, r0, r8
    8bf8:	e3e01000 	mvn	r1, #0	; 0x0
    8bfc:	e5843004 	str	r3, [r4, #4]
    8c00:	e3a03000 	mov	r3, #0	; 0x0
    8c04:	e5840008 	str	r0, [r4, #8]
    8c08:	e5843038 	str	r3, [r4, #56]
    8c0c:	e2840010 	add	r0, r4, #16	; 0x10
    8c10:	e584200c 	str	r2, [r4, #12]
    8c14:	e584603c 	str	r6, [r4, #60]
    8c18:	e5847040 	str	r7, [r4, #64]
    8c1c:	e5841048 	str	r1, [r4, #72]
    8c20:	e5841044 	str	r1, [r4, #68]
    8c24:	ebfffd12 	bl	8074 <vListInitialise>
    8c28:	e2840024 	add	r0, r4, #36	; 0x24
    8c2c:	ebfffd10 	bl	8074 <vListInitialise>
    8c30:	ea000002 	b	8c40 <xQueueCreate+0x94>
    8c34:	e1a00004 	mov	r0, r4
    8c38:	ebfffcfa 	bl	8028 <vPortFree>
    8c3c:	e1a04005 	mov	r4, r5
    8c40:	e1a00004 	mov	r0, r4
    8c44:	e8bd81f0 	pop	{r4, r5, r6, r7, r8, pc}

00008c48 <xTaskIsTaskSuspended>:
    8c48:	e5902014 	ldr	r2, [r0, #20]
    8c4c:	e59f3028 	ldr	r3, [pc, #40]	; 8c7c <xTaskIsTaskSuspended+0x34>
    8c50:	e1520003 	cmp	r2, r3
    8c54:	1a000006 	bne	8c74 <xTaskIsTaskSuspended+0x2c>
    8c58:	e5900028 	ldr	r0, [r0, #40]
    8c5c:	e59f301c 	ldr	r3, [pc, #28]	; 8c80 <xTaskIsTaskSuspended+0x38>
    8c60:	e1500003 	cmp	r0, r3
    8c64:	0a000002 	beq	8c74 <xTaskIsTaskSuspended+0x2c>
    8c68:	e2700001 	rsbs	r0, r0, #1	; 0x1
    8c6c:	33a00000 	movcc	r0, #0	; 0x0
    8c70:	e12fff1e 	bx	lr
    8c74:	e3a00000 	mov	r0, #0	; 0x0
    8c78:	e12fff1e 	bx	lr
    8c7c:	40000a2c 	.word	0x40000a2c
    8c80:	40000a18 	.word	0x40000a18

00008c84 <vTaskSuspendAll>:
    8c84:	e59f200c 	ldr	r2, [pc, #12]	; 8c98 <vTaskSuspendAll+0x14>
    8c88:	e5923000 	ldr	r3, [r2]
    8c8c:	e2833001 	add	r3, r3, #1	; 0x1
    8c90:	e5823000 	str	r3, [r2]
    8c94:	e12fff1e 	bx	lr
    8c98:	40000968 	.word	0x40000968

00008c9c <uxTaskGetNumberOfTasks>:
    8c9c:	e59f3004 	ldr	r3, [pc, #4]	; 8ca8 <uxTaskGetNumberOfTasks+0xc>
    8ca0:	e5930000 	ldr	r0, [r3]
    8ca4:	e12fff1e 	bx	lr
    8ca8:	40000978 	.word	0x40000978

00008cac <runTimeStatISREntry>:
    8cac:	e59f3028 	ldr	r3, [pc, #40]	; 8cdc <runTimeStatISREntry+0x30>
    8cb0:	e593c008 	ldr	ip, [r3, #8]
    8cb4:	e59f3024 	ldr	r3, [pc, #36]	; 8ce0 <runTimeStatISREntry+0x34>
    8cb8:	e5931000 	ldr	r1, [r3]
    8cbc:	e59f0020 	ldr	r0, [pc, #32]	; 8ce4 <runTimeStatISREntry+0x38>
    8cc0:	e5913048 	ldr	r3, [r1, #72]
    8cc4:	e5902000 	ldr	r2, [r0]
    8cc8:	e08c3003 	add	r3, ip, r3
    8ccc:	e0623003 	rsb	r3, r2, r3
    8cd0:	e5813048 	str	r3, [r1, #72]
    8cd4:	e580c000 	str	ip, [r0]
    8cd8:	e12fff1e 	bx	lr
    8cdc:	e0008000 	.word	0xe0008000
    8ce0:	40000950 	.word	0x40000950
    8ce4:	4000096c 	.word	0x4000096c

00008ce8 <runTimeStatISRExit>:
    8ce8:	e59f0024 	ldr	r0, [pc, #36]	; 8d14 <runTimeStatISRExit+0x2c>
    8cec:	e59f3024 	ldr	r3, [pc, #36]	; 8d18 <runTimeStatISRExit+0x30>
    8cf0:	e59fc024 	ldr	ip, [pc, #36]	; 8d1c <runTimeStatISRExit+0x34>
    8cf4:	e5931008 	ldr	r1, [r3, #8]
    8cf8:	e5903000 	ldr	r3, [r0]
    8cfc:	e59c2000 	ldr	r2, [ip]
    8d00:	e0813003 	add	r3, r1, r3
    8d04:	e0623003 	rsb	r3, r2, r3
    8d08:	e5803000 	str	r3, [r0]
    8d0c:	e58c1000 	str	r1, [ip]
    8d10:	e12fff1e 	bx	lr
    8d14:	40000958 	.word	0x40000958
    8d18:	e0008000 	.word	0xe0008000
    8d1c:	4000096c 	.word	0x4000096c

00008d20 <vTaskSetTimeOutState>:
    8d20:	e59f3010 	ldr	r3, [pc, #16]	; 8d38 <vTaskSetTimeOutState+0x18>
    8d24:	e5932000 	ldr	r2, [r3]
    8d28:	e59f300c 	ldr	r3, [pc, #12]	; 8d3c <vTaskSetTimeOutState+0x1c>
    8d2c:	e5933000 	ldr	r3, [r3]
    8d30:	e880000c 	stm	r0, {r2, r3}
    8d34:	e12fff1e 	bx	lr
    8d38:	40000964 	.word	0x40000964
    8d3c:	40000954 	.word	0x40000954

00008d40 <vTaskMissedYield>:
    8d40:	e59f3008 	ldr	r3, [pc, #8]	; 8d50 <vTaskMissedYield+0x10>
    8d44:	e3a02001 	mov	r2, #1	; 0x1
    8d48:	e5832000 	str	r2, [r3]
    8d4c:	e12fff1e 	bx	lr
    8d50:	40000960 	.word	0x40000960

00008d54 <uxTaskGetStackHighWaterMark>:
    8d54:	e3500000 	cmp	r0, #0	; 0x0
    8d58:	059f3024 	ldreq	r3, [pc, #36]	; 8d84 <uxTaskGetStackHighWaterMark+0x30>
    8d5c:	05930000 	ldreq	r0, [r3]
    8d60:	e5901030 	ldr	r1, [r0, #48]
    8d64:	e3a02000 	mov	r2, #0	; 0x0
    8d68:	e7d13002 	ldrb	r3, [r1, r2]
    8d6c:	e35300a5 	cmp	r3, #165	; 0xa5
    8d70:	e1a00802 	lsl	r0, r2, #16
    8d74:	e2822001 	add	r2, r2, #1	; 0x1
    8d78:	0afffffa 	beq	8d68 <uxTaskGetStackHighWaterMark+0x14>
    8d7c:	e1a00920 	lsr	r0, r0, #18
    8d80:	e12fff1e 	bx	lr
    8d84:	40000950 	.word	0x40000950

00008d88 <xTaskGetCurrentTaskHandle>:
    8d88:	e59f3004 	ldr	r3, [pc, #4]	; 8d94 <xTaskGetCurrentTaskHandle+0xc>
    8d8c:	e5930000 	ldr	r0, [r3]
    8d90:	e12fff1e 	bx	lr
    8d94:	40000950 	.word	0x40000950

00008d98 <vTaskPriorityDisinherit>:
    8d98:	e92d4030 	push	{r4, r5, lr}
    8d9c:	e2504000 	subs	r4, r0, #0	; 0x0
    8da0:	08bd8030 	popeq	{r4, r5, pc}
    8da4:	e594202c 	ldr	r2, [r4, #44]
    8da8:	e5943044 	ldr	r3, [r4, #68]
    8dac:	e1520003 	cmp	r2, r3
    8db0:	08bd8030 	popeq	{r4, r5, pc}
    8db4:	e2845004 	add	r5, r4, #4	; 0x4
    8db8:	e1a00005 	mov	r0, r5
    8dbc:	ebfffcda 	bl	812c <vListRemove>
    8dc0:	e59f2030 	ldr	r2, [pc, #48]	; 8df8 <vTaskPriorityDisinherit+0x60>
    8dc4:	e5941044 	ldr	r1, [r4, #68]
    8dc8:	e5923000 	ldr	r3, [r2]
    8dcc:	e1510003 	cmp	r1, r3
    8dd0:	e2613005 	rsb	r3, r1, #5	; 0x5
    8dd4:	e5843018 	str	r3, [r4, #24]
    8dd8:	e584102c 	str	r1, [r4, #44]
    8ddc:	85821000 	strhi	r1, [r2]
    8de0:	e59f2014 	ldr	r2, [pc, #20]	; 8dfc <vTaskPriorityDisinherit+0x64>
    8de4:	e3a03014 	mov	r3, #20	; 0x14
    8de8:	e0202193 	mla	r0, r3, r1, r2
    8dec:	e1a01005 	mov	r1, r5
    8df0:	e8bd4030 	pop	{r4, r5, lr}
    8df4:	eafffcaa 	b	80a4 <vListInsertEnd>
    8df8:	4000095c 	.word	0x4000095c
    8dfc:	40000984 	.word	0x40000984

00008e00 <vTaskPriorityInherit>:
    8e00:	e92d4070 	push	{r4, r5, r6, lr}
    8e04:	e59f5088 	ldr	r5, [pc, #136]	; 8e94 <vTaskPriorityInherit+0x94>
    8e08:	e5953000 	ldr	r3, [r5]
    8e0c:	e1a04000 	mov	r4, r0
    8e10:	e593302c 	ldr	r3, [r3, #44]
    8e14:	e590002c 	ldr	r0, [r0, #44]
    8e18:	e1500003 	cmp	r0, r3
    8e1c:	28bd8070 	popcs	{r4, r5, r6, pc}
    8e20:	e59f2070 	ldr	r2, [pc, #112]	; 8e98 <vTaskPriorityInherit+0x98>
    8e24:	e3a03014 	mov	r3, #20	; 0x14
    8e28:	e0212093 	mla	r1, r3, r0, r2
    8e2c:	e5953000 	ldr	r3, [r5]
    8e30:	e5942014 	ldr	r2, [r4, #20]
    8e34:	e593302c 	ldr	r3, [r3, #44]
    8e38:	e1520001 	cmp	r2, r1
    8e3c:	e2633005 	rsb	r3, r3, #5	; 0x5
    8e40:	e5843018 	str	r3, [r4, #24]
    8e44:	15953000 	ldrne	r3, [r5]
    8e48:	1593302c 	ldrne	r3, [r3, #44]
    8e4c:	1584302c 	strne	r3, [r4, #44]
    8e50:	18bd8070 	popne	{r4, r5, r6, pc}
    8e54:	e2846004 	add	r6, r4, #4	; 0x4
    8e58:	e1a00006 	mov	r0, r6
    8e5c:	ebfffcb2 	bl	812c <vListRemove>
    8e60:	e5953000 	ldr	r3, [r5]
    8e64:	e59f2030 	ldr	r2, [pc, #48]	; 8e9c <vTaskPriorityInherit+0x9c>
    8e68:	e593102c 	ldr	r1, [r3, #44]
    8e6c:	e5923000 	ldr	r3, [r2]
    8e70:	e1510003 	cmp	r1, r3
    8e74:	e584102c 	str	r1, [r4, #44]
    8e78:	85821000 	strhi	r1, [r2]
    8e7c:	e59f2014 	ldr	r2, [pc, #20]	; 8e98 <vTaskPriorityInherit+0x98>
    8e80:	e3a03014 	mov	r3, #20	; 0x14
    8e84:	e0202193 	mla	r0, r3, r1, r2
    8e88:	e1a01006 	mov	r1, r6
    8e8c:	e8bd4070 	pop	{r4, r5, r6, lr}
    8e90:	eafffc83 	b	80a4 <vListInsertEnd>
    8e94:	40000950 	.word	0x40000950
    8e98:	40000984 	.word	0x40000984
    8e9c:	4000095c 	.word	0x4000095c

00008ea0 <xTaskRemoveFromEventList>:
    8ea0:	e5903000 	ldr	r3, [r0]
    8ea4:	e3530000 	cmp	r3, #0	; 0x0
    8ea8:	1590300c 	ldrne	r3, [r0, #12]
    8eac:	e92d4030 	push	{r4, r5, lr}
    8eb0:	1593400c 	ldrne	r4, [r3, #12]
    8eb4:	01a04003 	moveq	r4, r3
    8eb8:	e2845018 	add	r5, r4, #24	; 0x18
    8ebc:	e1a00005 	mov	r0, r5
    8ec0:	ebfffc99 	bl	812c <vListRemove>
    8ec4:	e59f3064 	ldr	r3, [pc, #100]	; 8f30 <xTaskRemoveFromEventList+0x90>
    8ec8:	e5933000 	ldr	r3, [r3]
    8ecc:	e3530000 	cmp	r3, #0	; 0x0
    8ed0:	11a01005 	movne	r1, r5
    8ed4:	159f0058 	ldrne	r0, [pc, #88]	; 8f34 <xTaskRemoveFromEventList+0x94>
    8ed8:	1a00000b 	bne	8f0c <xTaskRemoveFromEventList+0x6c>
    8edc:	e2845004 	add	r5, r4, #4	; 0x4
    8ee0:	e1a00005 	mov	r0, r5
    8ee4:	ebfffc90 	bl	812c <vListRemove>
    8ee8:	e59f2048 	ldr	r2, [pc, #72]	; 8f38 <xTaskRemoveFromEventList+0x98>
    8eec:	e594102c 	ldr	r1, [r4, #44]
    8ef0:	e5923000 	ldr	r3, [r2]
    8ef4:	e1510003 	cmp	r1, r3
    8ef8:	85821000 	strhi	r1, [r2]
    8efc:	e59f2038 	ldr	r2, [pc, #56]	; 8f3c <xTaskRemoveFromEventList+0x9c>
    8f00:	e3a03014 	mov	r3, #20	; 0x14
    8f04:	e0202193 	mla	r0, r3, r1, r2
    8f08:	e1a01005 	mov	r1, r5
    8f0c:	ebfffc64 	bl	80a4 <vListInsertEnd>
    8f10:	e59f3028 	ldr	r3, [pc, #40]	; 8f40 <xTaskRemoveFromEventList+0xa0>
    8f14:	e5933000 	ldr	r3, [r3]
    8f18:	e594202c 	ldr	r2, [r4, #44]
    8f1c:	e593002c 	ldr	r0, [r3, #44]
    8f20:	e1520000 	cmp	r2, r0
    8f24:	33a00000 	movcc	r0, #0	; 0x0
    8f28:	23a00001 	movcs	r0, #1	; 0x1
    8f2c:	e8bd8030 	pop	{r4, r5, pc}
    8f30:	40000968 	.word	0x40000968
    8f34:	40000a18 	.word	0x40000a18
    8f38:	4000095c 	.word	0x4000095c
    8f3c:	40000984 	.word	0x40000984
    8f40:	40000950 	.word	0x40000950

00008f44 <vTaskIncrementTick>:
    8f44:	e59f30f0 	ldr	r3, [pc, #240]	; 903c <vTaskIncrementTick+0xf8>
    8f48:	e5933000 	ldr	r3, [r3]
    8f4c:	e3530000 	cmp	r3, #0	; 0x0
    8f50:	e92d47f0 	push	{r4, r5, r6, r7, r8, r9, sl, lr}
    8f54:	1a000033 	bne	9028 <vTaskIncrementTick+0xe4>
    8f58:	e59f30e0 	ldr	r3, [pc, #224]	; 9040 <vTaskIncrementTick+0xfc>
    8f5c:	e5932000 	ldr	r2, [r3]
    8f60:	e2822001 	add	r2, r2, #1	; 0x1
    8f64:	e5832000 	str	r2, [r3]
    8f68:	e5933000 	ldr	r3, [r3]
    8f6c:	e3530000 	cmp	r3, #0	; 0x0
    8f70:	1a00001b 	bne	8fe4 <vTaskIncrementTick+0xa0>
    8f74:	e59f20c8 	ldr	r2, [pc, #200]	; 9044 <vTaskIncrementTick+0x100>
    8f78:	e59f10c8 	ldr	r1, [pc, #200]	; 9048 <vTaskIncrementTick+0x104>
    8f7c:	e5920000 	ldr	r0, [r2]
    8f80:	e5913000 	ldr	r3, [r1]
    8f84:	e5823000 	str	r3, [r2]
    8f88:	e5810000 	str	r0, [r1]
    8f8c:	e59f20b8 	ldr	r2, [pc, #184]	; 904c <vTaskIncrementTick+0x108>
    8f90:	e5923000 	ldr	r3, [r2]
    8f94:	e2833001 	add	r3, r3, #1	; 0x1
    8f98:	e5823000 	str	r3, [r2]
    8f9c:	ea000010 	b	8fe4 <vTaskIncrementTick+0xa0>
    8fa0:	e5992000 	ldr	r2, [r9]
    8fa4:	e5943004 	ldr	r3, [r4, #4]
    8fa8:	e1520003 	cmp	r2, r3
    8fac:	38bd87f0 	popcc	{r4, r5, r6, r7, r8, r9, sl, pc}
    8fb0:	ebfffc5d 	bl	812c <vListRemove>
    8fb4:	e5943028 	ldr	r3, [r4, #40]
    8fb8:	e3530000 	cmp	r3, #0	; 0x0
    8fbc:	e2840018 	add	r0, r4, #24	; 0x18
    8fc0:	1bfffc59 	blne	812c <vListRemove>
    8fc4:	e594202c 	ldr	r2, [r4, #44]
    8fc8:	e5963000 	ldr	r3, [r6]
    8fcc:	e020a298 	mla	r0, r8, r2, sl
    8fd0:	e1520003 	cmp	r2, r3
    8fd4:	e1a01005 	mov	r1, r5
    8fd8:	85862000 	strhi	r2, [r6]
    8fdc:	ebfffc30 	bl	80a4 <vListInsertEnd>
    8fe0:	ea000004 	b	8ff8 <vTaskIncrementTick+0xb4>
    8fe4:	e59f7058 	ldr	r7, [pc, #88]	; 9044 <vTaskIncrementTick+0x100>
    8fe8:	e59f9050 	ldr	r9, [pc, #80]	; 9040 <vTaskIncrementTick+0xfc>
    8fec:	e59f605c 	ldr	r6, [pc, #92]	; 9050 <vTaskIncrementTick+0x10c>
    8ff0:	e59fa05c 	ldr	sl, [pc, #92]	; 9054 <vTaskIncrementTick+0x110>
    8ff4:	e3a08014 	mov	r8, #20	; 0x14
    8ff8:	e5973000 	ldr	r3, [r7]
    8ffc:	e5933000 	ldr	r3, [r3]
    9000:	e3530000 	cmp	r3, #0	; 0x0
    9004:	08bd87f0 	popeq	{r4, r5, r6, r7, r8, r9, sl, pc}
    9008:	e5973000 	ldr	r3, [r7]
    900c:	e593300c 	ldr	r3, [r3, #12]
    9010:	e593400c 	ldr	r4, [r3, #12]
    9014:	e2845004 	add	r5, r4, #4	; 0x4
    9018:	e3540000 	cmp	r4, #0	; 0x0
    901c:	e1a00005 	mov	r0, r5
    9020:	1affffde 	bne	8fa0 <vTaskIncrementTick+0x5c>
    9024:	e8bd87f0 	pop	{r4, r5, r6, r7, r8, r9, sl, pc}
    9028:	e59f2028 	ldr	r2, [pc, #40]	; 9058 <vTaskIncrementTick+0x114>
    902c:	e5923000 	ldr	r3, [r2]
    9030:	e2833001 	add	r3, r3, #1	; 0x1
    9034:	e5823000 	str	r3, [r2]
    9038:	e8bd87f0 	pop	{r4, r5, r6, r7, r8, r9, sl, pc}
    903c:	40000968 	.word	0x40000968
    9040:	40000954 	.word	0x40000954
    9044:	40000a10 	.word	0x40000a10
    9048:	40000a14 	.word	0x40000a14
    904c:	40000964 	.word	0x40000964
    9050:	4000095c 	.word	0x4000095c
    9054:	40000984 	.word	0x40000984
    9058:	40000970 	.word	0x40000970

0000905c <xTaskResumeFromISR>:
    905c:	e5902014 	ldr	r2, [r0, #20]
    9060:	e59f30a4 	ldr	r3, [pc, #164]	; 910c <xTaskResumeFromISR+0xb0>
    9064:	e1520003 	cmp	r2, r3
    9068:	e92d40f0 	push	{r4, r5, r6, r7, lr}
    906c:	e1a05000 	mov	r5, r0
    9070:	1a00001d 	bne	90ec <xTaskResumeFromISR+0x90>
    9074:	e5904028 	ldr	r4, [r0, #40]
    9078:	e59f0090 	ldr	r0, [pc, #144]	; 9110 <xTaskResumeFromISR+0xb4>
    907c:	e1540000 	cmp	r4, r0
    9080:	0a000019 	beq	90ec <xTaskResumeFromISR+0x90>
    9084:	e3540000 	cmp	r4, #0	; 0x0
    9088:	1a000017 	bne	90ec <xTaskResumeFromISR+0x90>
    908c:	ea000019 	b	90f8 <xTaskResumeFromISR+0x9c>
    9090:	e59f307c 	ldr	r3, [pc, #124]	; 9114 <xTaskResumeFromISR+0xb8>
    9094:	e2854004 	add	r4, r5, #4	; 0x4
    9098:	e5933000 	ldr	r3, [r3]
    909c:	e1a00004 	mov	r0, r4
    90a0:	e593702c 	ldr	r7, [r3, #44]
    90a4:	e595602c 	ldr	r6, [r5, #44]
    90a8:	ebfffc1f 	bl	812c <vListRemove>
    90ac:	e59f2064 	ldr	r2, [pc, #100]	; 9118 <xTaskResumeFromISR+0xbc>
    90b0:	e595102c 	ldr	r1, [r5, #44]
    90b4:	e5923000 	ldr	r3, [r2]
    90b8:	e1510003 	cmp	r1, r3
    90bc:	85821000 	strhi	r1, [r2]
    90c0:	e59f2054 	ldr	r2, [pc, #84]	; 911c <xTaskResumeFromISR+0xc0>
    90c4:	e3a03014 	mov	r3, #20	; 0x14
    90c8:	e0202193 	mla	r0, r3, r1, r2
    90cc:	e1a01004 	mov	r1, r4
    90d0:	e1560007 	cmp	r6, r7
    90d4:	33a04000 	movcc	r4, #0	; 0x0
    90d8:	23a04001 	movcs	r4, #1	; 0x1
    90dc:	ea000000 	b	90e4 <xTaskResumeFromISR+0x88>
    90e0:	e2851018 	add	r1, r5, #24	; 0x18
    90e4:	ebfffbee 	bl	80a4 <vListInsertEnd>
    90e8:	ea000000 	b	90f0 <xTaskResumeFromISR+0x94>
    90ec:	e3a04000 	mov	r4, #0	; 0x0
    90f0:	e1a00004 	mov	r0, r4
    90f4:	e8bd80f0 	pop	{r4, r5, r6, r7, pc}
    90f8:	e59f3020 	ldr	r3, [pc, #32]	; 9120 <xTaskResumeFromISR+0xc4>
    90fc:	e5933000 	ldr	r3, [r3]
    9100:	e3530000 	cmp	r3, #0	; 0x0
    9104:	0affffe1 	beq	9090 <xTaskResumeFromISR+0x34>
    9108:	eafffff4 	b	90e0 <xTaskResumeFromISR+0x84>
    910c:	40000a2c 	.word	0x40000a2c
    9110:	40000a18 	.word	0x40000a18
    9114:	40000950 	.word	0x40000950
    9118:	4000095c 	.word	0x4000095c
    911c:	40000984 	.word	0x40000984
    9120:	40000968 	.word	0x40000968

00009124 <xTaskCheckForTimeOut>:
    9124:	e92d4030 	push	{r4, r5, lr}
    9128:	e1a05001 	mov	r5, r1
    912c:	e1a04000 	mov	r4, r0
    9130:	ebfffce8 	bl	84d8 <vPortEnterCritical>
    9134:	e5951000 	ldr	r1, [r5]
    9138:	e3710001 	cmn	r1, #1	; 0x1
    913c:	0a000017 	beq	91a0 <xTaskCheckForTimeOut+0x7c>
    9140:	e59f3070 	ldr	r3, [pc, #112]	; 91b8 <xTaskCheckForTimeOut+0x94>
    9144:	e5932000 	ldr	r2, [r3]
    9148:	e5943000 	ldr	r3, [r4]
    914c:	e1520003 	cmp	r2, r3
    9150:	0a000004 	beq	9168 <xTaskCheckForTimeOut+0x44>
    9154:	e59f3060 	ldr	r3, [pc, #96]	; 91bc <xTaskCheckForTimeOut+0x98>
    9158:	e5932000 	ldr	r2, [r3]
    915c:	e5943004 	ldr	r3, [r4, #4]
    9160:	e1520003 	cmp	r2, r3
    9164:	2a00000f 	bcs	91a8 <xTaskCheckForTimeOut+0x84>
    9168:	e59f004c 	ldr	r0, [pc, #76]	; 91bc <xTaskCheckForTimeOut+0x98>
    916c:	e5942004 	ldr	r2, [r4, #4]
    9170:	e5903000 	ldr	r3, [r0]
    9174:	e0623003 	rsb	r3, r2, r3
    9178:	e1530001 	cmp	r3, r1
    917c:	2a000009 	bcs	91a8 <xTaskCheckForTimeOut+0x84>
    9180:	e5903000 	ldr	r3, [r0]
    9184:	e0633002 	rsb	r3, r3, r2
    9188:	e0833001 	add	r3, r3, r1
    918c:	e5853000 	str	r3, [r5]
    9190:	e59f3020 	ldr	r3, [pc, #32]	; 91b8 <xTaskCheckForTimeOut+0x94>
    9194:	e5932000 	ldr	r2, [r3]
    9198:	e5903000 	ldr	r3, [r0]
    919c:	e884000c 	stm	r4, {r2, r3}
    91a0:	e3a04000 	mov	r4, #0	; 0x0
    91a4:	ea000000 	b	91ac <xTaskCheckForTimeOut+0x88>
    91a8:	e3a04001 	mov	r4, #1	; 0x1
    91ac:	ebfffcd4 	bl	8504 <vPortExitCritical>
    91b0:	e1a00004 	mov	r0, r4
    91b4:	e8bd8030 	pop	{r4, r5, pc}
    91b8:	40000964 	.word	0x40000964
    91bc:	40000954 	.word	0x40000954

000091c0 <xTaskGetTickCount>:
    91c0:	e92d4010 	push	{r4, lr}
    91c4:	ebfffcc3 	bl	84d8 <vPortEnterCritical>
    91c8:	e59f300c 	ldr	r3, [pc, #12]	; 91dc <xTaskGetTickCount+0x1c>
    91cc:	e5934000 	ldr	r4, [r3]
    91d0:	ebfffccb 	bl	8504 <vPortExitCritical>
    91d4:	e1a00004 	mov	r0, r4
    91d8:	e8bd8010 	pop	{r4, pc}
    91dc:	40000954 	.word	0x40000954

000091e0 <xTaskResumeAll>:
    91e0:	e92d4ff0 	push	{r4, r5, r6, r7, r8, r9, sl, fp, lr}
    91e4:	ebfffcbb 	bl	84d8 <vPortEnterCritical>
    91e8:	e59f2118 	ldr	r2, [pc, #280]	; 9308 <xTaskResumeAll+0x128>
    91ec:	e5923000 	ldr	r3, [r2]
    91f0:	e2433001 	sub	r3, r3, #1	; 0x1
    91f4:	e5823000 	str	r3, [r2]
    91f8:	e5922000 	ldr	r2, [r2]
    91fc:	e3520000 	cmp	r2, #0	; 0x0
    9200:	1a00003c 	bne	92f8 <xTaskResumeAll+0x118>
    9204:	e59f3100 	ldr	r3, [pc, #256]	; 930c <xTaskResumeAll+0x12c>
    9208:	e5933000 	ldr	r3, [r3]
    920c:	e3530000 	cmp	r3, #0	; 0x0
    9210:	0a000038 	beq	92f8 <xTaskResumeAll+0x118>
    9214:	e1a06002 	mov	r6, r2
    9218:	e59f80f0 	ldr	r8, [pc, #240]	; 9310 <xTaskResumeAll+0x130>
    921c:	e59f70f0 	ldr	r7, [pc, #240]	; 9314 <xTaskResumeAll+0x134>
    9220:	e3a0b014 	mov	fp, #20	; 0x14
    9224:	e59f90ec 	ldr	r9, [pc, #236]	; 9318 <xTaskResumeAll+0x138>
    9228:	e59fa0ec 	ldr	sl, [pc, #236]	; 931c <xTaskResumeAll+0x13c>
    922c:	ea00000e 	b	926c <xTaskResumeAll+0x8c>
    9230:	ebfffbbd 	bl	812c <vListRemove>
    9234:	e1a00005 	mov	r0, r5
    9238:	ebfffbbb 	bl	812c <vListRemove>
    923c:	e594202c 	ldr	r2, [r4, #44]
    9240:	e5973000 	ldr	r3, [r7]
    9244:	e020929b 	mla	r0, fp, r2, r9
    9248:	e1520003 	cmp	r2, r3
    924c:	e1a01005 	mov	r1, r5
    9250:	85872000 	strhi	r2, [r7]
    9254:	ebfffb92 	bl	80a4 <vListInsertEnd>
    9258:	e59a3000 	ldr	r3, [sl]
    925c:	e594202c 	ldr	r2, [r4, #44]
    9260:	e593302c 	ldr	r3, [r3, #44]
    9264:	e1520003 	cmp	r2, r3
    9268:	23a06001 	movcs	r6, #1	; 0x1
    926c:	e5983000 	ldr	r3, [r8]
    9270:	e3530000 	cmp	r3, #0	; 0x0
    9274:	0a000005 	beq	9290 <xTaskResumeAll+0xb0>
    9278:	e598300c 	ldr	r3, [r8, #12]
    927c:	e593400c 	ldr	r4, [r3, #12]
    9280:	e3540000 	cmp	r4, #0	; 0x0
    9284:	e2840018 	add	r0, r4, #24	; 0x18
    9288:	e2845004 	add	r5, r4, #4	; 0x4
    928c:	1affffe7 	bne	9230 <xTaskResumeAll+0x50>
    9290:	e59f2088 	ldr	r2, [pc, #136]	; 9320 <xTaskResumeAll+0x140>
    9294:	e5923000 	ldr	r3, [r2]
    9298:	e3530000 	cmp	r3, #0	; 0x0
    929c:	11a04002 	movne	r4, r2
    92a0:	1a000004 	bne	92b8 <xTaskResumeAll+0xd8>
    92a4:	ea000007 	b	92c8 <xTaskResumeAll+0xe8>
    92a8:	ebffff25 	bl	8f44 <vTaskIncrementTick>
    92ac:	e5943000 	ldr	r3, [r4]
    92b0:	e2433001 	sub	r3, r3, #1	; 0x1
    92b4:	e5843000 	str	r3, [r4]
    92b8:	e5943000 	ldr	r3, [r4]
    92bc:	e3530000 	cmp	r3, #0	; 0x0
    92c0:	1afffff8 	bne	92a8 <xTaskResumeAll+0xc8>
    92c4:	ea000005 	b	92e0 <xTaskResumeAll+0x100>
    92c8:	e3560001 	cmp	r6, #1	; 0x1
    92cc:	0a000003 	beq	92e0 <xTaskResumeAll+0x100>
    92d0:	e59f304c 	ldr	r3, [pc, #76]	; 9324 <xTaskResumeAll+0x144>
    92d4:	e5933000 	ldr	r3, [r3]
    92d8:	e3530001 	cmp	r3, #1	; 0x1
    92dc:	1a000005 	bne	92f8 <xTaskResumeAll+0x118>
    92e0:	e59f303c 	ldr	r3, [pc, #60]	; 9324 <xTaskResumeAll+0x144>
    92e4:	e3a02000 	mov	r2, #0	; 0x0
    92e8:	e5832000 	str	r2, [r3]
    92ec:	ef000000 	svc	0x00000000
    92f0:	e3a04001 	mov	r4, #1	; 0x1
    92f4:	ea000000 	b	92fc <xTaskResumeAll+0x11c>
    92f8:	e3a04000 	mov	r4, #0	; 0x0
    92fc:	ebfffc80 	bl	8504 <vPortExitCritical>
    9300:	e1a00004 	mov	r0, r4
    9304:	e8bd8ff0 	pop	{r4, r5, r6, r7, r8, r9, sl, fp, pc}
    9308:	40000968 	.word	0x40000968
    930c:	40000978 	.word	0x40000978
    9310:	40000a18 	.word	0x40000a18
    9314:	4000095c 	.word	0x4000095c
    9318:	40000984 	.word	0x40000984
    931c:	40000950 	.word	0x40000950
    9320:	40000970 	.word	0x40000970
    9324:	40000960 	.word	0x40000960

00009328 <uxTaskGetIdlePercentage>:
    9328:	e59f30e8 	ldr	r3, [pc, #232]	; 9418 <uxTaskGetIdlePercentage+0xf0>
    932c:	e593c008 	ldr	ip, [r3, #8]
    9330:	e35c0000 	cmp	ip, #0	; 0x0
    9334:	e92d4010 	push	{r4, lr}
    9338:	01a0400c 	moveq	r4, ip
    933c:	0a000033 	beq	9410 <uxTaskGetIdlePercentage+0xe8>
    9340:	e59f20d4 	ldr	r2, [pc, #212]	; 941c <uxTaskGetIdlePercentage+0xf4>
    9344:	e5923000 	ldr	r3, [r2]
    9348:	e59f10d0 	ldr	r1, [pc, #208]	; 9420 <uxTaskGetIdlePercentage+0xf8>
    934c:	e2833001 	add	r3, r3, #1	; 0x1
    9350:	e5823000 	str	r3, [r2]
    9354:	e5913004 	ldr	r3, [r1, #4]
    9358:	e5932004 	ldr	r2, [r3, #4]
    935c:	e2813008 	add	r3, r1, #8	; 0x8
    9360:	e5812004 	str	r2, [r1, #4]
    9364:	e1520003 	cmp	r2, r3
    9368:	05923004 	ldreq	r3, [r2, #4]
    936c:	05813004 	streq	r3, [r1, #4]
    9370:	e59f30a8 	ldr	r3, [pc, #168]	; 9420 <uxTaskGetIdlePercentage+0xf8>
    9374:	e5932004 	ldr	r2, [r3, #4]
    9378:	e592000c 	ldr	r0, [r2, #12]
    937c:	e1a01003 	mov	r1, r3
    9380:	e283e008 	add	lr, r3, #8	; 0x8
    9384:	e5913004 	ldr	r3, [r1, #4]
    9388:	e5933004 	ldr	r3, [r3, #4]
    938c:	e5813004 	str	r3, [r1, #4]
    9390:	e153000e 	cmp	r3, lr
    9394:	059e3004 	ldreq	r3, [lr, #4]
    9398:	05813004 	streq	r3, [r1, #4]
    939c:	e5913004 	ldr	r3, [r1, #4]
    93a0:	e593200c 	ldr	r2, [r3, #12]
    93a4:	e5d23034 	ldrb	r3, [r2, #52]
    93a8:	e3530049 	cmp	r3, #73	; 0x49
    93ac:	1a000013 	bne	9400 <uxTaskGetIdlePercentage+0xd8>
    93b0:	e5d23035 	ldrb	r3, [r2, #53]
    93b4:	e3530044 	cmp	r3, #68	; 0x44
    93b8:	1a000010 	bne	9400 <uxTaskGetIdlePercentage+0xd8>
    93bc:	e5d23036 	ldrb	r3, [r2, #54]
    93c0:	e353004c 	cmp	r3, #76	; 0x4c
    93c4:	1a00000d 	bne	9400 <uxTaskGetIdlePercentage+0xd8>
    93c8:	e5d23037 	ldrb	r3, [r2, #55]
    93cc:	e3530045 	cmp	r3, #69	; 0x45
    93d0:	1a00000a 	bne	9400 <uxTaskGetIdlePercentage+0xd8>
    93d4:	e5923048 	ldr	r3, [r2, #72]
    93d8:	e3530000 	cmp	r3, #0	; 0x0
    93dc:	0a000009 	beq	9408 <uxTaskGetIdlePercentage+0xe0>
    93e0:	e5922048 	ldr	r2, [r2, #72]
    93e4:	e3a03064 	mov	r3, #100	; 0x64
    93e8:	e0810392 	umull	r0, r1, r2, r3
    93ec:	e1a0200c 	mov	r2, ip
    93f0:	e3a03000 	mov	r3, #0	; 0x0
    93f4:	eb0003cd 	bl	a330 <__divdi3>
    93f8:	e1a04000 	mov	r4, r0
    93fc:	ea000002 	b	940c <uxTaskGetIdlePercentage+0xe4>
    9400:	e1520000 	cmp	r2, r0
    9404:	1affffde 	bne	9384 <uxTaskGetIdlePercentage+0x5c>
    9408:	e3a04000 	mov	r4, #0	; 0x0
    940c:	ebffff73 	bl	91e0 <xTaskResumeAll>
    9410:	e1a00004 	mov	r0, r4
    9414:	e8bd8010 	pop	{r4, pc}
    9418:	e0008000 	.word	0xe0008000
    941c:	40000968 	.word	0x40000968
    9420:	40000984 	.word	0x40000984

00009424 <vTaskResume>:
    9424:	e92d4030 	push	{r4, r5, lr}
    9428:	e2504000 	subs	r4, r0, #0	; 0x0
    942c:	08bd8030 	popeq	{r4, r5, pc}
    9430:	e59f3094 	ldr	r3, [pc, #148]	; 94cc <vTaskResume+0xa8>
    9434:	e5933000 	ldr	r3, [r3]
    9438:	e1540003 	cmp	r4, r3
    943c:	08bd8030 	popeq	{r4, r5, pc}
    9440:	ebfffc24 	bl	84d8 <vPortEnterCritical>
    9444:	e5942014 	ldr	r2, [r4, #20]
    9448:	e59f3080 	ldr	r3, [pc, #128]	; 94d0 <vTaskResume+0xac>
    944c:	e1520003 	cmp	r2, r3
    9450:	1a000007 	bne	9474 <vTaskResume+0x50>
    9454:	e5942028 	ldr	r2, [r4, #40]
    9458:	e59f3074 	ldr	r3, [pc, #116]	; 94d4 <vTaskResume+0xb0>
    945c:	e1520003 	cmp	r2, r3
    9460:	0a000003 	beq	9474 <vTaskResume+0x50>
    9464:	e3520000 	cmp	r2, #0	; 0x0
    9468:	1a000001 	bne	9474 <vTaskResume+0x50>
    946c:	ea000002 	b	947c <vTaskResume+0x58>
    9470:	ef000000 	svc	0x00000000
    9474:	e8bd4030 	pop	{r4, r5, lr}
    9478:	eafffc21 	b	8504 <vPortExitCritical>
    947c:	e2845004 	add	r5, r4, #4	; 0x4
    9480:	e1a00005 	mov	r0, r5
    9484:	ebfffb28 	bl	812c <vListRemove>
    9488:	e59f2048 	ldr	r2, [pc, #72]	; 94d8 <vTaskResume+0xb4>
    948c:	e594102c 	ldr	r1, [r4, #44]
    9490:	e5923000 	ldr	r3, [r2]
    9494:	e1510003 	cmp	r1, r3
    9498:	85821000 	strhi	r1, [r2]
    949c:	e59f2038 	ldr	r2, [pc, #56]	; 94dc <vTaskResume+0xb8>
    94a0:	e3a03014 	mov	r3, #20	; 0x14
    94a4:	e0202193 	mla	r0, r3, r1, r2
    94a8:	e1a01005 	mov	r1, r5
    94ac:	ebfffafc 	bl	80a4 <vListInsertEnd>
    94b0:	e59f3014 	ldr	r3, [pc, #20]	; 94cc <vTaskResume+0xa8>
    94b4:	e5933000 	ldr	r3, [r3]
    94b8:	e594202c 	ldr	r2, [r4, #44]
    94bc:	e593302c 	ldr	r3, [r3, #44]
    94c0:	e1520003 	cmp	r2, r3
    94c4:	3affffea 	bcc	9474 <vTaskResume+0x50>
    94c8:	eaffffe8 	b	9470 <vTaskResume+0x4c>
    94cc:	40000950 	.word	0x40000950
    94d0:	40000a2c 	.word	0x40000a2c
    94d4:	40000a18 	.word	0x40000a18
    94d8:	4000095c 	.word	0x4000095c
    94dc:	40000984 	.word	0x40000984

000094e0 <vTaskSuspend>:
    94e0:	e92d4070 	push	{r4, r5, r6, lr}
    94e4:	e1a05000 	mov	r5, r0
    94e8:	ebfffbfa 	bl	84d8 <vPortEnterCritical>
    94ec:	e59f305c 	ldr	r3, [pc, #92]	; 9550 <vTaskSuspend+0x70>
    94f0:	e5933000 	ldr	r3, [r3]
    94f4:	e1550003 	cmp	r5, r3
    94f8:	03a05000 	moveq	r5, #0	; 0x0
    94fc:	0a000002 	beq	950c <vTaskSuspend+0x2c>
    9500:	e3550000 	cmp	r5, #0	; 0x0
    9504:	11a04005 	movne	r4, r5
    9508:	1a000001 	bne	9514 <vTaskSuspend+0x34>
    950c:	e59f303c 	ldr	r3, [pc, #60]	; 9550 <vTaskSuspend+0x70>
    9510:	e5934000 	ldr	r4, [r3]
    9514:	e2846004 	add	r6, r4, #4	; 0x4
    9518:	e1a00006 	mov	r0, r6
    951c:	ebfffb02 	bl	812c <vListRemove>
    9520:	e5943028 	ldr	r3, [r4, #40]
    9524:	e3530000 	cmp	r3, #0	; 0x0
    9528:	12840018 	addne	r0, r4, #24	; 0x18
    952c:	1bfffafe 	blne	812c <vListRemove>
    9530:	e1a01006 	mov	r1, r6
    9534:	e59f0018 	ldr	r0, [pc, #24]	; 9554 <vTaskSuspend+0x74>
    9538:	ebfffad9 	bl	80a4 <vListInsertEnd>
    953c:	ebfffbf0 	bl	8504 <vPortExitCritical>
    9540:	e3550000 	cmp	r5, #0	; 0x0
    9544:	18bd8070 	popne	{r4, r5, r6, pc}
    9548:	ef000000 	svc	0x00000000
    954c:	e8bd8070 	pop	{r4, r5, r6, pc}
    9550:	40000950 	.word	0x40000950
    9554:	40000a2c 	.word	0x40000a2c

00009558 <vTaskPrioritySet>:
    9558:	e92d40f0 	push	{r4, r5, r6, r7, lr}
    955c:	e1a05000 	mov	r5, r0
    9560:	e3510004 	cmp	r1, #4	; 0x4
    9564:	31a06001 	movcc	r6, r1
    9568:	23a06004 	movcs	r6, #4	; 0x4
    956c:	ebfffbd9 	bl	84d8 <vPortEnterCritical>
    9570:	e59f30c0 	ldr	r3, [pc, #192]	; 9638 <vTaskPrioritySet+0xe0>
    9574:	e5933000 	ldr	r3, [r3]
    9578:	e1550003 	cmp	r5, r3
    957c:	03a05000 	moveq	r5, #0	; 0x0
    9580:	0a000002 	beq	9590 <vTaskPrioritySet+0x38>
    9584:	e3550000 	cmp	r5, #0	; 0x0
    9588:	11a04005 	movne	r4, r5
    958c:	1a000001 	bne	9598 <vTaskPrioritySet+0x40>
    9590:	e59f30a0 	ldr	r3, [pc, #160]	; 9638 <vTaskPrioritySet+0xe0>
    9594:	e5934000 	ldr	r4, [r3]
    9598:	e5941044 	ldr	r1, [r4, #68]
    959c:	e1510006 	cmp	r1, r6
    95a0:	0a000022 	beq	9630 <vTaskPrioritySet+0xd8>
    95a4:	e1560001 	cmp	r6, r1
    95a8:	9a000002 	bls	95b8 <vTaskPrioritySet+0x60>
    95ac:	e2557000 	subs	r7, r5, #0	; 0x0
    95b0:	13a07001 	movne	r7, #1	; 0x1
    95b4:	ea000001 	b	95c0 <vTaskPrioritySet+0x68>
    95b8:	e2757001 	rsbs	r7, r5, #1	; 0x1
    95bc:	33a07000 	movcc	r7, #0	; 0x0
    95c0:	e594302c 	ldr	r3, [r4, #44]
    95c4:	e59f2070 	ldr	r2, [pc, #112]	; 963c <vTaskPrioritySet+0xe4>
    95c8:	e1510003 	cmp	r1, r3
    95cc:	e3a03014 	mov	r3, #20	; 0x14
    95d0:	e0222193 	mla	r2, r3, r1, r2
    95d4:	e5943014 	ldr	r3, [r4, #20]
    95d8:	0584602c 	streq	r6, [r4, #44]
    95dc:	e1530002 	cmp	r3, r2
    95e0:	e2663005 	rsb	r3, r6, #5	; 0x5
    95e4:	e5843018 	str	r3, [r4, #24]
    95e8:	e5846044 	str	r6, [r4, #68]
    95ec:	1a00000c 	bne	9624 <vTaskPrioritySet+0xcc>
    95f0:	e2845004 	add	r5, r4, #4	; 0x4
    95f4:	e1a00005 	mov	r0, r5
    95f8:	ebfffacb 	bl	812c <vListRemove>
    95fc:	e59f203c 	ldr	r2, [pc, #60]	; 9640 <vTaskPrioritySet+0xe8>
    9600:	e594102c 	ldr	r1, [r4, #44]
    9604:	e5923000 	ldr	r3, [r2]
    9608:	e1510003 	cmp	r1, r3
    960c:	85821000 	strhi	r1, [r2]
    9610:	e59f2024 	ldr	r2, [pc, #36]	; 963c <vTaskPrioritySet+0xe4>
    9614:	e3a03014 	mov	r3, #20	; 0x14
    9618:	e0202193 	mla	r0, r3, r1, r2
    961c:	e1a01005 	mov	r1, r5
    9620:	ebfffa9f 	bl	80a4 <vListInsertEnd>
    9624:	e3570001 	cmp	r7, #1	; 0x1
    9628:	1a000000 	bne	9630 <vTaskPrioritySet+0xd8>
    962c:	ef000000 	svc	0x00000000
    9630:	e8bd40f0 	pop	{r4, r5, r6, r7, lr}
    9634:	eafffbb2 	b	8504 <vPortExitCritical>
    9638:	40000950 	.word	0x40000950
    963c:	40000984 	.word	0x40000984
    9640:	4000095c 	.word	0x4000095c

00009644 <uxTaskPriorityGet>:
    9644:	e92d4010 	push	{r4, lr}
    9648:	e1a04000 	mov	r4, r0
    964c:	ebfffba1 	bl	84d8 <vPortEnterCritical>
    9650:	e3540000 	cmp	r4, #0	; 0x0
    9654:	059f3014 	ldreq	r3, [pc, #20]	; 9670 <uxTaskPriorityGet+0x2c>
    9658:	05930000 	ldreq	r0, [r3]
    965c:	11a00004 	movne	r0, r4
    9660:	e590402c 	ldr	r4, [r0, #44]
    9664:	ebfffba6 	bl	8504 <vPortExitCritical>
    9668:	e1a00004 	mov	r0, r4
    966c:	e8bd8010 	pop	{r4, pc}
    9670:	40000950 	.word	0x40000950

00009674 <vTaskPlaceOnEventList>:
    9674:	e92d4030 	push	{r4, r5, lr}
    9678:	e59f406c 	ldr	r4, [pc, #108]	; 96ec <vTaskPlaceOnEventList+0x78>
    967c:	e5943000 	ldr	r3, [r4]
    9680:	e1a05001 	mov	r5, r1
    9684:	e2831018 	add	r1, r3, #24	; 0x18
    9688:	ebfffa92 	bl	80d8 <vListInsert>
    968c:	e5940000 	ldr	r0, [r4]
    9690:	e2800004 	add	r0, r0, #4	; 0x4
    9694:	ebfffaa4 	bl	812c <vListRemove>
    9698:	e3750001 	cmn	r5, #1	; 0x1
    969c:	1a000004 	bne	96b4 <vTaskPlaceOnEventList+0x40>
    96a0:	e5941000 	ldr	r1, [r4]
    96a4:	e59f0044 	ldr	r0, [pc, #68]	; 96f0 <vTaskPlaceOnEventList+0x7c>
    96a8:	e2811004 	add	r1, r1, #4	; 0x4
    96ac:	e8bd4030 	pop	{r4, r5, lr}
    96b0:	eafffa7b 	b	80a4 <vListInsertEnd>
    96b4:	e59f2038 	ldr	r2, [pc, #56]	; 96f4 <vTaskPlaceOnEventList+0x80>
    96b8:	e5923000 	ldr	r3, [r2]
    96bc:	e5941000 	ldr	r1, [r4]
    96c0:	e5922000 	ldr	r2, [r2]
    96c4:	e0853003 	add	r3, r5, r3
    96c8:	e1530002 	cmp	r3, r2
    96cc:	e5813004 	str	r3, [r1, #4]
    96d0:	359f3020 	ldrcc	r3, [pc, #32]	; 96f8 <vTaskPlaceOnEventList+0x84>
    96d4:	259f3020 	ldrcs	r3, [pc, #32]	; 96fc <vTaskPlaceOnEventList+0x88>
    96d8:	e5930000 	ldr	r0, [r3]
    96dc:	e5941000 	ldr	r1, [r4]
    96e0:	e2811004 	add	r1, r1, #4	; 0x4
    96e4:	e8bd4030 	pop	{r4, r5, lr}
    96e8:	eafffa7a 	b	80d8 <vListInsert>
    96ec:	40000950 	.word	0x40000950
    96f0:	40000a2c 	.word	0x40000a2c
    96f4:	40000954 	.word	0x40000954
    96f8:	40000a14 	.word	0x40000a14
    96fc:	40000a10 	.word	0x40000a10

00009700 <vTaskDelay>:
    9700:	e2501000 	subs	r1, r0, #0	; 0x0
    9704:	e92d4070 	push	{r4, r5, r6, lr}
    9708:	0a000017 	beq	976c <vTaskDelay+0x6c>
    970c:	e59f2060 	ldr	r2, [pc, #96]	; 9774 <vTaskDelay+0x74>
    9710:	e5923000 	ldr	r3, [r2]
    9714:	e2833001 	add	r3, r3, #1	; 0x1
    9718:	e5823000 	str	r3, [r2]
    971c:	e59f6054 	ldr	r6, [pc, #84]	; 9778 <vTaskDelay+0x78>
    9720:	e59f5054 	ldr	r5, [pc, #84]	; 977c <vTaskDelay+0x7c>
    9724:	e5954000 	ldr	r4, [r5]
    9728:	e5960000 	ldr	r0, [r6]
    972c:	e2800004 	add	r0, r0, #4	; 0x4
    9730:	e0814004 	add	r4, r1, r4
    9734:	ebfffa7c 	bl	812c <vListRemove>
    9738:	e5962000 	ldr	r2, [r6]
    973c:	e5953000 	ldr	r3, [r5]
    9740:	e1540003 	cmp	r4, r3
    9744:	359f3034 	ldrcc	r3, [pc, #52]	; 9780 <vTaskDelay+0x80>
    9748:	259f3034 	ldrcs	r3, [pc, #52]	; 9784 <vTaskDelay+0x84>
    974c:	e5930000 	ldr	r0, [r3]
    9750:	e5961000 	ldr	r1, [r6]
    9754:	e5824004 	str	r4, [r2, #4]
    9758:	e2811004 	add	r1, r1, #4	; 0x4
    975c:	ebfffa5d 	bl	80d8 <vListInsert>
    9760:	ebfffe9e 	bl	91e0 <xTaskResumeAll>
    9764:	e3500000 	cmp	r0, #0	; 0x0
    9768:	18bd8070 	popne	{r4, r5, r6, pc}
    976c:	ef000000 	svc	0x00000000
    9770:	e8bd8070 	pop	{r4, r5, r6, pc}
    9774:	40000968 	.word	0x40000968
    9778:	40000950 	.word	0x40000950
    977c:	40000954 	.word	0x40000954
    9780:	40000a14 	.word	0x40000a14
    9784:	40000a10 	.word	0x40000a10

00009788 <vTaskDelayUntil>:
    9788:	e59f30ac 	ldr	r3, [pc, #172]	; 983c <vTaskDelayUntil+0xb4>
    978c:	e5932000 	ldr	r2, [r3]
    9790:	e2822001 	add	r2, r2, #1	; 0x1
    9794:	e5832000 	str	r2, [r3]
    9798:	e59fc0a0 	ldr	ip, [pc, #160]	; 9840 <vTaskDelayUntil+0xb8>
    979c:	e5902000 	ldr	r2, [r0]
    97a0:	e59c3000 	ldr	r3, [ip]
    97a4:	e1530002 	cmp	r3, r2
    97a8:	e92d4030 	push	{r4, r5, lr}
    97ac:	e0814002 	add	r4, r1, r2
    97b0:	2a000003 	bcs	97c4 <vTaskDelayUntil+0x3c>
    97b4:	e1540002 	cmp	r4, r2
    97b8:	23a03000 	movcs	r3, #0	; 0x0
    97bc:	2a000007 	bcs	97e0 <vTaskDelayUntil+0x58>
    97c0:	ea000002 	b	97d0 <vTaskDelayUntil+0x48>
    97c4:	e1540002 	cmp	r4, r2
    97c8:	33a03001 	movcc	r3, #1	; 0x1
    97cc:	3a000003 	bcc	97e0 <vTaskDelayUntil+0x58>
    97d0:	e59c3000 	ldr	r3, [ip]
    97d4:	e1540003 	cmp	r4, r3
    97d8:	93a03000 	movls	r3, #0	; 0x0
    97dc:	83a03001 	movhi	r3, #1	; 0x1
    97e0:	e3530000 	cmp	r3, #0	; 0x0
    97e4:	e5804000 	str	r4, [r0]
    97e8:	0a00000e 	beq	9828 <vTaskDelayUntil+0xa0>
    97ec:	e59f5050 	ldr	r5, [pc, #80]	; 9844 <vTaskDelayUntil+0xbc>
    97f0:	e5950000 	ldr	r0, [r5]
    97f4:	e2800004 	add	r0, r0, #4	; 0x4
    97f8:	ebfffa4b 	bl	812c <vListRemove>
    97fc:	e59f303c 	ldr	r3, [pc, #60]	; 9840 <vTaskDelayUntil+0xb8>
    9800:	e5952000 	ldr	r2, [r5]
    9804:	e5933000 	ldr	r3, [r3]
    9808:	e1540003 	cmp	r4, r3
    980c:	359f3034 	ldrcc	r3, [pc, #52]	; 9848 <vTaskDelayUntil+0xc0>
    9810:	259f3034 	ldrcs	r3, [pc, #52]	; 984c <vTaskDelayUntil+0xc4>
    9814:	e5930000 	ldr	r0, [r3]
    9818:	e5951000 	ldr	r1, [r5]
    981c:	e5824004 	str	r4, [r2, #4]
    9820:	e2811004 	add	r1, r1, #4	; 0x4
    9824:	ebfffa2b 	bl	80d8 <vListInsert>
    9828:	ebfffe6c 	bl	91e0 <xTaskResumeAll>
    982c:	e3500000 	cmp	r0, #0	; 0x0
    9830:	18bd8030 	popne	{r4, r5, pc}
    9834:	ef000000 	svc	0x00000000
    9838:	e8bd8030 	pop	{r4, r5, pc}
    983c:	40000968 	.word	0x40000968
    9840:	40000954 	.word	0x40000954
    9844:	40000950 	.word	0x40000950
    9848:	40000a14 	.word	0x40000a14
    984c:	40000a10 	.word	0x40000a10

00009850 <vTaskSwitchContext>:
    9850:	e59f310c 	ldr	r3, [pc, #268]	; 9964 <vTaskSwitchContext+0x114>
    9854:	e5933000 	ldr	r3, [r3]
    9858:	e3530000 	cmp	r3, #0	; 0x0
    985c:	e92d4030 	push	{r4, r5, lr}
    9860:	13a02001 	movne	r2, #1	; 0x1
    9864:	159f30fc 	ldrne	r3, [pc, #252]	; 9968 <vTaskSwitchContext+0x118>
    9868:	1a00003b 	bne	995c <vTaskSwitchContext+0x10c>
    986c:	e59f50f8 	ldr	r5, [pc, #248]	; 996c <vTaskSwitchContext+0x11c>
    9870:	e59f30f8 	ldr	r3, [pc, #248]	; 9970 <vTaskSwitchContext+0x120>
    9874:	e5934008 	ldr	r4, [r3, #8]
    9878:	e595c000 	ldr	ip, [r5]
    987c:	e59fe0f0 	ldr	lr, [pc, #240]	; 9974 <vTaskSwitchContext+0x124>
    9880:	e5952000 	ldr	r2, [r5]
    9884:	e5951000 	ldr	r1, [r5]
    9888:	e59c3048 	ldr	r3, [ip, #72]
    988c:	e5920000 	ldr	r0, [r2]
    9890:	e5912030 	ldr	r2, [r1, #48]
    9894:	e59e1000 	ldr	r1, [lr]
    9898:	e0843003 	add	r3, r4, r3
    989c:	e0613003 	rsb	r3, r1, r3
    98a0:	e1500002 	cmp	r0, r2
    98a4:	e58c3048 	str	r3, [ip, #72]
    98a8:	e58e4000 	str	r4, [lr]
    98ac:	95950000 	ldrls	r0, [r5]
    98b0:	95951000 	ldrls	r1, [r5]
    98b4:	92811034 	addls	r1, r1, #52	; 0x34
    98b8:	9b0001c7 	blls	9fdc <vApplicationStackOverflowHook>
    98bc:	e59f40a8 	ldr	r4, [pc, #168]	; 996c <vTaskSwitchContext+0x11c>
    98c0:	e5943000 	ldr	r3, [r4]
    98c4:	e59f10ac 	ldr	r1, [pc, #172]	; 9978 <vTaskSwitchContext+0x128>
    98c8:	e5930030 	ldr	r0, [r3, #48]
    98cc:	e3a02014 	mov	r2, #20	; 0x14
    98d0:	eb000734 	bl	b5a8 <memcmp>
    98d4:	e3500000 	cmp	r0, #0	; 0x0
    98d8:	0a000008 	beq	9900 <vTaskSwitchContext+0xb0>
    98dc:	e5940000 	ldr	r0, [r4]
    98e0:	e5941000 	ldr	r1, [r4]
    98e4:	e2811034 	add	r1, r1, #52	; 0x34
    98e8:	eb0001bb 	bl	9fdc <vApplicationStackOverflowHook>
    98ec:	ea000003 	b	9900 <vTaskSwitchContext+0xb0>
    98f0:	e5923000 	ldr	r3, [r2]
    98f4:	e2433001 	sub	r3, r3, #1	; 0x1
    98f8:	e5823000 	str	r3, [r2]
    98fc:	ea000002 	b	990c <vTaskSwitchContext+0xbc>
    9900:	e59f2074 	ldr	r2, [pc, #116]	; 997c <vTaskSwitchContext+0x12c>
    9904:	e59f0074 	ldr	r0, [pc, #116]	; 9980 <vTaskSwitchContext+0x130>
    9908:	e3a01014 	mov	r1, #20	; 0x14
    990c:	e5923000 	ldr	r3, [r2]
    9910:	e0030391 	mul	r3, r1, r3
    9914:	e7903003 	ldr	r3, [r0, r3]
    9918:	e3530000 	cmp	r3, #0	; 0x0
    991c:	0afffff3 	beq	98f0 <vTaskSwitchContext+0xa0>
    9920:	e59f3054 	ldr	r3, [pc, #84]	; 997c <vTaskSwitchContext+0x12c>
    9924:	e59f2054 	ldr	r2, [pc, #84]	; 9980 <vTaskSwitchContext+0x130>
    9928:	e5931000 	ldr	r1, [r3]
    992c:	e3a03014 	mov	r3, #20	; 0x14
    9930:	e0202193 	mla	r0, r3, r1, r2
    9934:	e5903004 	ldr	r3, [r0, #4]
    9938:	e5932004 	ldr	r2, [r3, #4]
    993c:	e2803008 	add	r3, r0, #8	; 0x8
    9940:	e5802004 	str	r2, [r0, #4]
    9944:	e1520003 	cmp	r2, r3
    9948:	05923004 	ldreq	r3, [r2, #4]
    994c:	05803004 	streq	r3, [r0, #4]
    9950:	e5903004 	ldr	r3, [r0, #4]
    9954:	e593200c 	ldr	r2, [r3, #12]
    9958:	e59f300c 	ldr	r3, [pc, #12]	; 996c <vTaskSwitchContext+0x11c>
    995c:	e5832000 	str	r2, [r3]
    9960:	e8bd8030 	pop	{r4, r5, pc}
    9964:	40000968 	.word	0x40000968
    9968:	40000960 	.word	0x40000960
    996c:	40000950 	.word	0x40000950
    9970:	e0008000 	.word	0xe0008000
    9974:	4000096c 	.word	0x4000096c
    9978:	0000fe29 	.word	0x0000fe29
    997c:	4000095c 	.word	0x4000095c
    9980:	40000984 	.word	0x40000984

00009984 <prvGenerateRunTimeStatsForTasksInList>:
    9984:	e92d4ff0 	push	{r4, r5, r6, r7, r8, r9, sl, fp, lr}
    9988:	e1a07001 	mov	r7, r1
    998c:	e5911004 	ldr	r1, [r1, #4]
    9990:	e591c004 	ldr	ip, [r1, #4]
    9994:	e2871008 	add	r1, r7, #8	; 0x8
    9998:	e587c004 	str	ip, [r7, #4]
    999c:	e24dd018 	sub	sp, sp, #24	; 0x18
    99a0:	e20330ff 	and	r3, r3, #255	; 0xff
    99a4:	e15c0001 	cmp	ip, r1
    99a8:	e58d300c 	str	r3, [sp, #12]
    99ac:	059c3004 	ldreq	r3, [ip, #4]
    99b0:	05873004 	streq	r3, [r7, #4]
    99b4:	e5973004 	ldr	r3, [r7, #4]
    99b8:	e593300c 	ldr	r3, [r3, #12]
    99bc:	e58d2010 	str	r2, [sp, #16]
    99c0:	e58d3014 	str	r3, [sp, #20]
    99c4:	e59d3010 	ldr	r3, [sp, #16]
    99c8:	e1a02003 	mov	r2, r3
    99cc:	e3a03000 	mov	r3, #0	; 0x0
    99d0:	e98d000c 	stmib	sp, {r2, r3}
    99d4:	e1a0a000 	mov	sl, r0
    99d8:	e3a09000 	mov	r9, #0	; 0x0
    99dc:	e287b008 	add	fp, r7, #8	; 0x8
    99e0:	e5973004 	ldr	r3, [r7, #4]
    99e4:	e5933004 	ldr	r3, [r3, #4]
    99e8:	e5873004 	str	r3, [r7, #4]
    99ec:	e153000b 	cmp	r3, fp
    99f0:	059b3004 	ldreq	r3, [fp, #4]
    99f4:	05873004 	streq	r3, [r7, #4]
    99f8:	e59d4010 	ldr	r4, [sp, #16]
    99fc:	e5973004 	ldr	r3, [r7, #4]
    9a00:	e3540000 	cmp	r4, #0	; 0x0
    9a04:	e593400c 	ldr	r4, [r3, #12]
    9a08:	0a00002a 	beq	9ab8 <prvGenerateRunTimeStatsForTasksInList+0x134>
    9a0c:	e5945048 	ldr	r5, [r4, #72]
    9a10:	e3550000 	cmp	r5, #0	; 0x0
    9a14:	1a000007 	bne	9a38 <prvGenerateRunTimeStatsForTasksInList+0xb4>
    9a18:	e1a0000a 	mov	r0, sl
    9a1c:	eb000845 	bl	bb38 <strlen>
    9a20:	e1a03005 	mov	r3, r5
    9a24:	e08a0000 	add	r0, sl, r0
    9a28:	e59f10a0 	ldr	r1, [pc, #160]	; 9ad0 <prvGenerateRunTimeStatsForTasksInList+0x14c>
    9a2c:	e2842034 	add	r2, r4, #52	; 0x34
    9a30:	eb00077c 	bl	b828 <siprintf>
    9a34:	ea00001f 	b	9ab8 <prvGenerateRunTimeStatsForTasksInList+0x134>
    9a38:	e594c048 	ldr	ip, [r4, #72]
    9a3c:	e5943048 	ldr	r3, [r4, #72]
    9a40:	e3a02064 	mov	r2, #100	; 0x64
    9a44:	e0810293 	umull	r0, r1, r3, r2
    9a48:	e99d000c 	ldmib	sp, {r2, r3}
    9a4c:	e089900c 	add	r9, r9, ip
    9a50:	eb000236 	bl	a330 <__divdi3>
    9a54:	e3500000 	cmp	r0, #0	; 0x0
    9a58:	e1a05000 	mov	r5, r0
    9a5c:	e1a06001 	mov	r6, r1
    9a60:	e2848034 	add	r8, r4, #52	; 0x34
    9a64:	0a000008 	beq	9a8c <prvGenerateRunTimeStatsForTasksInList+0x108>
    9a68:	e1a0000a 	mov	r0, sl
    9a6c:	eb000831 	bl	bb38 <strlen>
    9a70:	e5943048 	ldr	r3, [r4, #72]
    9a74:	e08a0000 	add	r0, sl, r0
    9a78:	e1a02008 	mov	r2, r8
    9a7c:	e59f1050 	ldr	r1, [pc, #80]	; 9ad4 <prvGenerateRunTimeStatsForTasksInList+0x150>
    9a80:	e58d5000 	str	r5, [sp]
    9a84:	eb000767 	bl	b828 <siprintf>
    9a88:	ea000006 	b	9aa8 <prvGenerateRunTimeStatsForTasksInList+0x124>
    9a8c:	e1a0000a 	mov	r0, sl
    9a90:	eb000828 	bl	bb38 <strlen>
    9a94:	e5943048 	ldr	r3, [r4, #72]
    9a98:	e08a0000 	add	r0, sl, r0
    9a9c:	e1a02008 	mov	r2, r8
    9aa0:	e59f1030 	ldr	r1, [pc, #48]	; 9ad8 <prvGenerateRunTimeStatsForTasksInList+0x154>
    9aa4:	eb00075f 	bl	b828 <siprintf>
    9aa8:	e59d300c 	ldr	r3, [sp, #12]
    9aac:	e3530000 	cmp	r3, #0	; 0x0
    9ab0:	13a02000 	movne	r2, #0	; 0x0
    9ab4:	15842048 	strne	r2, [r4, #72]
    9ab8:	e59d3014 	ldr	r3, [sp, #20]
    9abc:	e1540003 	cmp	r4, r3
    9ac0:	1affffc6 	bne	99e0 <prvGenerateRunTimeStatsForTasksInList+0x5c>
    9ac4:	e1a00009 	mov	r0, r9
    9ac8:	e28dd018 	add	sp, sp, #24	; 0x18
    9acc:	e8bd8ff0 	pop	{r4, r5, r6, r7, r8, r9, sl, fp, pc}
    9ad0:	00010a6a 	.word	0x00010a6a
    9ad4:	00010a7e 	.word	0x00010a7e
    9ad8:	00010a92 	.word	0x00010a92

00009adc <vTaskGetRunTimeStats>:
    9adc:	e59f2170 	ldr	r2, [pc, #368]	; 9c54 <vTaskGetRunTimeStats+0x178>
    9ae0:	e59f3170 	ldr	r3, [pc, #368]	; 9c58 <vTaskGetRunTimeStats+0x17c>
    9ae4:	e92d45f0 	push	{r4, r5, r6, r7, r8, sl, lr}
    9ae8:	e5938008 	ldr	r8, [r3, #8]
    9aec:	e5923000 	ldr	r3, [r2]
    9af0:	e2833001 	add	r3, r3, #1	; 0x1
    9af4:	e5823000 	str	r3, [r2]
    9af8:	e3a03000 	mov	r3, #0	; 0x0
    9afc:	e5c03000 	strb	r3, [r0]
    9b00:	e59f3154 	ldr	r3, [pc, #340]	; 9c5c <vTaskGetRunTimeStats+0x180>
    9b04:	e5933000 	ldr	r3, [r3]
    9b08:	e59f2150 	ldr	r2, [pc, #336]	; 9c60 <vTaskGetRunTimeStats+0x184>
    9b0c:	e2835001 	add	r5, r3, #1	; 0x1
    9b10:	e3a03014 	mov	r3, #20	; 0x14
    9b14:	e0242593 	mla	r4, r3, r5, r2
    9b18:	e24dd004 	sub	sp, sp, #4	; 0x4
    9b1c:	e1a07000 	mov	r7, r0
    9b20:	e201a0ff 	and	sl, r1, #255	; 0xff
    9b24:	e5943000 	ldr	r3, [r4]
    9b28:	e3530000 	cmp	r3, #0	; 0x0
    9b2c:	e2455001 	sub	r5, r5, #1	; 0x1
    9b30:	11a01004 	movne	r1, r4
    9b34:	11a00007 	movne	r0, r7
    9b38:	11a02008 	movne	r2, r8
    9b3c:	11a0300a 	movne	r3, sl
    9b40:	1bffff8f 	blne	9984 <prvGenerateRunTimeStatsForTasksInList>
    9b44:	e3550000 	cmp	r5, #0	; 0x0
    9b48:	e2444014 	sub	r4, r4, #20	; 0x14
    9b4c:	1afffff4 	bne	9b24 <vTaskGetRunTimeStats+0x48>
    9b50:	e59f110c 	ldr	r1, [pc, #268]	; 9c64 <vTaskGetRunTimeStats+0x188>
    9b54:	e5913000 	ldr	r3, [r1]
    9b58:	e5933000 	ldr	r3, [r3]
    9b5c:	e3530000 	cmp	r3, #0	; 0x0
    9b60:	15911000 	ldrne	r1, [r1]
    9b64:	11a00007 	movne	r0, r7
    9b68:	11a02008 	movne	r2, r8
    9b6c:	11a0300a 	movne	r3, sl
    9b70:	1bffff83 	blne	9984 <prvGenerateRunTimeStatsForTasksInList>
    9b74:	e59f10ec 	ldr	r1, [pc, #236]	; 9c68 <vTaskGetRunTimeStats+0x18c>
    9b78:	e5913000 	ldr	r3, [r1]
    9b7c:	e5933000 	ldr	r3, [r3]
    9b80:	e3530000 	cmp	r3, #0	; 0x0
    9b84:	15911000 	ldrne	r1, [r1]
    9b88:	11a00007 	movne	r0, r7
    9b8c:	11a02008 	movne	r2, r8
    9b90:	11a0300a 	movne	r3, sl
    9b94:	1bffff7a 	blne	9984 <prvGenerateRunTimeStatsForTasksInList>
    9b98:	e59f10cc 	ldr	r1, [pc, #204]	; 9c6c <vTaskGetRunTimeStats+0x190>
    9b9c:	e5913000 	ldr	r3, [r1]
    9ba0:	e3530000 	cmp	r3, #0	; 0x0
    9ba4:	11a00007 	movne	r0, r7
    9ba8:	11a02008 	movne	r2, r8
    9bac:	11a0300a 	movne	r3, sl
    9bb0:	1bffff73 	blne	9984 <prvGenerateRunTimeStatsForTasksInList>
    9bb4:	e59f30b4 	ldr	r3, [pc, #180]	; 9c70 <vTaskGetRunTimeStats+0x194>
    9bb8:	e5936000 	ldr	r6, [r3]
    9bbc:	e3a03064 	mov	r3, #100	; 0x64
    9bc0:	e0810396 	umull	r0, r1, r6, r3
    9bc4:	e1a02008 	mov	r2, r8
    9bc8:	e3a03000 	mov	r3, #0	; 0x0
    9bcc:	eb00033b 	bl	a8c0 <__udivdi3>
    9bd0:	e3500000 	cmp	r0, #0	; 0x0
    9bd4:	e1a04000 	mov	r4, r0
    9bd8:	e1a05001 	mov	r5, r1
    9bdc:	1a000007 	bne	9c00 <vTaskGetRunTimeStats+0x124>
    9be0:	e1a00007 	mov	r0, r7
    9be4:	eb0007d3 	bl	bb38 <strlen>
    9be8:	e1a03006 	mov	r3, r6
    9bec:	e0870000 	add	r0, r7, r0
    9bf0:	e59f107c 	ldr	r1, [pc, #124]	; 9c74 <vTaskGetRunTimeStats+0x198>
    9bf4:	e59f207c 	ldr	r2, [pc, #124]	; 9c78 <vTaskGetRunTimeStats+0x19c>
    9bf8:	eb00070a 	bl	b828 <siprintf>
    9bfc:	ea000007 	b	9c20 <vTaskGetRunTimeStats+0x144>
    9c00:	e1a00007 	mov	r0, r7
    9c04:	eb0007cb 	bl	bb38 <strlen>
    9c08:	e1a03006 	mov	r3, r6
    9c0c:	e0870000 	add	r0, r7, r0
    9c10:	e59f1064 	ldr	r1, [pc, #100]	; 9c7c <vTaskGetRunTimeStats+0x1a0>
    9c14:	e59f205c 	ldr	r2, [pc, #92]	; 9c78 <vTaskGetRunTimeStats+0x19c>
    9c18:	e58d4000 	str	r4, [sp]
    9c1c:	eb000701 	bl	b828 <siprintf>
    9c20:	e35a0000 	cmp	sl, #0	; 0x0
    9c24:	0a000007 	beq	9c48 <vTaskGetRunTimeStats+0x16c>
    9c28:	e59f3040 	ldr	r3, [pc, #64]	; 9c70 <vTaskGetRunTimeStats+0x194>
    9c2c:	e3a02000 	mov	r2, #0	; 0x0
    9c30:	e5832000 	str	r2, [r3]
    9c34:	e59f101c 	ldr	r1, [pc, #28]	; 9c58 <vTaskGetRunTimeStats+0x17c>
    9c38:	e59f3040 	ldr	r3, [pc, #64]	; 9c80 <vTaskGetRunTimeStats+0x1a4>
    9c3c:	e5832000 	str	r2, [r3]
    9c40:	e5812010 	str	r2, [r1, #16]
    9c44:	e5812008 	str	r2, [r1, #8]
    9c48:	e28dd004 	add	sp, sp, #4	; 0x4
    9c4c:	e8bd45f0 	pop	{r4, r5, r6, r7, r8, sl, lr}
    9c50:	eafffd62 	b	91e0 <xTaskResumeAll>
    9c54:	40000968 	.word	0x40000968
    9c58:	e0008000 	.word	0xe0008000
    9c5c:	40000974 	.word	0x40000974
    9c60:	40000970 	.word	0x40000970
    9c64:	40000a10 	.word	0x40000a10
    9c68:	40000a14 	.word	0x40000a14
    9c6c:	40000a2c 	.word	0x40000a2c
    9c70:	40000958 	.word	0x40000958
    9c74:	00010a92 	.word	0x00010a92
    9c78:	00010aa6 	.word	0x00010aa6
    9c7c:	00010a7e 	.word	0x00010a7e
    9c80:	4000096c 	.word	0x4000096c

00009c84 <vTaskEndScheduler>:
    9c84:	e92d0001 	push	{r0}
    9c88:	e10f0000 	mrs	r0, CPSR
    9c8c:	e38000c0 	orr	r0, r0, #192	; 0xc0
    9c90:	e129f000 	msr	CPSR_fc, r0
    9c94:	e8bd0001 	pop	{r0}
    9c98:	e59f3008 	ldr	r3, [pc, #8]	; 9ca8 <vTaskEndScheduler+0x24>
    9c9c:	e3a02000 	mov	r2, #0	; 0x0
    9ca0:	e5832000 	str	r2, [r3]
    9ca4:	eafff983 	b	82b8 <vPortEndScheduler>
    9ca8:	4000097c 	.word	0x4000097c

00009cac <prvIdleTask>:
    9cac:	e52de004 	push	{lr}		; (str lr, [sp, #-4]!)
    9cb0:	eb0000bb 	bl	9fa4 <vApplicationIdleHook>
    9cb4:	eafffffd 	b	9cb0 <prvIdleTask+0x4>

00009cb8 <xTaskGenericCreate>:
    9cb8:	e92d4ff0 	push	{r4, r5, r6, r7, r8, r9, sl, fp, lr}
    9cbc:	e1a02802 	lsl	r2, r2, #16
    9cc0:	e1a0a000 	mov	sl, r0
    9cc4:	e3a0004c 	mov	r0, #76	; 0x4c
    9cc8:	e1a06001 	mov	r6, r1
    9ccc:	e1a08003 	mov	r8, r3
    9cd0:	e1a05822 	lsr	r5, r2, #16
    9cd4:	e59db024 	ldr	fp, [sp, #36]
    9cd8:	ebfff8da 	bl	8048 <pvPortMalloc>
    9cdc:	e2507000 	subs	r7, r0, #0	; 0x0
    9ce0:	0a000007 	beq	9d04 <xTaskGenericCreate+0x4c>
    9ce4:	e1a04105 	lsl	r4, r5, #2
    9ce8:	e1a00004 	mov	r0, r4
    9cec:	ebfff8d5 	bl	8048 <pvPortMalloc>
    9cf0:	e3500000 	cmp	r0, #0	; 0x0
    9cf4:	e5870030 	str	r0, [r7, #48]
    9cf8:	1a000003 	bne	9d0c <xTaskGenericCreate+0x54>
    9cfc:	e1a00007 	mov	r0, r7
    9d00:	ebfff8c8 	bl	8028 <vPortFree>
    9d04:	e3e00000 	mvn	r0, #0	; 0x0
    9d08:	e8bd8ff0 	pop	{r4, r5, r6, r7, r8, r9, sl, fp, pc}
    9d0c:	e1a02004 	mov	r2, r4
    9d10:	e3a010a5 	mov	r1, #165	; 0xa5
    9d14:	eb00068d 	bl	b750 <memset>
    9d18:	e5971030 	ldr	r1, [r7, #48]
    9d1c:	e3e03003 	mvn	r3, #3	; 0x3
    9d20:	e2652001 	rsb	r2, r5, #1	; 0x1
    9d24:	e0251293 	mla	r5, r3, r2, r1
    9d28:	e35b0004 	cmp	fp, #4	; 0x4
    9d2c:	31a0400b 	movcc	r4, fp
    9d30:	23a04004 	movcs	r4, #4	; 0x4
    9d34:	e1a01006 	mov	r1, r6
    9d38:	e3a02010 	mov	r2, #16	; 0x10
    9d3c:	e3a06000 	mov	r6, #0	; 0x0
    9d40:	e2870034 	add	r0, r7, #52	; 0x34
    9d44:	e2879004 	add	r9, r7, #4	; 0x4
    9d48:	eb0007a1 	bl	bbd4 <strncpy>
    9d4c:	e587402c 	str	r4, [r7, #44]
    9d50:	e5874044 	str	r4, [r7, #68]
    9d54:	e1a00009 	mov	r0, r9
    9d58:	e5c76043 	strb	r6, [r7, #67]
    9d5c:	ebfff8cd 	bl	8098 <vListInitialiseItem>
    9d60:	e3c55007 	bic	r5, r5, #7	; 0x7
    9d64:	e2870018 	add	r0, r7, #24	; 0x18
    9d68:	e2644005 	rsb	r4, r4, #5	; 0x5
    9d6c:	ebfff8c9 	bl	8098 <vListInitialiseItem>
    9d70:	e1a02008 	mov	r2, r8
    9d74:	e1a0100a 	mov	r1, sl
    9d78:	e5874018 	str	r4, [r7, #24]
    9d7c:	e5876048 	str	r6, [r7, #72]
    9d80:	e5877010 	str	r7, [r7, #16]
    9d84:	e5877024 	str	r7, [r7, #36]
    9d88:	e1a00005 	mov	r0, r5
    9d8c:	ebfff8f5 	bl	8168 <pxPortInitialiseStack>
    9d90:	e5870000 	str	r0, [r7]
    9d94:	ebfff9cf 	bl	84d8 <vPortEnterCritical>
    9d98:	e59f2130 	ldr	r2, [pc, #304]	; 9ed0 <xTaskGenericCreate+0x218>
    9d9c:	e5923000 	ldr	r3, [r2]
    9da0:	e2833001 	add	r3, r3, #1	; 0x1
    9da4:	e5823000 	str	r3, [r2]
    9da8:	e5923000 	ldr	r3, [r2]
    9dac:	e3530001 	cmp	r3, #1	; 0x1
    9db0:	1a000017 	bne	9e14 <xTaskGenericCreate+0x15c>
    9db4:	e59f3118 	ldr	r3, [pc, #280]	; 9ed4 <xTaskGenericCreate+0x21c>
    9db8:	e59f4118 	ldr	r4, [pc, #280]	; 9ed8 <xTaskGenericCreate+0x220>
    9dbc:	e5837000 	str	r7, [r3]
    9dc0:	e2845064 	add	r5, r4, #100	; 0x64
    9dc4:	e1a00004 	mov	r0, r4
    9dc8:	e2844014 	add	r4, r4, #20	; 0x14
    9dcc:	ebfff8a8 	bl	8074 <vListInitialise>
    9dd0:	e1540005 	cmp	r4, r5
    9dd4:	1afffffa 	bne	9dc4 <xTaskGenericCreate+0x10c>
    9dd8:	e59f40fc 	ldr	r4, [pc, #252]	; 9edc <xTaskGenericCreate+0x224>
    9ddc:	e59f50fc 	ldr	r5, [pc, #252]	; 9ee0 <xTaskGenericCreate+0x228>
    9de0:	e1a00004 	mov	r0, r4
    9de4:	ebfff8a2 	bl	8074 <vListInitialise>
    9de8:	e1a00005 	mov	r0, r5
    9dec:	ebfff8a0 	bl	8074 <vListInitialise>
    9df0:	e59f00ec 	ldr	r0, [pc, #236]	; 9ee4 <xTaskGenericCreate+0x22c>
    9df4:	ebfff89e 	bl	8074 <vListInitialise>
    9df8:	e59f00e8 	ldr	r0, [pc, #232]	; 9ee8 <xTaskGenericCreate+0x230>
    9dfc:	ebfff89c 	bl	8074 <vListInitialise>
    9e00:	e59f30e4 	ldr	r3, [pc, #228]	; 9eec <xTaskGenericCreate+0x234>
    9e04:	e5834000 	str	r4, [r3]
    9e08:	e59f30e0 	ldr	r3, [pc, #224]	; 9ef0 <xTaskGenericCreate+0x238>
    9e0c:	e5835000 	str	r5, [r3]
    9e10:	ea000008 	b	9e38 <xTaskGenericCreate+0x180>
    9e14:	e59f30d8 	ldr	r3, [pc, #216]	; 9ef4 <xTaskGenericCreate+0x23c>
    9e18:	e5933000 	ldr	r3, [r3]
    9e1c:	e3530000 	cmp	r3, #0	; 0x0
    9e20:	1a000004 	bne	9e38 <xTaskGenericCreate+0x180>
    9e24:	e59f20a8 	ldr	r2, [pc, #168]	; 9ed4 <xTaskGenericCreate+0x21c>
    9e28:	e5923000 	ldr	r3, [r2]
    9e2c:	e593302c 	ldr	r3, [r3, #44]
    9e30:	e153000b 	cmp	r3, fp
    9e34:	95827000 	strls	r7, [r2]
    9e38:	e59f10b8 	ldr	r1, [pc, #184]	; 9ef8 <xTaskGenericCreate+0x240>
    9e3c:	e597202c 	ldr	r2, [r7, #44]
    9e40:	e5913000 	ldr	r3, [r1]
    9e44:	e1520003 	cmp	r2, r3
    9e48:	85812000 	strhi	r2, [r1]
    9e4c:	e59fc0a8 	ldr	ip, [pc, #168]	; 9efc <xTaskGenericCreate+0x244>
    9e50:	e59f10a8 	ldr	r1, [pc, #168]	; 9f00 <xTaskGenericCreate+0x248>
    9e54:	e597002c 	ldr	r0, [r7, #44]
    9e58:	e59c3000 	ldr	r3, [ip]
    9e5c:	e5912000 	ldr	r2, [r1]
    9e60:	e1500003 	cmp	r0, r3
    9e64:	e2822001 	add	r2, r2, #1	; 0x1
    9e68:	858c0000 	strhi	r0, [ip]
    9e6c:	e5812000 	str	r2, [r1]
    9e70:	e59f2060 	ldr	r2, [pc, #96]	; 9ed8 <xTaskGenericCreate+0x220>
    9e74:	e597102c 	ldr	r1, [r7, #44]
    9e78:	e3a03014 	mov	r3, #20	; 0x14
    9e7c:	e0202193 	mla	r0, r3, r1, r2
    9e80:	e1a01009 	mov	r1, r9
    9e84:	ebfff886 	bl	80a4 <vListInsertEnd>
    9e88:	ebfff99d 	bl	8504 <vPortExitCritical>
    9e8c:	e59d3028 	ldr	r3, [sp, #40]
    9e90:	e3530000 	cmp	r3, #0	; 0x0
    9e94:	15837000 	strne	r7, [r3]
    9e98:	e59f3054 	ldr	r3, [pc, #84]	; 9ef4 <xTaskGenericCreate+0x23c>
    9e9c:	e5933000 	ldr	r3, [r3]
    9ea0:	e3530000 	cmp	r3, #0	; 0x0
    9ea4:	0a000007 	beq	9ec8 <xTaskGenericCreate+0x210>
    9ea8:	e59f3024 	ldr	r3, [pc, #36]	; 9ed4 <xTaskGenericCreate+0x21c>
    9eac:	e5933000 	ldr	r3, [r3]
    9eb0:	e593302c 	ldr	r3, [r3, #44]
    9eb4:	e153000b 	cmp	r3, fp
    9eb8:	2a000002 	bcs	9ec8 <xTaskGenericCreate+0x210>
    9ebc:	ef000000 	svc	0x00000000
    9ec0:	e3a00001 	mov	r0, #1	; 0x1
    9ec4:	e8bd8ff0 	pop	{r4, r5, r6, r7, r8, r9, sl, fp, pc}
    9ec8:	e3a00001 	mov	r0, #1	; 0x1
    9ecc:	e8bd8ff0 	pop	{r4, r5, r6, r7, r8, r9, sl, fp, pc}
    9ed0:	40000978 	.word	0x40000978
    9ed4:	40000950 	.word	0x40000950
    9ed8:	40000984 	.word	0x40000984
    9edc:	400009e8 	.word	0x400009e8
    9ee0:	400009fc 	.word	0x400009fc
    9ee4:	40000a18 	.word	0x40000a18
    9ee8:	40000a2c 	.word	0x40000a2c
    9eec:	40000a10 	.word	0x40000a10
    9ef0:	40000a14 	.word	0x40000a14
    9ef4:	4000097c 	.word	0x4000097c
    9ef8:	40000974 	.word	0x40000974
    9efc:	4000095c 	.word	0x4000095c
    9f00:	40000980 	.word	0x40000980

00009f04 <vTaskStartScheduler>:
    9f04:	e92d4010 	push	{r4, lr}
    9f08:	e3a04000 	mov	r4, #0	; 0x0
    9f0c:	e24dd010 	sub	sp, sp, #16	; 0x10
    9f10:	e59f0078 	ldr	r0, [pc, #120]	; 9f90 <vTaskStartScheduler+0x8c>
    9f14:	e59f1078 	ldr	r1, [pc, #120]	; 9f94 <vTaskStartScheduler+0x90>
    9f18:	e3a02080 	mov	r2, #128	; 0x80
    9f1c:	e1a03004 	mov	r3, r4
    9f20:	e58d4000 	str	r4, [sp]
    9f24:	e58d4004 	str	r4, [sp, #4]
    9f28:	e58d4008 	str	r4, [sp, #8]
    9f2c:	e58d400c 	str	r4, [sp, #12]
    9f30:	ebffff60 	bl	9cb8 <xTaskGenericCreate>
    9f34:	e3500001 	cmp	r0, #1	; 0x1
    9f38:	1a000012 	bne	9f88 <vTaskStartScheduler+0x84>
    9f3c:	e92d0001 	push	{r0}
    9f40:	e10f0000 	mrs	r0, CPSR
    9f44:	e38000c0 	orr	r0, r0, #192	; 0xc0
    9f48:	e129f000 	msr	CPSR_fc, r0
    9f4c:	e8bd0001 	pop	{r0}
    9f50:	e59f3040 	ldr	r3, [pc, #64]	; 9f98 <vTaskStartScheduler+0x94>
    9f54:	e5830000 	str	r0, [r3]
    9f58:	e59f303c 	ldr	r3, [pc, #60]	; 9f9c <vTaskStartScheduler+0x98>
    9f5c:	e59f203c 	ldr	r2, [pc, #60]	; 9fa0 <vTaskStartScheduler+0x9c>
    9f60:	e5834000 	str	r4, [r3]
    9f64:	e3a03020 	mov	r3, #32	; 0x20
    9f68:	e582300c 	str	r3, [r2, #12]
    9f6c:	e5824010 	str	r4, [r2, #16]
    9f70:	e5824018 	str	r4, [r2, #24]
    9f74:	e5824014 	str	r4, [r2, #20]
    9f78:	e5820004 	str	r0, [r2, #4]
    9f7c:	e28dd010 	add	sp, sp, #16	; 0x10
    9f80:	e8bd4010 	pop	{r4, lr}
    9f84:	eafff8cc 	b	82bc <xPortStartScheduler>
    9f88:	e28dd010 	add	sp, sp, #16	; 0x10
    9f8c:	e8bd8010 	pop	{r4, pc}
    9f90:	00009cac 	.word	0x00009cac
    9f94:	00010ab1 	.word	0x00010ab1
    9f98:	4000097c 	.word	0x4000097c
    9f9c:	40000954 	.word	0x40000954
    9fa0:	e0008000 	.word	0xe0008000

00009fa4 <vApplicationIdleHook>:
    9fa4:	e59f200c 	ldr	r2, [pc, #12]	; 9fb8 <vApplicationIdleHook+0x14>
    9fa8:	e59230c0 	ldr	r3, [r2, #192]
    9fac:	e3833001 	orr	r3, r3, #1	; 0x1
    9fb0:	e58230c0 	str	r3, [r2, #192]
    9fb4:	e12fff1e 	bx	lr
    9fb8:	e01fc000 	.word	0xe01fc000

00009fbc <vApplicationMallocFailedHook>:
    9fbc:	e59f0010 	ldr	r0, [pc, #16]	; 9fd4 <vApplicationMallocFailedHook+0x18>
    9fc0:	e52de004 	push	{lr}		; (str lr, [sp, #-4]!)
    9fc4:	ebfff47b 	bl	71b8 <rprintf_devopen>
    9fc8:	e59f0008 	ldr	r0, [pc, #8]	; 9fd8 <vApplicationMallocFailedHook+0x1c>
    9fcc:	ebfff48d 	bl	7208 <rprintf>
    9fd0:	eafffffe 	b	9fd0 <vApplicationMallocFailedHook+0x14>
    9fd4:	00005d48 	.word	0x00005d48
    9fd8:	00010ab6 	.word	0x00010ab6

00009fdc <vApplicationStackOverflowHook>:
    9fdc:	e92d4010 	push	{r4, lr}
    9fe0:	e59f001c 	ldr	r0, [pc, #28]	; a004 <vApplicationStackOverflowHook+0x28>
    9fe4:	e1a04001 	mov	r4, r1
    9fe8:	ebfff472 	bl	71b8 <rprintf_devopen>
    9fec:	e59f0014 	ldr	r0, [pc, #20]	; a008 <vApplicationStackOverflowHook+0x2c>
    9ff0:	e1a01004 	mov	r1, r4
    9ff4:	ebfff483 	bl	7208 <rprintf>
    9ff8:	e59f000c 	ldr	r0, [pc, #12]	; a00c <vApplicationStackOverflowHook+0x30>
    9ffc:	ebfff481 	bl	7208 <rprintf>
    a000:	eafffffe 	b	a000 <vApplicationStackOverflowHook+0x24>
    a004:	00005d48 	.word	0x00005d48
    a008:	00010aec 	.word	0x00010aec
    a00c:	00010b18 	.word	0x00010b18

0000a010 <__aeabi_uidiv>:
    a010:	e2512001 	subs	r2, r1, #1	; 0x1
    a014:	012fff1e 	bxeq	lr
    a018:	3a000036 	bcc	a0f8 <__aeabi_uidiv+0xe8>
    a01c:	e1500001 	cmp	r0, r1
    a020:	9a000022 	bls	a0b0 <__aeabi_uidiv+0xa0>
    a024:	e1110002 	tst	r1, r2
    a028:	0a000023 	beq	a0bc <__aeabi_uidiv+0xac>
    a02c:	e311020e 	tst	r1, #-536870912	; 0xe0000000
    a030:	01a01181 	lsleq	r1, r1, #3
    a034:	03a03008 	moveq	r3, #8	; 0x8
    a038:	13a03001 	movne	r3, #1	; 0x1
    a03c:	e3510201 	cmp	r1, #268435456	; 0x10000000
    a040:	31510000 	cmpcc	r1, r0
    a044:	31a01201 	lslcc	r1, r1, #4
    a048:	31a03203 	lslcc	r3, r3, #4
    a04c:	3afffffa 	bcc	a03c <__aeabi_uidiv+0x2c>
    a050:	e3510102 	cmp	r1, #-2147483648	; 0x80000000
    a054:	31510000 	cmpcc	r1, r0
    a058:	31a01081 	lslcc	r1, r1, #1
    a05c:	31a03083 	lslcc	r3, r3, #1
    a060:	3afffffa 	bcc	a050 <__aeabi_uidiv+0x40>
    a064:	e3a02000 	mov	r2, #0	; 0x0
    a068:	e1500001 	cmp	r0, r1
    a06c:	20400001 	subcs	r0, r0, r1
    a070:	21822003 	orrcs	r2, r2, r3
    a074:	e15000a1 	cmp	r0, r1, lsr #1
    a078:	204000a1 	subcs	r0, r0, r1, lsr #1
    a07c:	218220a3 	orrcs	r2, r2, r3, lsr #1
    a080:	e1500121 	cmp	r0, r1, lsr #2
    a084:	20400121 	subcs	r0, r0, r1, lsr #2
    a088:	21822123 	orrcs	r2, r2, r3, lsr #2
    a08c:	e15001a1 	cmp	r0, r1, lsr #3
    a090:	204001a1 	subcs	r0, r0, r1, lsr #3
    a094:	218221a3 	orrcs	r2, r2, r3, lsr #3
    a098:	e3500000 	cmp	r0, #0	; 0x0
    a09c:	11b03223 	lsrsne	r3, r3, #4
    a0a0:	11a01221 	lsrne	r1, r1, #4
    a0a4:	1affffef 	bne	a068 <__aeabi_uidiv+0x58>
    a0a8:	e1a00002 	mov	r0, r2
    a0ac:	e12fff1e 	bx	lr
    a0b0:	03a00001 	moveq	r0, #1	; 0x1
    a0b4:	13a00000 	movne	r0, #0	; 0x0
    a0b8:	e12fff1e 	bx	lr
    a0bc:	e3510801 	cmp	r1, #65536	; 0x10000
    a0c0:	21a01821 	lsrcs	r1, r1, #16
    a0c4:	23a02010 	movcs	r2, #16	; 0x10
    a0c8:	33a02000 	movcc	r2, #0	; 0x0
    a0cc:	e3510c01 	cmp	r1, #256	; 0x100
    a0d0:	21a01421 	lsrcs	r1, r1, #8
    a0d4:	22822008 	addcs	r2, r2, #8	; 0x8
    a0d8:	e3510010 	cmp	r1, #16	; 0x10
    a0dc:	21a01221 	lsrcs	r1, r1, #4
    a0e0:	22822004 	addcs	r2, r2, #4	; 0x4
    a0e4:	e3510004 	cmp	r1, #4	; 0x4
    a0e8:	82822003 	addhi	r2, r2, #3	; 0x3
    a0ec:	908220a1 	addls	r2, r2, r1, lsr #1
    a0f0:	e1a00230 	lsr	r0, r0, r2
    a0f4:	e12fff1e 	bx	lr
    a0f8:	e52de008 	str	lr, [sp, #-8]!
    a0fc:	eb00008a 	bl	a32c <__aeabi_idiv0>
    a100:	e3a00000 	mov	r0, #0	; 0x0
    a104:	e49df008 	ldr	pc, [sp], #8

0000a108 <__aeabi_uidivmod>:
    a108:	e92d4003 	push	{r0, r1, lr}
    a10c:	ebffffbf 	bl	a010 <__aeabi_uidiv>
    a110:	e8bd4006 	pop	{r1, r2, lr}
    a114:	e0030092 	mul	r3, r2, r0
    a118:	e0411003 	sub	r1, r1, r3
    a11c:	e12fff1e 	bx	lr

0000a120 <__aeabi_idiv>:
    a120:	e3510000 	cmp	r1, #0	; 0x0
    a124:	e020c001 	eor	ip, r0, r1
    a128:	0a000042 	beq	a238 <__aeabi_idiv+0x118>
    a12c:	42611000 	rsbmi	r1, r1, #0	; 0x0
    a130:	e2512001 	subs	r2, r1, #1	; 0x1
    a134:	0a000027 	beq	a1d8 <__aeabi_idiv+0xb8>
    a138:	e1b03000 	movs	r3, r0
    a13c:	42603000 	rsbmi	r3, r0, #0	; 0x0
    a140:	e1530001 	cmp	r3, r1
    a144:	9a000026 	bls	a1e4 <__aeabi_idiv+0xc4>
    a148:	e1110002 	tst	r1, r2
    a14c:	0a000028 	beq	a1f4 <__aeabi_idiv+0xd4>
    a150:	e311020e 	tst	r1, #-536870912	; 0xe0000000
    a154:	01a01181 	lsleq	r1, r1, #3
    a158:	03a02008 	moveq	r2, #8	; 0x8
    a15c:	13a02001 	movne	r2, #1	; 0x1
    a160:	e3510201 	cmp	r1, #268435456	; 0x10000000
    a164:	31510003 	cmpcc	r1, r3
    a168:	31a01201 	lslcc	r1, r1, #4
    a16c:	31a02202 	lslcc	r2, r2, #4
    a170:	3afffffa 	bcc	a160 <__aeabi_idiv+0x40>
    a174:	e3510102 	cmp	r1, #-2147483648	; 0x80000000
    a178:	31510003 	cmpcc	r1, r3
    a17c:	31a01081 	lslcc	r1, r1, #1
    a180:	31a02082 	lslcc	r2, r2, #1
    a184:	3afffffa 	bcc	a174 <__aeabi_idiv+0x54>
    a188:	e3a00000 	mov	r0, #0	; 0x0
    a18c:	e1530001 	cmp	r3, r1
    a190:	20433001 	subcs	r3, r3, r1
    a194:	21800002 	orrcs	r0, r0, r2
    a198:	e15300a1 	cmp	r3, r1, lsr #1
    a19c:	204330a1 	subcs	r3, r3, r1, lsr #1
    a1a0:	218000a2 	orrcs	r0, r0, r2, lsr #1
    a1a4:	e1530121 	cmp	r3, r1, lsr #2
    a1a8:	20433121 	subcs	r3, r3, r1, lsr #2
    a1ac:	21800122 	orrcs	r0, r0, r2, lsr #2
    a1b0:	e15301a1 	cmp	r3, r1, lsr #3
    a1b4:	204331a1 	subcs	r3, r3, r1, lsr #3
    a1b8:	218001a2 	orrcs	r0, r0, r2, lsr #3
    a1bc:	e3530000 	cmp	r3, #0	; 0x0
    a1c0:	11b02222 	lsrsne	r2, r2, #4
    a1c4:	11a01221 	lsrne	r1, r1, #4
    a1c8:	1affffef 	bne	a18c <__aeabi_idiv+0x6c>
    a1cc:	e35c0000 	cmp	ip, #0	; 0x0
    a1d0:	42600000 	rsbmi	r0, r0, #0	; 0x0
    a1d4:	e12fff1e 	bx	lr
    a1d8:	e13c0000 	teq	ip, r0
    a1dc:	42600000 	rsbmi	r0, r0, #0	; 0x0
    a1e0:	e12fff1e 	bx	lr
    a1e4:	33a00000 	movcc	r0, #0	; 0x0
    a1e8:	01a00fcc 	asreq	r0, ip, #31
    a1ec:	03800001 	orreq	r0, r0, #1	; 0x1
    a1f0:	e12fff1e 	bx	lr
    a1f4:	e3510801 	cmp	r1, #65536	; 0x10000
    a1f8:	21a01821 	lsrcs	r1, r1, #16
    a1fc:	23a02010 	movcs	r2, #16	; 0x10
    a200:	33a02000 	movcc	r2, #0	; 0x0
    a204:	e3510c01 	cmp	r1, #256	; 0x100
    a208:	21a01421 	lsrcs	r1, r1, #8
    a20c:	22822008 	addcs	r2, r2, #8	; 0x8
    a210:	e3510010 	cmp	r1, #16	; 0x10
    a214:	21a01221 	lsrcs	r1, r1, #4
    a218:	22822004 	addcs	r2, r2, #4	; 0x4
    a21c:	e3510004 	cmp	r1, #4	; 0x4
    a220:	82822003 	addhi	r2, r2, #3	; 0x3
    a224:	908220a1 	addls	r2, r2, r1, lsr #1
    a228:	e35c0000 	cmp	ip, #0	; 0x0
    a22c:	e1a00233 	lsr	r0, r3, r2
    a230:	42600000 	rsbmi	r0, r0, #0	; 0x0
    a234:	e12fff1e 	bx	lr
    a238:	e52de008 	str	lr, [sp, #-8]!
    a23c:	eb00003a 	bl	a32c <__aeabi_idiv0>
    a240:	e3a00000 	mov	r0, #0	; 0x0
    a244:	e49df008 	ldr	pc, [sp], #8

0000a248 <__aeabi_idivmod>:
    a248:	e92d4003 	push	{r0, r1, lr}
    a24c:	ebffffb3 	bl	a120 <__aeabi_idiv>
    a250:	e8bd4006 	pop	{r1, r2, lr}
    a254:	e0030092 	mul	r3, r2, r0
    a258:	e0411003 	sub	r1, r1, r3
    a25c:	e12fff1e 	bx	lr

0000a260 <__umodsi3>:
    a260:	e2512001 	subs	r2, r1, #1	; 0x1
    a264:	3a00002c 	bcc	a31c <__umodsi3+0xbc>
    a268:	11500001 	cmpne	r0, r1
    a26c:	03a00000 	moveq	r0, #0	; 0x0
    a270:	81110002 	tsthi	r1, r2
    a274:	00000002 	andeq	r0, r0, r2
    a278:	912fff1e 	bxls	lr
    a27c:	e3a02000 	mov	r2, #0	; 0x0
    a280:	e3510201 	cmp	r1, #268435456	; 0x10000000
    a284:	31510000 	cmpcc	r1, r0
    a288:	31a01201 	lslcc	r1, r1, #4
    a28c:	32822004 	addcc	r2, r2, #4	; 0x4
    a290:	3afffffa 	bcc	a280 <__umodsi3+0x20>
    a294:	e3510102 	cmp	r1, #-2147483648	; 0x80000000
    a298:	31510000 	cmpcc	r1, r0
    a29c:	31a01081 	lslcc	r1, r1, #1
    a2a0:	32822001 	addcc	r2, r2, #1	; 0x1
    a2a4:	3afffffa 	bcc	a294 <__umodsi3+0x34>
    a2a8:	e2522003 	subs	r2, r2, #3	; 0x3
    a2ac:	ba00000e 	blt	a2ec <__umodsi3+0x8c>
    a2b0:	e1500001 	cmp	r0, r1
    a2b4:	20400001 	subcs	r0, r0, r1
    a2b8:	e15000a1 	cmp	r0, r1, lsr #1
    a2bc:	204000a1 	subcs	r0, r0, r1, lsr #1
    a2c0:	e1500121 	cmp	r0, r1, lsr #2
    a2c4:	20400121 	subcs	r0, r0, r1, lsr #2
    a2c8:	e15001a1 	cmp	r0, r1, lsr #3
    a2cc:	204001a1 	subcs	r0, r0, r1, lsr #3
    a2d0:	e3500001 	cmp	r0, #1	; 0x1
    a2d4:	e1a01221 	lsr	r1, r1, #4
    a2d8:	a2522004 	subsge	r2, r2, #4	; 0x4
    a2dc:	aafffff3 	bge	a2b0 <__umodsi3+0x50>
    a2e0:	e3120003 	tst	r2, #3	; 0x3
    a2e4:	13300000 	teqne	r0, #0	; 0x0
    a2e8:	0a00000a 	beq	a318 <__umodsi3+0xb8>
    a2ec:	e3720002 	cmn	r2, #2	; 0x2
    a2f0:	ba000006 	blt	a310 <__umodsi3+0xb0>
    a2f4:	0a000002 	beq	a304 <__umodsi3+0xa4>
    a2f8:	e1500001 	cmp	r0, r1
    a2fc:	20400001 	subcs	r0, r0, r1
    a300:	e1a010a1 	lsr	r1, r1, #1
    a304:	e1500001 	cmp	r0, r1
    a308:	20400001 	subcs	r0, r0, r1
    a30c:	e1a010a1 	lsr	r1, r1, #1
    a310:	e1500001 	cmp	r0, r1
    a314:	20400001 	subcs	r0, r0, r1
    a318:	e12fff1e 	bx	lr
    a31c:	e52de008 	str	lr, [sp, #-8]!
    a320:	eb000001 	bl	a32c <__aeabi_idiv0>
    a324:	e3a00000 	mov	r0, #0	; 0x0
    a328:	e49df008 	ldr	pc, [sp], #8

0000a32c <__aeabi_idiv0>:
    a32c:	e12fff1e 	bx	lr

0000a330 <__divdi3>:
    a330:	e92d4ff0 	push	{r4, r5, r6, r7, r8, r9, sl, fp, lr}
    a334:	e3510000 	cmp	r1, #0	; 0x0
    a338:	e1a04003 	mov	r4, r3
    a33c:	e24dd010 	sub	sp, sp, #16	; 0x10
    a340:	e1a05000 	mov	r5, r0
    a344:	a3a00000 	movge	r0, #0	; 0x0
    a348:	e1a06001 	mov	r6, r1
    a34c:	e1a03002 	mov	r3, r2
    a350:	e1a01002 	mov	r1, r2
    a354:	a58d0000 	strge	r0, [sp]
    a358:	e1a02004 	mov	r2, r4
    a35c:	ba0000d5 	blt	a6b8 <__divdi3+0x388>
    a360:	e3540000 	cmp	r4, #0	; 0x0
    a364:	ba0000d9 	blt	a6d0 <__divdi3+0x3a0>
    a368:	e2520000 	subs	r0, r2, #0	; 0x0
    a36c:	e1a03005 	mov	r3, r5
    a370:	e1a09005 	mov	r9, r5
    a374:	e1a05006 	mov	r5, r6
    a378:	e1a06001 	mov	r6, r1
    a37c:	1a00003d 	bne	a478 <__divdi3+0x148>
    a380:	e1510005 	cmp	r1, r5
    a384:	9a00004a 	bls	a4b4 <__divdi3+0x184>
    a388:	e3510801 	cmp	r1, #65536	; 0x10000
    a38c:	2a000133 	bcs	a860 <__divdi3+0x530>
    a390:	e3510c01 	cmp	r1, #256	; 0x100
    a394:	33a00020 	movcc	r0, #32	; 0x20
    a398:	23a00018 	movcs	r0, #24	; 0x18
    a39c:	33a03000 	movcc	r3, #0	; 0x0
    a3a0:	23a03008 	movcs	r3, #8	; 0x8
    a3a4:	e1a01336 	lsr	r1, r6, r3
    a3a8:	e59f250c 	ldr	r2, [pc, #1292]	; a8bc <__divdi3+0x58c>
    a3ac:	e7d23001 	ldrb	r3, [r2, r1]
    a3b0:	e0502003 	subs	r2, r0, r3
    a3b4:	12623020 	rsbne	r3, r2, #32	; 0x20
    a3b8:	11a03339 	lsrne	r3, r9, r3
    a3bc:	11a06216 	lslne	r6, r6, r2
    a3c0:	11835215 	orrne	r5, r3, r5, lsl r2
    a3c4:	e1a08826 	lsr	r8, r6, #16
    a3c8:	e1a01008 	mov	r1, r8
    a3cc:	e1a00005 	mov	r0, r5
    a3d0:	11a09219 	lslne	r9, r9, r2
    a3d4:	ebffffa1 	bl	a260 <__umodsi3>
    a3d8:	e1a01008 	mov	r1, r8
    a3dc:	e1a04000 	mov	r4, r0
    a3e0:	e1a00005 	mov	r0, r5
    a3e4:	ebffff09 	bl	a010 <__aeabi_uidiv>
    a3e8:	e1a07806 	lsl	r7, r6, #16
    a3ec:	e1a07827 	lsr	r7, r7, #16
    a3f0:	e0020097 	mul	r2, r7, r0
    a3f4:	e1a03829 	lsr	r3, r9, #16
    a3f8:	e1834804 	orr	r4, r3, r4, lsl #16
    a3fc:	e1520004 	cmp	r2, r4
    a400:	e1a0a000 	mov	sl, r0
    a404:	9a000005 	bls	a420 <__divdi3+0xf0>
    a408:	e0944006 	adds	r4, r4, r6
    a40c:	e240a001 	sub	sl, r0, #1	; 0x1
    a410:	2a000002 	bcs	a420 <__divdi3+0xf0>
    a414:	e1520004 	cmp	r2, r4
    a418:	824aa001 	subhi	sl, sl, #1	; 0x1
    a41c:	80844006 	addhi	r4, r4, r6
    a420:	e0624004 	rsb	r4, r2, r4
    a424:	e1a01008 	mov	r1, r8
    a428:	e1a00004 	mov	r0, r4
    a42c:	ebffff8b 	bl	a260 <__umodsi3>
    a430:	e1a01008 	mov	r1, r8
    a434:	e1a05000 	mov	r5, r0
    a438:	e1a00004 	mov	r0, r4
    a43c:	ebfffef3 	bl	a010 <__aeabi_uidiv>
    a440:	e0010097 	mul	r1, r7, r0
    a444:	e1a03809 	lsl	r3, r9, #16
    a448:	e1a03823 	lsr	r3, r3, #16
    a44c:	e1832805 	orr	r2, r3, r5, lsl #16
    a450:	e1510002 	cmp	r1, r2
    a454:	9a000004 	bls	a46c <__divdi3+0x13c>
    a458:	e0923006 	adds	r3, r2, r6
    a45c:	e2400001 	sub	r0, r0, #1	; 0x1
    a460:	2a000001 	bcs	a46c <__divdi3+0x13c>
    a464:	e1510003 	cmp	r1, r3
    a468:	82400001 	subhi	r0, r0, #1	; 0x1
    a46c:	e180080a 	orr	r0, r0, sl, lsl #16
    a470:	e3a02000 	mov	r2, #0	; 0x0
    a474:	ea000003 	b	a488 <__divdi3+0x158>
    a478:	e1500005 	cmp	r0, r5
    a47c:	9a00007b 	bls	a670 <__divdi3+0x340>
    a480:	e3a00000 	mov	r0, #0	; 0x0
    a484:	e1a02000 	mov	r2, r0
    a488:	e1a03000 	mov	r3, r0
    a48c:	e59d0000 	ldr	r0, [sp]
    a490:	e3500000 	cmp	r0, #0	; 0x0
    a494:	e1a04002 	mov	r4, r2
    a498:	0a000001 	beq	a4a4 <__divdi3+0x174>
    a49c:	e2733000 	rsbs	r3, r3, #0	; 0x0
    a4a0:	e2e44000 	rsc	r4, r4, #0	; 0x0
    a4a4:	e1a01004 	mov	r1, r4
    a4a8:	e1a00003 	mov	r0, r3
    a4ac:	e28dd010 	add	sp, sp, #16	; 0x10
    a4b0:	e8bd8ff0 	pop	{r4, r5, r6, r7, r8, r9, sl, fp, pc}
    a4b4:	e3510000 	cmp	r1, #0	; 0x0
    a4b8:	1a000002 	bne	a4c8 <__divdi3+0x198>
    a4bc:	e3a00001 	mov	r0, #1	; 0x1
    a4c0:	ebfffed2 	bl	a010 <__aeabi_uidiv>
    a4c4:	e1a06000 	mov	r6, r0
    a4c8:	e3560801 	cmp	r6, #65536	; 0x10000
    a4cc:	3a000085 	bcc	a6e8 <__divdi3+0x3b8>
    a4d0:	e3560401 	cmp	r6, #16777216	; 0x1000000
    a4d4:	33a03010 	movcc	r3, #16	; 0x10
    a4d8:	23a03018 	movcs	r3, #24	; 0x18
    a4dc:	23a00008 	movcs	r0, #8	; 0x8
    a4e0:	31a00003 	movcc	r0, r3
    a4e4:	e1a01336 	lsr	r1, r6, r3
    a4e8:	e59f23cc 	ldr	r2, [pc, #972]	; a8bc <__divdi3+0x58c>
    a4ec:	e7d23001 	ldrb	r3, [r2, r1]
    a4f0:	e0508003 	subs	r8, r0, r3
    a4f4:	01a0a806 	lsleq	sl, r6, #16
    a4f8:	00665005 	rsbeq	r5, r6, r5
    a4fc:	01a0a82a 	lsreq	sl, sl, #16
    a500:	01a07826 	lsreq	r7, r6, #16
    a504:	03a0b001 	moveq	fp, #1	; 0x1
    a508:	0a00002f 	beq	a5cc <__divdi3+0x29c>
    a50c:	e2684020 	rsb	r4, r8, #32	; 0x20
    a510:	e1a03439 	lsr	r3, r9, r4
    a514:	e1a06816 	lsl	r6, r6, r8
    a518:	e1a04435 	lsr	r4, r5, r4
    a51c:	e1833815 	orr	r3, r3, r5, lsl r8
    a520:	e1a07826 	lsr	r7, r6, #16
    a524:	e1a00004 	mov	r0, r4
    a528:	e1a01007 	mov	r1, r7
    a52c:	e58d3008 	str	r3, [sp, #8]
    a530:	ebffff4a 	bl	a260 <__umodsi3>
    a534:	e1a01007 	mov	r1, r7
    a538:	e1a05000 	mov	r5, r0
    a53c:	e1a00004 	mov	r0, r4
    a540:	ebfffeb2 	bl	a010 <__aeabi_uidiv>
    a544:	e1a0a806 	lsl	sl, r6, #16
    a548:	e1a0a82a 	lsr	sl, sl, #16
    a54c:	e002009a 	mul	r2, sl, r0
    a550:	e1a0b000 	mov	fp, r0
    a554:	e59d0008 	ldr	r0, [sp, #8]
    a558:	e1a03820 	lsr	r3, r0, #16
    a55c:	e1834805 	orr	r4, r3, r5, lsl #16
    a560:	e1520004 	cmp	r2, r4
    a564:	9a000002 	bls	a574 <__divdi3+0x244>
    a568:	e0944006 	adds	r4, r4, r6
    a56c:	e24bb001 	sub	fp, fp, #1	; 0x1
    a570:	3a0000cd 	bcc	a8ac <__divdi3+0x57c>
    a574:	e0624004 	rsb	r4, r2, r4
    a578:	e1a00004 	mov	r0, r4
    a57c:	e1a01007 	mov	r1, r7
    a580:	ebffff36 	bl	a260 <__umodsi3>
    a584:	e1a01007 	mov	r1, r7
    a588:	e1a05000 	mov	r5, r0
    a58c:	e1a00004 	mov	r0, r4
    a590:	ebfffe9e 	bl	a010 <__aeabi_uidiv>
    a594:	e004009a 	mul	r4, sl, r0
    a598:	e59d1008 	ldr	r1, [sp, #8]
    a59c:	e1a03801 	lsl	r3, r1, #16
    a5a0:	e1a03823 	lsr	r3, r3, #16
    a5a4:	e1a02000 	mov	r2, r0
    a5a8:	e1830805 	orr	r0, r3, r5, lsl #16
    a5ac:	e1540000 	cmp	r4, r0
    a5b0:	9a000002 	bls	a5c0 <__divdi3+0x290>
    a5b4:	e0900006 	adds	r0, r0, r6
    a5b8:	e2422001 	sub	r2, r2, #1	; 0x1
    a5bc:	3a0000b6 	bcc	a89c <__divdi3+0x56c>
    a5c0:	e1a09819 	lsl	r9, r9, r8
    a5c4:	e0645000 	rsb	r5, r4, r0
    a5c8:	e182b80b 	orr	fp, r2, fp, lsl #16
    a5cc:	e1a01007 	mov	r1, r7
    a5d0:	e1a00005 	mov	r0, r5
    a5d4:	ebffff21 	bl	a260 <__umodsi3>
    a5d8:	e1a01007 	mov	r1, r7
    a5dc:	e1a04000 	mov	r4, r0
    a5e0:	e1a00005 	mov	r0, r5
    a5e4:	ebfffe89 	bl	a010 <__aeabi_uidiv>
    a5e8:	e002009a 	mul	r2, sl, r0
    a5ec:	e1a03829 	lsr	r3, r9, #16
    a5f0:	e1834804 	orr	r4, r3, r4, lsl #16
    a5f4:	e1520004 	cmp	r2, r4
    a5f8:	e1a08000 	mov	r8, r0
    a5fc:	9a000005 	bls	a618 <__divdi3+0x2e8>
    a600:	e0944006 	adds	r4, r4, r6
    a604:	e2408001 	sub	r8, r0, #1	; 0x1
    a608:	2a000002 	bcs	a618 <__divdi3+0x2e8>
    a60c:	e1520004 	cmp	r2, r4
    a610:	82488001 	subhi	r8, r8, #1	; 0x1
    a614:	80844006 	addhi	r4, r4, r6
    a618:	e0624004 	rsb	r4, r2, r4
    a61c:	e1a01007 	mov	r1, r7
    a620:	e1a00004 	mov	r0, r4
    a624:	ebffff0d 	bl	a260 <__umodsi3>
    a628:	e1a01007 	mov	r1, r7
    a62c:	e1a05000 	mov	r5, r0
    a630:	e1a00004 	mov	r0, r4
    a634:	ebfffe75 	bl	a010 <__aeabi_uidiv>
    a638:	e001009a 	mul	r1, sl, r0
    a63c:	e1a03809 	lsl	r3, r9, #16
    a640:	e1a03823 	lsr	r3, r3, #16
    a644:	e1832805 	orr	r2, r3, r5, lsl #16
    a648:	e1510002 	cmp	r1, r2
    a64c:	9a000004 	bls	a664 <__divdi3+0x334>
    a650:	e0923006 	adds	r3, r2, r6
    a654:	e2400001 	sub	r0, r0, #1	; 0x1
    a658:	2a000001 	bcs	a664 <__divdi3+0x334>
    a65c:	e1510003 	cmp	r1, r3
    a660:	82400001 	subhi	r0, r0, #1	; 0x1
    a664:	e1800808 	orr	r0, r0, r8, lsl #16
    a668:	e1a0200b 	mov	r2, fp
    a66c:	eaffff85 	b	a488 <__divdi3+0x158>
    a670:	e3500801 	cmp	r0, #65536	; 0x10000
    a674:	3a000021 	bcc	a700 <__divdi3+0x3d0>
    a678:	e3500401 	cmp	r0, #16777216	; 0x1000000
    a67c:	33a03010 	movcc	r3, #16	; 0x10
    a680:	23a03018 	movcs	r3, #24	; 0x18
    a684:	e1a01330 	lsr	r1, r0, r3
    a688:	e59f222c 	ldr	r2, [pc, #556]	; a8bc <__divdi3+0x58c>
    a68c:	31a0c003 	movcc	ip, r3
    a690:	e7d23001 	ldrb	r3, [r2, r1]
    a694:	23a0c008 	movcs	ip, #8	; 0x8
    a698:	e05cb003 	subs	fp, ip, r3
    a69c:	1a000021 	bne	a728 <__divdi3+0x3f8>
    a6a0:	e1500005 	cmp	r0, r5
    a6a4:	21560009 	cmpcs	r6, r9
    a6a8:	91a0200b 	movls	r2, fp
    a6ac:	93a00001 	movls	r0, #1	; 0x1
    a6b0:	9affff74 	bls	a488 <__divdi3+0x158>
    a6b4:	eaffff71 	b	a480 <__divdi3+0x150>
    a6b8:	e2755000 	rsbs	r5, r5, #0	; 0x0
    a6bc:	e2e66000 	rsc	r6, r6, #0	; 0x0
    a6c0:	e3e00000 	mvn	r0, #0	; 0x0
    a6c4:	e3540000 	cmp	r4, #0	; 0x0
    a6c8:	e58d0000 	str	r0, [sp]
    a6cc:	aaffff25 	bge	a368 <__divdi3+0x38>
    a6d0:	e2731000 	rsbs	r1, r3, #0	; 0x0
    a6d4:	e2e42000 	rsc	r2, r4, #0	; 0x0
    a6d8:	e59d3000 	ldr	r3, [sp]
    a6dc:	e1e03003 	mvn	r3, r3
    a6e0:	e58d3000 	str	r3, [sp]
    a6e4:	eaffff1f 	b	a368 <__divdi3+0x38>
    a6e8:	e3560c01 	cmp	r6, #256	; 0x100
    a6ec:	33a00020 	movcc	r0, #32	; 0x20
    a6f0:	23a00018 	movcs	r0, #24	; 0x18
    a6f4:	33a03000 	movcc	r3, #0	; 0x0
    a6f8:	23a03008 	movcs	r3, #8	; 0x8
    a6fc:	eaffff78 	b	a4e4 <__divdi3+0x1b4>
    a700:	e3500c01 	cmp	r0, #256	; 0x100
    a704:	33a03000 	movcc	r3, #0	; 0x0
    a708:	23a03008 	movcs	r3, #8	; 0x8
    a70c:	e1a01330 	lsr	r1, r0, r3
    a710:	e59f21a4 	ldr	r2, [pc, #420]	; a8bc <__divdi3+0x58c>
    a714:	e7d23001 	ldrb	r3, [r2, r1]
    a718:	33a0c020 	movcc	ip, #32	; 0x20
    a71c:	23a0c018 	movcs	ip, #24	; 0x18
    a720:	e05cb003 	subs	fp, ip, r3
    a724:	0affffdd 	beq	a6a0 <__divdi3+0x370>
    a728:	e26b4020 	rsb	r4, fp, #32	; 0x20
    a72c:	e1a03436 	lsr	r3, r6, r4
    a730:	e1a02439 	lsr	r2, r9, r4
    a734:	e1838b10 	orr	r8, r3, r0, lsl fp
    a738:	e1a04435 	lsr	r4, r5, r4
    a73c:	e1822b15 	orr	r2, r2, r5, lsl fp
    a740:	e1a0a828 	lsr	sl, r8, #16
    a744:	e1a00004 	mov	r0, r4
    a748:	e1a0100a 	mov	r1, sl
    a74c:	e58d200c 	str	r2, [sp, #12]
    a750:	ebfffec2 	bl	a260 <__umodsi3>
    a754:	e1a0100a 	mov	r1, sl
    a758:	e1a05000 	mov	r5, r0
    a75c:	e1a00004 	mov	r0, r4
    a760:	ebfffe2a 	bl	a010 <__aeabi_uidiv>
    a764:	e1a07808 	lsl	r7, r8, #16
    a768:	e1a02000 	mov	r2, r0
    a76c:	e1a07827 	lsr	r7, r7, #16
    a770:	e0020297 	mul	r2, r7, r2
    a774:	e58d0004 	str	r0, [sp, #4]
    a778:	e59d000c 	ldr	r0, [sp, #12]
    a77c:	e1a03820 	lsr	r3, r0, #16
    a780:	e1834805 	orr	r4, r3, r5, lsl #16
    a784:	e1520004 	cmp	r2, r4
    a788:	e1a06b16 	lsl	r6, r6, fp
    a78c:	9a000004 	bls	a7a4 <__divdi3+0x474>
    a790:	e59d1004 	ldr	r1, [sp, #4]
    a794:	e0944008 	adds	r4, r4, r8
    a798:	e2411001 	sub	r1, r1, #1	; 0x1
    a79c:	e58d1004 	str	r1, [sp, #4]
    a7a0:	3a000038 	bcc	a888 <__divdi3+0x558>
    a7a4:	e0624004 	rsb	r4, r2, r4
    a7a8:	e1a0100a 	mov	r1, sl
    a7ac:	e1a00004 	mov	r0, r4
    a7b0:	ebfffeaa 	bl	a260 <__umodsi3>
    a7b4:	e1a0100a 	mov	r1, sl
    a7b8:	e1a05000 	mov	r5, r0
    a7bc:	e1a00004 	mov	r0, r4
    a7c0:	ebfffe12 	bl	a010 <__aeabi_uidiv>
    a7c4:	e0020097 	mul	r2, r7, r0
    a7c8:	e1a01000 	mov	r1, r0
    a7cc:	e59d000c 	ldr	r0, [sp, #12]
    a7d0:	e1a03800 	lsl	r3, r0, #16
    a7d4:	e1a03823 	lsr	r3, r3, #16
    a7d8:	e1830805 	orr	r0, r3, r5, lsl #16
    a7dc:	e1520000 	cmp	r2, r0
    a7e0:	9a000002 	bls	a7f0 <__divdi3+0x4c0>
    a7e4:	e0900008 	adds	r0, r0, r8
    a7e8:	e2411001 	sub	r1, r1, #1	; 0x1
    a7ec:	3a000021 	bcc	a878 <__divdi3+0x548>
    a7f0:	e59d3004 	ldr	r3, [sp, #4]
    a7f4:	e0622000 	rsb	r2, r2, r0
    a7f8:	e1810803 	orr	r0, r1, r3, lsl #16
    a7fc:	e1a0c820 	lsr	ip, r0, #16
    a800:	e1a03826 	lsr	r3, r6, #16
    a804:	e1c0e80c 	bic	lr, r0, ip, lsl #16
    a808:	e1c64803 	bic	r4, r6, r3, lsl #16
    a80c:	e001049e 	mul	r1, lr, r4
    a810:	e004049c 	mul	r4, ip, r4
    a814:	e00e0e93 	mul	lr, r3, lr
    a818:	e003039c 	mul	r3, ip, r3
    a81c:	e094e00e 	adds	lr, r4, lr
    a820:	22833801 	addcs	r3, r3, #65536	; 0x10000
    a824:	e091180e 	adds	r1, r1, lr, lsl #16
    a828:	e0a3382e 	adc	r3, r3, lr, lsr #16
    a82c:	e1520003 	cmp	r2, r3
    a830:	3a000007 	bcc	a854 <__divdi3+0x524>
    a834:	13a03000 	movne	r3, #0	; 0x0
    a838:	03a03001 	moveq	r3, #1	; 0x1
    a83c:	e1510b19 	cmp	r1, r9, lsl fp
    a840:	93a03000 	movls	r3, #0	; 0x0
    a844:	82033001 	andhi	r3, r3, #1	; 0x1
    a848:	e3530000 	cmp	r3, #0	; 0x0
    a84c:	01a02003 	moveq	r2, r3
    a850:	0affff0c 	beq	a488 <__divdi3+0x158>
    a854:	e2400001 	sub	r0, r0, #1	; 0x1
    a858:	e3a02000 	mov	r2, #0	; 0x0
    a85c:	eaffff09 	b	a488 <__divdi3+0x158>
    a860:	e3510401 	cmp	r1, #16777216	; 0x1000000
    a864:	33a03010 	movcc	r3, #16	; 0x10
    a868:	23a03018 	movcs	r3, #24	; 0x18
    a86c:	23a00008 	movcs	r0, #8	; 0x8
    a870:	31a00003 	movcc	r0, r3
    a874:	eafffeca 	b	a3a4 <__divdi3+0x74>
    a878:	e1520000 	cmp	r2, r0
    a87c:	80800008 	addhi	r0, r0, r8
    a880:	82411001 	subhi	r1, r1, #1	; 0x1
    a884:	eaffffd9 	b	a7f0 <__divdi3+0x4c0>
    a888:	e1520004 	cmp	r2, r4
    a88c:	82411001 	subhi	r1, r1, #1	; 0x1
    a890:	858d1004 	strhi	r1, [sp, #4]
    a894:	80844008 	addhi	r4, r4, r8
    a898:	eaffffc1 	b	a7a4 <__divdi3+0x474>
    a89c:	e1540000 	cmp	r4, r0
    a8a0:	82422001 	subhi	r2, r2, #1	; 0x1
    a8a4:	80800006 	addhi	r0, r0, r6
    a8a8:	eaffff44 	b	a5c0 <__divdi3+0x290>
    a8ac:	e1520004 	cmp	r2, r4
    a8b0:	824bb001 	subhi	fp, fp, #1	; 0x1
    a8b4:	80844006 	addhi	r4, r4, r6
    a8b8:	eaffff2d 	b	a574 <__divdi3+0x244>
    a8bc:	0000fe3d 	.word	0x0000fe3d

0000a8c0 <__udivdi3>:
    a8c0:	e92d4ff0 	push	{r4, r5, r6, r7, r8, r9, sl, fp, lr}
    a8c4:	e3530000 	cmp	r3, #0	; 0x0
    a8c8:	e1a05001 	mov	r5, r1
    a8cc:	e24dd00c 	sub	sp, sp, #12	; 0xc
    a8d0:	e1a0c003 	mov	ip, r3
    a8d4:	e1a01002 	mov	r1, r2
    a8d8:	e1a09000 	mov	r9, r0
    a8dc:	e1a06002 	mov	r6, r2
    a8e0:	e1a07005 	mov	r7, r5
    a8e4:	1a00003e 	bne	a9e4 <__udivdi3+0x124>
    a8e8:	e1520005 	cmp	r2, r5
    a8ec:	9a000055 	bls	aa48 <__udivdi3+0x188>
    a8f0:	e3520801 	cmp	r2, #65536	; 0x10000
    a8f4:	3a000121 	bcc	ad80 <__udivdi3+0x4c0>
    a8f8:	e3520401 	cmp	r2, #16777216	; 0x1000000
    a8fc:	33a03010 	movcc	r3, #16	; 0x10
    a900:	23a03018 	movcs	r3, #24	; 0x18
    a904:	23a00008 	movcs	r0, #8	; 0x8
    a908:	31a00003 	movcc	r0, r3
    a90c:	e1a01336 	lsr	r1, r6, r3
    a910:	e59f24c4 	ldr	r2, [pc, #1220]	; addc <__udivdi3+0x51c>
    a914:	e7d23001 	ldrb	r3, [r2, r1]
    a918:	e0502003 	subs	r2, r0, r3
    a91c:	12623020 	rsbne	r3, r2, #32	; 0x20
    a920:	11a03339 	lsrne	r3, r9, r3
    a924:	11a06216 	lslne	r6, r6, r2
    a928:	11837215 	orrne	r7, r3, r5, lsl r2
    a92c:	e1a08826 	lsr	r8, r6, #16
    a930:	e1a00007 	mov	r0, r7
    a934:	e1a01008 	mov	r1, r8
    a938:	11a09219 	lslne	r9, r9, r2
    a93c:	ebfffe47 	bl	a260 <__umodsi3>
    a940:	e1a01008 	mov	r1, r8
    a944:	e1a04000 	mov	r4, r0
    a948:	e1a00007 	mov	r0, r7
    a94c:	ebfffdaf 	bl	a010 <__aeabi_uidiv>
    a950:	e1a07806 	lsl	r7, r6, #16
    a954:	e1a07827 	lsr	r7, r7, #16
    a958:	e0020097 	mul	r2, r7, r0
    a95c:	e1a03829 	lsr	r3, r9, #16
    a960:	e1834804 	orr	r4, r3, r4, lsl #16
    a964:	e1520004 	cmp	r2, r4
    a968:	e1a0a000 	mov	sl, r0
    a96c:	9a000005 	bls	a988 <__udivdi3+0xc8>
    a970:	e0944006 	adds	r4, r4, r6
    a974:	e240a001 	sub	sl, r0, #1	; 0x1
    a978:	2a000002 	bcs	a988 <__udivdi3+0xc8>
    a97c:	e1520004 	cmp	r2, r4
    a980:	824aa001 	subhi	sl, sl, #1	; 0x1
    a984:	80844006 	addhi	r4, r4, r6
    a988:	e0624004 	rsb	r4, r2, r4
    a98c:	e1a01008 	mov	r1, r8
    a990:	e1a00004 	mov	r0, r4
    a994:	ebfffe31 	bl	a260 <__umodsi3>
    a998:	e1a01008 	mov	r1, r8
    a99c:	e1a05000 	mov	r5, r0
    a9a0:	e1a00004 	mov	r0, r4
    a9a4:	ebfffd99 	bl	a010 <__aeabi_uidiv>
    a9a8:	e0010097 	mul	r1, r7, r0
    a9ac:	e1a03809 	lsl	r3, r9, #16
    a9b0:	e1a03823 	lsr	r3, r3, #16
    a9b4:	e1a02000 	mov	r2, r0
    a9b8:	e1830805 	orr	r0, r3, r5, lsl #16
    a9bc:	e1510000 	cmp	r1, r0
    a9c0:	9a000004 	bls	a9d8 <__udivdi3+0x118>
    a9c4:	e0903006 	adds	r3, r0, r6
    a9c8:	e2422001 	sub	r2, r2, #1	; 0x1
    a9cc:	2a000001 	bcs	a9d8 <__udivdi3+0x118>
    a9d0:	e1510003 	cmp	r1, r3
    a9d4:	82422001 	subhi	r2, r2, #1	; 0x1
    a9d8:	e182280a 	orr	r2, r2, sl, lsl #16
    a9dc:	e3a03000 	mov	r3, #0	; 0x0
    a9e0:	ea000014 	b	aa38 <__udivdi3+0x178>
    a9e4:	e1530005 	cmp	r3, r5
    a9e8:	8a000010 	bhi	aa30 <__udivdi3+0x170>
    a9ec:	e3530801 	cmp	r3, #65536	; 0x10000
    a9f0:	3a000084 	bcc	ac08 <__udivdi3+0x348>
    a9f4:	e3530401 	cmp	r3, #16777216	; 0x1000000
    a9f8:	33a03010 	movcc	r3, #16	; 0x10
    a9fc:	23a03018 	movcs	r3, #24	; 0x18
    aa00:	e1a0133c 	lsr	r1, ip, r3
    aa04:	e59f23d0 	ldr	r2, [pc, #976]	; addc <__udivdi3+0x51c>
    aa08:	31a00003 	movcc	r0, r3
    aa0c:	e7d23001 	ldrb	r3, [r2, r1]
    aa10:	23a00008 	movcs	r0, #8	; 0x8
    aa14:	e050b003 	subs	fp, r0, r3
    aa18:	1a000084 	bne	ac30 <__udivdi3+0x370>
    aa1c:	e15c0005 	cmp	ip, r5
    aa20:	21560009 	cmpcs	r6, r9
    aa24:	91a0300b 	movls	r3, fp
    aa28:	93a02001 	movls	r2, #1	; 0x1
    aa2c:	9a000001 	bls	aa38 <__udivdi3+0x178>
    aa30:	e3a02000 	mov	r2, #0	; 0x0
    aa34:	e1a03002 	mov	r3, r2
    aa38:	e1a00002 	mov	r0, r2
    aa3c:	e1a01003 	mov	r1, r3
    aa40:	e28dd00c 	add	sp, sp, #12	; 0xc
    aa44:	e8bd8ff0 	pop	{r4, r5, r6, r7, r8, r9, sl, fp, pc}
    aa48:	e3520000 	cmp	r2, #0	; 0x0
    aa4c:	1a000002 	bne	aa5c <__udivdi3+0x19c>
    aa50:	e3a00001 	mov	r0, #1	; 0x1
    aa54:	ebfffd6d 	bl	a010 <__aeabi_uidiv>
    aa58:	e1a06000 	mov	r6, r0
    aa5c:	e3560801 	cmp	r6, #65536	; 0x10000
    aa60:	3a0000c0 	bcc	ad68 <__udivdi3+0x4a8>
    aa64:	e3560401 	cmp	r6, #16777216	; 0x1000000
    aa68:	33a03010 	movcc	r3, #16	; 0x10
    aa6c:	23a03018 	movcs	r3, #24	; 0x18
    aa70:	23a00008 	movcs	r0, #8	; 0x8
    aa74:	31a00003 	movcc	r0, r3
    aa78:	e1a01336 	lsr	r1, r6, r3
    aa7c:	e59f2358 	ldr	r2, [pc, #856]	; addc <__udivdi3+0x51c>
    aa80:	e7d23001 	ldrb	r3, [r2, r1]
    aa84:	e0508003 	subs	r8, r0, r3
    aa88:	01a0a806 	lsleq	sl, r6, #16
    aa8c:	00665005 	rsbeq	r5, r6, r5
    aa90:	01a0a82a 	lsreq	sl, sl, #16
    aa94:	01a07826 	lsreq	r7, r6, #16
    aa98:	03a0b001 	moveq	fp, #1	; 0x1
    aa9c:	0a00002f 	beq	ab60 <__udivdi3+0x2a0>
    aaa0:	e2684020 	rsb	r4, r8, #32	; 0x20
    aaa4:	e1a03439 	lsr	r3, r9, r4
    aaa8:	e1a06816 	lsl	r6, r6, r8
    aaac:	e1a04435 	lsr	r4, r5, r4
    aab0:	e1835815 	orr	r5, r3, r5, lsl r8
    aab4:	e1a07826 	lsr	r7, r6, #16
    aab8:	e1a00004 	mov	r0, r4
    aabc:	e1a01007 	mov	r1, r7
    aac0:	e58d5004 	str	r5, [sp, #4]
    aac4:	ebfffde5 	bl	a260 <__umodsi3>
    aac8:	e1a01007 	mov	r1, r7
    aacc:	e1a05000 	mov	r5, r0
    aad0:	e1a00004 	mov	r0, r4
    aad4:	ebfffd4d 	bl	a010 <__aeabi_uidiv>
    aad8:	e1a0a806 	lsl	sl, r6, #16
    aadc:	e1a0a82a 	lsr	sl, sl, #16
    aae0:	e002009a 	mul	r2, sl, r0
    aae4:	e1a0b000 	mov	fp, r0
    aae8:	e59d0004 	ldr	r0, [sp, #4]
    aaec:	e1a03820 	lsr	r3, r0, #16
    aaf0:	e1834805 	orr	r4, r3, r5, lsl #16
    aaf4:	e1520004 	cmp	r2, r4
    aaf8:	9a000002 	bls	ab08 <__udivdi3+0x248>
    aafc:	e0944006 	adds	r4, r4, r6
    ab00:	e24bb001 	sub	fp, fp, #1	; 0x1
    ab04:	3a0000b0 	bcc	adcc <__udivdi3+0x50c>
    ab08:	e0624004 	rsb	r4, r2, r4
    ab0c:	e1a01007 	mov	r1, r7
    ab10:	e1a00004 	mov	r0, r4
    ab14:	ebfffdd1 	bl	a260 <__umodsi3>
    ab18:	e1a01007 	mov	r1, r7
    ab1c:	e1a05000 	mov	r5, r0
    ab20:	e1a00004 	mov	r0, r4
    ab24:	ebfffd39 	bl	a010 <__aeabi_uidiv>
    ab28:	e001009a 	mul	r1, sl, r0
    ab2c:	e1a02000 	mov	r2, r0
    ab30:	e59d0004 	ldr	r0, [sp, #4]
    ab34:	e1a03800 	lsl	r3, r0, #16
    ab38:	e1a03823 	lsr	r3, r3, #16
    ab3c:	e1830805 	orr	r0, r3, r5, lsl #16
    ab40:	e1510000 	cmp	r1, r0
    ab44:	9a000002 	bls	ab54 <__udivdi3+0x294>
    ab48:	e0900006 	adds	r0, r0, r6
    ab4c:	e2422001 	sub	r2, r2, #1	; 0x1
    ab50:	3a000099 	bcc	adbc <__udivdi3+0x4fc>
    ab54:	e1a09819 	lsl	r9, r9, r8
    ab58:	e0615000 	rsb	r5, r1, r0
    ab5c:	e182b80b 	orr	fp, r2, fp, lsl #16
    ab60:	e1a01007 	mov	r1, r7
    ab64:	e1a00005 	mov	r0, r5
    ab68:	ebfffdbc 	bl	a260 <__umodsi3>
    ab6c:	e1a01007 	mov	r1, r7
    ab70:	e1a04000 	mov	r4, r0
    ab74:	e1a00005 	mov	r0, r5
    ab78:	ebfffd24 	bl	a010 <__aeabi_uidiv>
    ab7c:	e002009a 	mul	r2, sl, r0
    ab80:	e1a03829 	lsr	r3, r9, #16
    ab84:	e1834804 	orr	r4, r3, r4, lsl #16
    ab88:	e1520004 	cmp	r2, r4
    ab8c:	e1a08000 	mov	r8, r0
    ab90:	9a000005 	bls	abac <__udivdi3+0x2ec>
    ab94:	e0944006 	adds	r4, r4, r6
    ab98:	e2408001 	sub	r8, r0, #1	; 0x1
    ab9c:	2a000002 	bcs	abac <__udivdi3+0x2ec>
    aba0:	e1520004 	cmp	r2, r4
    aba4:	82488001 	subhi	r8, r8, #1	; 0x1
    aba8:	80844006 	addhi	r4, r4, r6
    abac:	e0624004 	rsb	r4, r2, r4
    abb0:	e1a01007 	mov	r1, r7
    abb4:	e1a00004 	mov	r0, r4
    abb8:	ebfffda8 	bl	a260 <__umodsi3>
    abbc:	e1a01007 	mov	r1, r7
    abc0:	e1a05000 	mov	r5, r0
    abc4:	e1a00004 	mov	r0, r4
    abc8:	ebfffd10 	bl	a010 <__aeabi_uidiv>
    abcc:	e001009a 	mul	r1, sl, r0
    abd0:	e1a03809 	lsl	r3, r9, #16
    abd4:	e1a03823 	lsr	r3, r3, #16
    abd8:	e1a02000 	mov	r2, r0
    abdc:	e1830805 	orr	r0, r3, r5, lsl #16
    abe0:	e1510000 	cmp	r1, r0
    abe4:	9a000004 	bls	abfc <__udivdi3+0x33c>
    abe8:	e0903006 	adds	r3, r0, r6
    abec:	e2422001 	sub	r2, r2, #1	; 0x1
    abf0:	2a000001 	bcs	abfc <__udivdi3+0x33c>
    abf4:	e1510003 	cmp	r1, r3
    abf8:	82422001 	subhi	r2, r2, #1	; 0x1
    abfc:	e1822808 	orr	r2, r2, r8, lsl #16
    ac00:	e1a0300b 	mov	r3, fp
    ac04:	eaffff8b 	b	aa38 <__udivdi3+0x178>
    ac08:	e3530c01 	cmp	r3, #256	; 0x100
    ac0c:	33a03000 	movcc	r3, #0	; 0x0
    ac10:	23a03008 	movcs	r3, #8	; 0x8
    ac14:	e1a0133c 	lsr	r1, ip, r3
    ac18:	e59f21bc 	ldr	r2, [pc, #444]	; addc <__udivdi3+0x51c>
    ac1c:	e7d23001 	ldrb	r3, [r2, r1]
    ac20:	33a00020 	movcc	r0, #32	; 0x20
    ac24:	23a00018 	movcs	r0, #24	; 0x18
    ac28:	e050b003 	subs	fp, r0, r3
    ac2c:	0affff7a 	beq	aa1c <__udivdi3+0x15c>
    ac30:	e26b4020 	rsb	r4, fp, #32	; 0x20
    ac34:	e1a03436 	lsr	r3, r6, r4
    ac38:	e1a02439 	lsr	r2, r9, r4
    ac3c:	e1838b1c 	orr	r8, r3, ip, lsl fp
    ac40:	e1a04435 	lsr	r4, r5, r4
    ac44:	e1825b15 	orr	r5, r2, r5, lsl fp
    ac48:	e1a0a828 	lsr	sl, r8, #16
    ac4c:	e1a00004 	mov	r0, r4
    ac50:	e1a0100a 	mov	r1, sl
    ac54:	e58d5008 	str	r5, [sp, #8]
    ac58:	ebfffd80 	bl	a260 <__umodsi3>
    ac5c:	e1a0100a 	mov	r1, sl
    ac60:	e1a05000 	mov	r5, r0
    ac64:	e1a00004 	mov	r0, r4
    ac68:	ebfffce8 	bl	a010 <__aeabi_uidiv>
    ac6c:	e1a07808 	lsl	r7, r8, #16
    ac70:	e1a07827 	lsr	r7, r7, #16
    ac74:	e1a02000 	mov	r2, r0
    ac78:	e0020297 	mul	r2, r7, r2
    ac7c:	e59d1008 	ldr	r1, [sp, #8]
    ac80:	e1a03821 	lsr	r3, r1, #16
    ac84:	e1834805 	orr	r4, r3, r5, lsl #16
    ac88:	e1520004 	cmp	r2, r4
    ac8c:	e58d0000 	str	r0, [sp]
    ac90:	e1a06b16 	lsl	r6, r6, fp
    ac94:	9a000003 	bls	aca8 <__udivdi3+0x3e8>
    ac98:	e2400001 	sub	r0, r0, #1	; 0x1
    ac9c:	e0944008 	adds	r4, r4, r8
    aca0:	e58d0000 	str	r0, [sp]
    aca4:	3a00003f 	bcc	ada8 <__udivdi3+0x4e8>
    aca8:	e0624004 	rsb	r4, r2, r4
    acac:	e1a0100a 	mov	r1, sl
    acb0:	e1a00004 	mov	r0, r4
    acb4:	ebfffd69 	bl	a260 <__umodsi3>
    acb8:	e1a0100a 	mov	r1, sl
    acbc:	e1a05000 	mov	r5, r0
    acc0:	e1a00004 	mov	r0, r4
    acc4:	ebfffcd1 	bl	a010 <__aeabi_uidiv>
    acc8:	e0020097 	mul	r2, r7, r0
    accc:	e1a01000 	mov	r1, r0
    acd0:	e59d0008 	ldr	r0, [sp, #8]
    acd4:	e1a03800 	lsl	r3, r0, #16
    acd8:	e1a03823 	lsr	r3, r3, #16
    acdc:	e1830805 	orr	r0, r3, r5, lsl #16
    ace0:	e1520000 	cmp	r2, r0
    ace4:	9a000002 	bls	acf4 <__udivdi3+0x434>
    ace8:	e0900008 	adds	r0, r0, r8
    acec:	e2411001 	sub	r1, r1, #1	; 0x1
    acf0:	3a000028 	bcc	ad98 <__udivdi3+0x4d8>
    acf4:	e59d3000 	ldr	r3, [sp]
    acf8:	e0622000 	rsb	r2, r2, r0
    acfc:	e1810803 	orr	r0, r1, r3, lsl #16
    ad00:	e1a0c820 	lsr	ip, r0, #16
    ad04:	e1a03826 	lsr	r3, r6, #16
    ad08:	e1c0e80c 	bic	lr, r0, ip, lsl #16
    ad0c:	e1c64803 	bic	r4, r6, r3, lsl #16
    ad10:	e001049e 	mul	r1, lr, r4
    ad14:	e004049c 	mul	r4, ip, r4
    ad18:	e00e0e93 	mul	lr, r3, lr
    ad1c:	e003039c 	mul	r3, ip, r3
    ad20:	e094e00e 	adds	lr, r4, lr
    ad24:	22833801 	addcs	r3, r3, #65536	; 0x10000
    ad28:	e091180e 	adds	r1, r1, lr, lsl #16
    ad2c:	e0a3382e 	adc	r3, r3, lr, lsr #16
    ad30:	e1520003 	cmp	r2, r3
    ad34:	3a000008 	bcc	ad5c <__udivdi3+0x49c>
    ad38:	13a03000 	movne	r3, #0	; 0x0
    ad3c:	03a03001 	moveq	r3, #1	; 0x1
    ad40:	e1510b19 	cmp	r1, r9, lsl fp
    ad44:	93a01000 	movls	r1, #0	; 0x0
    ad48:	82031001 	andhi	r1, r3, #1	; 0x1
    ad4c:	e3510000 	cmp	r1, #0	; 0x0
    ad50:	01a02000 	moveq	r2, r0
    ad54:	01a03001 	moveq	r3, r1
    ad58:	0affff36 	beq	aa38 <__udivdi3+0x178>
    ad5c:	e2402001 	sub	r2, r0, #1	; 0x1
    ad60:	e3a03000 	mov	r3, #0	; 0x0
    ad64:	eaffff33 	b	aa38 <__udivdi3+0x178>
    ad68:	e3560c01 	cmp	r6, #256	; 0x100
    ad6c:	33a00020 	movcc	r0, #32	; 0x20
    ad70:	23a00018 	movcs	r0, #24	; 0x18
    ad74:	33a03000 	movcc	r3, #0	; 0x0
    ad78:	23a03008 	movcs	r3, #8	; 0x8
    ad7c:	eaffff3d 	b	aa78 <__udivdi3+0x1b8>
    ad80:	e3520c01 	cmp	r2, #256	; 0x100
    ad84:	33a00020 	movcc	r0, #32	; 0x20
    ad88:	23a00018 	movcs	r0, #24	; 0x18
    ad8c:	33a03000 	movcc	r3, #0	; 0x0
    ad90:	23a03008 	movcs	r3, #8	; 0x8
    ad94:	eafffedc 	b	a90c <__udivdi3+0x4c>
    ad98:	e1520000 	cmp	r2, r0
    ad9c:	80800008 	addhi	r0, r0, r8
    ada0:	82411001 	subhi	r1, r1, #1	; 0x1
    ada4:	eaffffd2 	b	acf4 <__udivdi3+0x434>
    ada8:	e1520004 	cmp	r2, r4
    adac:	82400001 	subhi	r0, r0, #1	; 0x1
    adb0:	858d0000 	strhi	r0, [sp]
    adb4:	80844008 	addhi	r4, r4, r8
    adb8:	eaffffba 	b	aca8 <__udivdi3+0x3e8>
    adbc:	e1510000 	cmp	r1, r0
    adc0:	82422001 	subhi	r2, r2, #1	; 0x1
    adc4:	80800006 	addhi	r0, r0, r6
    adc8:	eaffff61 	b	ab54 <__udivdi3+0x294>
    adcc:	e1520004 	cmp	r2, r4
    add0:	824bb001 	subhi	fp, fp, #1	; 0x1
    add4:	80844006 	addhi	r4, r4, r6
    add8:	eaffff4a 	b	ab08 <__udivdi3+0x248>
    addc:	0000fe3d 	.word	0x0000fe3d

0000ade0 <_atoi_r>:
    ade0:	e3a02000 	mov	r2, #0	; 0x0
    ade4:	e3a0300a 	mov	r3, #10	; 0xa
    ade8:	ea0003f6 	b	bdc8 <_strtol_r>

0000adec <atoi>:
    adec:	e3a01000 	mov	r1, #0	; 0x0
    adf0:	e3a0200a 	mov	r2, #10	; 0xa
    adf4:	ea000460 	b	bf7c <strtol>

0000adf8 <_iprintf_r>:
    adf8:	e92d000e 	push	{r1, r2, r3}
    adfc:	e52de004 	push	{lr}		; (str lr, [sp, #-4]!)
    ae00:	e5901008 	ldr	r1, [r0, #8]
    ae04:	e59d2004 	ldr	r2, [sp, #4]
    ae08:	e28d3008 	add	r3, sp, #8	; 0x8
    ae0c:	eb000471 	bl	bfd8 <_vfiprintf_r>
    ae10:	e49de004 	pop	{lr}		; (ldr lr, [sp], #4)
    ae14:	e28dd00c 	add	sp, sp, #12	; 0xc
    ae18:	e12fff1e 	bx	lr

0000ae1c <iprintf>:
    ae1c:	e92d000f 	push	{r0, r1, r2, r3}
    ae20:	e52de004 	push	{lr}		; (str lr, [sp, #-4]!)
    ae24:	e59f301c 	ldr	r3, [pc, #28]	; ae48 <iprintf+0x2c>
    ae28:	e5930000 	ldr	r0, [r3]
    ae2c:	e59d2004 	ldr	r2, [sp, #4]
    ae30:	e5901008 	ldr	r1, [r0, #8]
    ae34:	e28d3008 	add	r3, sp, #8	; 0x8
    ae38:	eb000466 	bl	bfd8 <_vfiprintf_r>
    ae3c:	e49de004 	pop	{lr}		; (ldr lr, [sp], #4)
    ae40:	e28dd010 	add	sp, sp, #16	; 0x10
    ae44:	e12fff1e 	bx	lr
    ae48:	40000514 	.word	0x40000514

0000ae4c <free>:
    ae4c:	e59f3008 	ldr	r3, [pc, #8]	; ae5c <free+0x10>
    ae50:	e1a01000 	mov	r1, r0
    ae54:	e5930000 	ldr	r0, [r3]
    ae58:	ea0009ff 	b	d65c <_free_r>
    ae5c:	40000514 	.word	0x40000514

0000ae60 <malloc>:
    ae60:	e59f3008 	ldr	r3, [pc, #8]	; ae70 <malloc+0x10>
    ae64:	e1a01000 	mov	r1, r0
    ae68:	e5930000 	ldr	r0, [r3]
    ae6c:	ea000000 	b	ae74 <_malloc_r>
    ae70:	40000514 	.word	0x40000514

0000ae74 <_malloc_r>:
    ae74:	e1a03001 	mov	r3, r1
    ae78:	e281100b 	add	r1, r1, #11	; 0xb
    ae7c:	e3510016 	cmp	r1, #22	; 0x16
    ae80:	e92d4ff0 	push	{r4, r5, r6, r7, r8, r9, sl, fp, lr}
    ae84:	83c16007 	bichi	r6, r1, #7	; 0x7
    ae88:	93a06010 	movls	r6, #16	; 0x10
    ae8c:	93a01000 	movls	r1, #0	; 0x0
    ae90:	81a01fa6 	lsrhi	r1, r6, #31
    ae94:	e1560003 	cmp	r6, r3
    ae98:	21a03001 	movcs	r3, r1
    ae9c:	33813001 	orrcc	r3, r1, #1	; 0x1
    aea0:	e3530000 	cmp	r3, #0	; 0x0
    aea4:	13a0300c 	movne	r3, #12	; 0xc
    aea8:	e1a08000 	mov	r8, r0
    aeac:	15803000 	strne	r3, [r0]
    aeb0:	13a05000 	movne	r5, #0	; 0x0
    aeb4:	1a000015 	bne	af10 <_malloc_r+0x9c>
    aeb8:	eb000258 	bl	b820 <__malloc_lock>
    aebc:	e3560f7e 	cmp	r6, #504	; 0x1f8
    aec0:	2a000014 	bcs	af18 <_malloc_r+0xa4>
    aec4:	e59fe6c0 	ldr	lr, [pc, #1728]	; b58c <_malloc_r+0x718>
    aec8:	e08e3006 	add	r3, lr, r6
    aecc:	e593400c 	ldr	r4, [r3, #12]
    aed0:	e1540003 	cmp	r4, r3
    aed4:	e1a021a6 	lsr	r2, r6, #3
    aed8:	0a00015a 	beq	b448 <_malloc_r+0x5d4>
    aedc:	e5943004 	ldr	r3, [r4, #4]
    aee0:	e3c33003 	bic	r3, r3, #3	; 0x3
    aee4:	e0843003 	add	r3, r4, r3
    aee8:	e5932004 	ldr	r2, [r3, #4]
    aeec:	e594000c 	ldr	r0, [r4, #12]
    aef0:	e5941008 	ldr	r1, [r4, #8]
    aef4:	e3822001 	orr	r2, r2, #1	; 0x1
    aef8:	e5801008 	str	r1, [r0, #8]
    aefc:	e581000c 	str	r0, [r1, #12]
    af00:	e5832004 	str	r2, [r3, #4]
    af04:	e1a00008 	mov	r0, r8
    af08:	eb000245 	bl	b824 <__malloc_unlock>
    af0c:	e2845008 	add	r5, r4, #8	; 0x8
    af10:	e1a00005 	mov	r0, r5
    af14:	e8bd8ff0 	pop	{r4, r5, r6, r7, r8, r9, sl, fp, pc}
    af18:	e1b024a6 	lsrs	r2, r6, #9
    af1c:	01a021a6 	lsreq	r2, r6, #3
    af20:	01a03182 	lsleq	r3, r2, #3
    af24:	0a000004 	beq	af3c <_malloc_r+0xc8>
    af28:	e3520004 	cmp	r2, #4	; 0x4
    af2c:	91a03326 	lsrls	r3, r6, #6
    af30:	92832038 	addls	r2, r3, #56	; 0x38
    af34:	91a03182 	lslls	r3, r2, #3
    af38:	8a00006b 	bhi	b0ec <_malloc_r+0x278>
    af3c:	e59fe648 	ldr	lr, [pc, #1608]	; b58c <_malloc_r+0x718>
    af40:	e08e0003 	add	r0, lr, r3
    af44:	e590400c 	ldr	r4, [r0, #12]
    af48:	e1500004 	cmp	r0, r4
    af4c:	1a000005 	bne	af68 <_malloc_r+0xf4>
    af50:	ea00000a 	b	af80 <_malloc_r+0x10c>
    af54:	e3510000 	cmp	r1, #0	; 0x0
    af58:	aa00007a 	bge	b148 <_malloc_r+0x2d4>
    af5c:	e594400c 	ldr	r4, [r4, #12]
    af60:	e1500004 	cmp	r0, r4
    af64:	0a000005 	beq	af80 <_malloc_r+0x10c>
    af68:	e5943004 	ldr	r3, [r4, #4]
    af6c:	e3c33003 	bic	r3, r3, #3	; 0x3
    af70:	e0661003 	rsb	r1, r6, r3
    af74:	e351000f 	cmp	r1, #15	; 0xf
    af78:	dafffff5 	ble	af54 <_malloc_r+0xe0>
    af7c:	e2422001 	sub	r2, r2, #1	; 0x1
    af80:	e2825001 	add	r5, r2, #1	; 0x1
    af84:	e59f7604 	ldr	r7, [pc, #1540]	; b590 <_malloc_r+0x71c>
    af88:	e5974008 	ldr	r4, [r7, #8]
    af8c:	e1570004 	cmp	r7, r4
    af90:	0a000017 	beq	aff4 <_malloc_r+0x180>
    af94:	e5943004 	ldr	r3, [r4, #4]
    af98:	e3c3c003 	bic	ip, r3, #3	; 0x3
    af9c:	e066000c 	rsb	r0, r6, ip
    afa0:	e350000f 	cmp	r0, #15	; 0xf
    afa4:	ca0000e9 	bgt	b350 <_malloc_r+0x4dc>
    afa8:	e3500000 	cmp	r0, #0	; 0x0
    afac:	e587700c 	str	r7, [r7, #12]
    afb0:	e5877008 	str	r7, [r7, #8]
    afb4:	aa000043 	bge	b0c8 <_malloc_r+0x254>
    afb8:	e35c0c02 	cmp	ip, #512	; 0x200
    afbc:	2a0000f1 	bcs	b388 <_malloc_r+0x514>
    afc0:	e1a031ac 	lsr	r3, ip, #3
    afc4:	e59e1004 	ldr	r1, [lr, #4]
    afc8:	e1a00143 	asr	r0, r3, #2
    afcc:	e3a02001 	mov	r2, #1	; 0x1
    afd0:	e1811012 	orr	r1, r1, r2, lsl r0
    afd4:	e1a03183 	lsl	r3, r3, #3
    afd8:	e08e3003 	add	r3, lr, r3
    afdc:	e5932008 	ldr	r2, [r3, #8]
    afe0:	e584300c 	str	r3, [r4, #12]
    afe4:	e5842008 	str	r2, [r4, #8]
    afe8:	e58e1004 	str	r1, [lr, #4]
    afec:	e582400c 	str	r4, [r2, #12]
    aff0:	e5834008 	str	r4, [r3, #8]
    aff4:	e247a008 	sub	sl, r7, #8	; 0x8
    aff8:	e1a02145 	asr	r2, r5, #2
    affc:	e3a03001 	mov	r3, #1	; 0x1
    b000:	e1a00213 	lsl	r0, r3, r2
    b004:	e59a1004 	ldr	r1, [sl, #4]
    b008:	e1500001 	cmp	r0, r1
    b00c:	8a00005a 	bhi	b17c <_malloc_r+0x308>
    b010:	e1100001 	tst	r0, r1
    b014:	1a000008 	bne	b03c <_malloc_r+0x1c8>
    b018:	e1a00310 	lsl	r0, r0, r3
    b01c:	e3c53003 	bic	r3, r5, #3	; 0x3
    b020:	e1100001 	tst	r0, r1
    b024:	e2835004 	add	r5, r3, #4	; 0x4
    b028:	1a000003 	bne	b03c <_malloc_r+0x1c8>
    b02c:	e1a00080 	lsl	r0, r0, #1
    b030:	e1100001 	tst	r0, r1
    b034:	e2855004 	add	r5, r5, #4	; 0x4
    b038:	0afffffb 	beq	b02c <_malloc_r+0x1b8>
    b03c:	e1a03185 	lsl	r3, r5, #3
    b040:	e08a1003 	add	r1, sl, r3
    b044:	e1a09005 	mov	r9, r5
    b048:	e1a02001 	mov	r2, r1
    b04c:	e592400c 	ldr	r4, [r2, #12]
    b050:	e1520004 	cmp	r2, r4
    b054:	1a000005 	bne	b070 <_malloc_r+0x1fc>
    b058:	ea000100 	b	b460 <_malloc_r+0x5ec>
    b05c:	e35e0000 	cmp	lr, #0	; 0x0
    b060:	aa000103 	bge	b474 <_malloc_r+0x600>
    b064:	e594400c 	ldr	r4, [r4, #12]
    b068:	e1520004 	cmp	r2, r4
    b06c:	0a0000fb 	beq	b460 <_malloc_r+0x5ec>
    b070:	e5943004 	ldr	r3, [r4, #4]
    b074:	e3c33003 	bic	r3, r3, #3	; 0x3
    b078:	e066e003 	rsb	lr, r6, r3
    b07c:	e35e000f 	cmp	lr, #15	; 0xf
    b080:	dafffff5 	ble	b05c <_malloc_r+0x1e8>
    b084:	e1a05004 	mov	r5, r4
    b088:	e5b50008 	ldr	r0, [r5, #8]!
    b08c:	e594c00c 	ldr	ip, [r4, #12]
    b090:	e0843006 	add	r3, r4, r6
    b094:	e3861001 	orr	r1, r6, #1	; 0x1
    b098:	e38e2001 	orr	r2, lr, #1	; 0x1
    b09c:	e58c0008 	str	r0, [ip, #8]
    b0a0:	e580c00c 	str	ip, [r0, #12]
    b0a4:	e5841004 	str	r1, [r4, #4]
    b0a8:	e5873008 	str	r3, [r7, #8]
    b0ac:	e587300c 	str	r3, [r7, #12]
    b0b0:	e783e00e 	str	lr, [r3, lr]
    b0b4:	e9830084 	stmib	r3, {r2, r7}
    b0b8:	e1a00008 	mov	r0, r8
    b0bc:	e583700c 	str	r7, [r3, #12]
    b0c0:	eb0001d7 	bl	b824 <__malloc_unlock>
    b0c4:	eaffff91 	b	af10 <_malloc_r+0x9c>
    b0c8:	e084200c 	add	r2, r4, ip
    b0cc:	e5923004 	ldr	r3, [r2, #4]
    b0d0:	e3833001 	orr	r3, r3, #1	; 0x1
    b0d4:	e1a00008 	mov	r0, r8
    b0d8:	e5823004 	str	r3, [r2, #4]
    b0dc:	e2845008 	add	r5, r4, #8	; 0x8
    b0e0:	eb0001cf 	bl	b824 <__malloc_unlock>
    b0e4:	e1a00005 	mov	r0, r5
    b0e8:	e8bd8ff0 	pop	{r4, r5, r6, r7, r8, r9, sl, fp, pc}
    b0ec:	e3520014 	cmp	r2, #20	; 0x14
    b0f0:	9282205b 	addls	r2, r2, #91	; 0x5b
    b0f4:	91a03182 	lslls	r3, r2, #3
    b0f8:	9affff8f 	bls	af3c <_malloc_r+0xc8>
    b0fc:	e3520054 	cmp	r2, #84	; 0x54
    b100:	91a03626 	lsrls	r3, r6, #12
    b104:	9283206e 	addls	r2, r3, #110	; 0x6e
    b108:	91a03182 	lslls	r3, r2, #3
    b10c:	9affff8a 	bls	af3c <_malloc_r+0xc8>
    b110:	e3520f55 	cmp	r2, #340	; 0x154
    b114:	91a037a6 	lsrls	r3, r6, #15
    b118:	92832077 	addls	r2, r3, #119	; 0x77
    b11c:	91a03182 	lslls	r3, r2, #3
    b120:	9affff85 	bls	af3c <_malloc_r+0xc8>
    b124:	e3a03e55 	mov	r3, #1360	; 0x550
    b128:	e2833004 	add	r3, r3, #4	; 0x4
    b12c:	e1520003 	cmp	r2, r3
    b130:	91a03926 	lsrls	r3, r6, #18
    b134:	9283207c 	addls	r2, r3, #124	; 0x7c
    b138:	83a0207e 	movhi	r2, #126	; 0x7e
    b13c:	82433f59 	subhi	r3, r3, #356	; 0x164
    b140:	91a03182 	lslls	r3, r2, #3
    b144:	eaffff7c 	b	af3c <_malloc_r+0xc8>
    b148:	e0840003 	add	r0, r4, r3
    b14c:	e5903004 	ldr	r3, [r0, #4]
    b150:	e594100c 	ldr	r1, [r4, #12]
    b154:	e5942008 	ldr	r2, [r4, #8]
    b158:	e3833001 	orr	r3, r3, #1	; 0x1
    b15c:	e5803004 	str	r3, [r0, #4]
    b160:	e5812008 	str	r2, [r1, #8]
    b164:	e1a00008 	mov	r0, r8
    b168:	e582100c 	str	r1, [r2, #12]
    b16c:	e2845008 	add	r5, r4, #8	; 0x8
    b170:	eb0001ab 	bl	b824 <__malloc_unlock>
    b174:	e1a00005 	mov	r0, r5
    b178:	e8bd8ff0 	pop	{r4, r5, r6, r7, r8, r9, sl, fp, pc}
    b17c:	e59a5008 	ldr	r5, [sl, #8]
    b180:	e5953004 	ldr	r3, [r5, #4]
    b184:	e3c39003 	bic	r9, r3, #3	; 0x3
    b188:	e0660009 	rsb	r0, r6, r9
    b18c:	e350000f 	cmp	r0, #15	; 0xf
    b190:	c3a03000 	movgt	r3, #0	; 0x0
    b194:	d3a03001 	movle	r3, #1	; 0x1
    b198:	e1560009 	cmp	r6, r9
    b19c:	83833001 	orrhi	r3, r3, #1	; 0x1
    b1a0:	e3530000 	cmp	r3, #0	; 0x0
    b1a4:	0a00005e 	beq	b324 <_malloc_r+0x4b0>
    b1a8:	e59f33e4 	ldr	r3, [pc, #996]	; b594 <_malloc_r+0x720>
    b1ac:	e59f03e4 	ldr	r0, [pc, #996]	; b598 <_malloc_r+0x724>
    b1b0:	e5932000 	ldr	r2, [r3]
    b1b4:	e5901000 	ldr	r1, [r0]
    b1b8:	e2822010 	add	r2, r2, #16	; 0x10
    b1bc:	e3710001 	cmn	r1, #1	; 0x1
    b1c0:	e0824006 	add	r4, r2, r6
    b1c4:	12843eff 	addne	r3, r4, #4080	; 0xff0
    b1c8:	1283300f 	addne	r3, r3, #15	; 0xf
    b1cc:	13c34eff 	bicne	r4, r3, #4080	; 0xff0
    b1d0:	13c4400f 	bicne	r4, r4, #15	; 0xf
    b1d4:	e1a00008 	mov	r0, r8
    b1d8:	e1a01004 	mov	r1, r4
    b1dc:	ebfff098 	bl	7444 <_sbrk_r>
    b1e0:	e3700001 	cmn	r0, #1	; 0x1
    b1e4:	e1a07000 	mov	r7, r0
    b1e8:	0a000042 	beq	b2f8 <_malloc_r+0x484>
    b1ec:	e0852009 	add	r2, r5, r9
    b1f0:	e1520000 	cmp	r2, r0
    b1f4:	9a0000c2 	bls	b504 <_malloc_r+0x690>
    b1f8:	e155000a 	cmp	r5, sl
    b1fc:	1a00003d 	bne	b2f8 <_malloc_r+0x484>
    b200:	e59fb394 	ldr	fp, [pc, #916]	; b59c <_malloc_r+0x728>
    b204:	e59b3000 	ldr	r3, [fp]
    b208:	e0841003 	add	r1, r4, r3
    b20c:	e58b1000 	str	r1, [fp]
    b210:	e59f0380 	ldr	r0, [pc, #896]	; b598 <_malloc_r+0x724>
    b214:	e5903000 	ldr	r3, [r0]
    b218:	e3730001 	cmn	r3, #1	; 0x1
    b21c:	10623007 	rsbne	r3, r2, r7
    b220:	10833001 	addne	r3, r3, r1
    b224:	01a03000 	moveq	r3, r0
    b228:	05837000 	streq	r7, [r3]
    b22c:	158b3000 	strne	r3, [fp]
    b230:	e2173007 	ands	r3, r7, #7	; 0x7
    b234:	12633008 	rsbne	r3, r3, #8	; 0x8
    b238:	10877003 	addne	r7, r7, r3
    b23c:	12831a01 	addne	r1, r3, #4096	; 0x1000
    b240:	e0873004 	add	r3, r7, r4
    b244:	e1a03a03 	lsl	r3, r3, #20
    b248:	e1a03a23 	lsr	r3, r3, #20
    b24c:	03a01a01 	moveq	r1, #4096	; 0x1000
    b250:	e0634001 	rsb	r4, r3, r1
    b254:	e1a01004 	mov	r1, r4
    b258:	e1a00008 	mov	r0, r8
    b25c:	ebfff078 	bl	7444 <_sbrk_r>
    b260:	e3700001 	cmn	r0, #1	; 0x1
    b264:	10673000 	rsbne	r3, r7, r0
    b268:	10833004 	addne	r3, r3, r4
    b26c:	13830001 	orrne	r0, r3, #1	; 0x1
    b270:	e59b3000 	ldr	r3, [fp]
    b274:	03a04000 	moveq	r4, #0	; 0x0
    b278:	02800002 	addeq	r0, r0, #2	; 0x2
    b27c:	e0843003 	add	r3, r4, r3
    b280:	e155000a 	cmp	r5, sl
    b284:	e58b3000 	str	r3, [fp]
    b288:	e5870004 	str	r0, [r7, #4]
    b28c:	e58a7008 	str	r7, [sl, #8]
    b290:	0a00000f 	beq	b2d4 <_malloc_r+0x460>
    b294:	e359000f 	cmp	r9, #15	; 0xf
    b298:	93a03001 	movls	r3, #1	; 0x1
    b29c:	95873004 	strls	r3, [r7, #4]
    b2a0:	9a000014 	bls	b2f8 <_malloc_r+0x484>
    b2a4:	e249200c 	sub	r2, r9, #12	; 0xc
    b2a8:	e3c22007 	bic	r2, r2, #7	; 0x7
    b2ac:	e0850002 	add	r0, r5, r2
    b2b0:	e3a01005 	mov	r1, #5	; 0x5
    b2b4:	e5801008 	str	r1, [r0, #8]
    b2b8:	e5801004 	str	r1, [r0, #4]
    b2bc:	e5953004 	ldr	r3, [r5, #4]
    b2c0:	e2033001 	and	r3, r3, #1	; 0x1
    b2c4:	e352000f 	cmp	r2, #15	; 0xf
    b2c8:	e1822003 	orr	r2, r2, r3
    b2cc:	e5852004 	str	r2, [r5, #4]
    b2d0:	8a0000a0 	bhi	b558 <_malloc_r+0x6e4>
    b2d4:	e59f12c4 	ldr	r1, [pc, #708]	; b5a0 <_malloc_r+0x72c>
    b2d8:	e59b2000 	ldr	r2, [fp]
    b2dc:	e5913000 	ldr	r3, [r1]
    b2e0:	e1520003 	cmp	r2, r3
    b2e4:	85812000 	strhi	r2, [r1]
    b2e8:	e59f12b4 	ldr	r1, [pc, #692]	; b5a4 <_malloc_r+0x730>
    b2ec:	e5913000 	ldr	r3, [r1]
    b2f0:	e1520003 	cmp	r2, r3
    b2f4:	85812000 	strhi	r2, [r1]
    b2f8:	e59a5008 	ldr	r5, [sl, #8]
    b2fc:	e5952004 	ldr	r2, [r5, #4]
    b300:	e3c22003 	bic	r2, r2, #3	; 0x3
    b304:	e0660002 	rsb	r0, r6, r2
    b308:	e350000f 	cmp	r0, #15	; 0xf
    b30c:	c3a03000 	movgt	r3, #0	; 0x0
    b310:	d3a03001 	movle	r3, #1	; 0x1
    b314:	e1560002 	cmp	r6, r2
    b318:	83833001 	orrhi	r3, r3, #1	; 0x1
    b31c:	e3530000 	cmp	r3, #0	; 0x0
    b320:	1a000095 	bne	b57c <_malloc_r+0x708>
    b324:	e0851006 	add	r1, r5, r6
    b328:	e3802001 	orr	r2, r0, #1	; 0x1
    b32c:	e3863001 	orr	r3, r6, #1	; 0x1
    b330:	e5853004 	str	r3, [r5, #4]
    b334:	e1a00008 	mov	r0, r8
    b338:	e5812004 	str	r2, [r1, #4]
    b33c:	e58a1008 	str	r1, [sl, #8]
    b340:	e2855008 	add	r5, r5, #8	; 0x8
    b344:	eb000136 	bl	b824 <__malloc_unlock>
    b348:	e1a00005 	mov	r0, r5
    b34c:	e8bd8ff0 	pop	{r4, r5, r6, r7, r8, r9, sl, fp, pc}
    b350:	e0842006 	add	r2, r4, r6
    b354:	e3801001 	orr	r1, r0, #1	; 0x1
    b358:	e3863001 	orr	r3, r6, #1	; 0x1
    b35c:	e7820000 	str	r0, [r2, r0]
    b360:	e5843004 	str	r3, [r4, #4]
    b364:	e587200c 	str	r2, [r7, #12]
    b368:	e5872008 	str	r2, [r7, #8]
    b36c:	e1a00008 	mov	r0, r8
    b370:	e9820082 	stmib	r2, {r1, r7}
    b374:	e582700c 	str	r7, [r2, #12]
    b378:	e2845008 	add	r5, r4, #8	; 0x8
    b37c:	eb000128 	bl	b824 <__malloc_unlock>
    b380:	e1a00005 	mov	r0, r5
    b384:	e8bd8ff0 	pop	{r4, r5, r6, r7, r8, r9, sl, fp, pc}
    b388:	e1a014ac 	lsr	r1, ip, #9
    b38c:	e3510004 	cmp	r1, #4	; 0x4
    b390:	91a0332c 	lsrls	r3, ip, #6
    b394:	92831038 	addls	r1, r3, #56	; 0x38
    b398:	91a03181 	lslls	r3, r1, #3
    b39c:	9a000015 	bls	b3f8 <_malloc_r+0x584>
    b3a0:	e3510014 	cmp	r1, #20	; 0x14
    b3a4:	9281105b 	addls	r1, r1, #91	; 0x5b
    b3a8:	91a03181 	lslls	r3, r1, #3
    b3ac:	9a000011 	bls	b3f8 <_malloc_r+0x584>
    b3b0:	e3510054 	cmp	r1, #84	; 0x54
    b3b4:	91a0362c 	lsrls	r3, ip, #12
    b3b8:	9283106e 	addls	r1, r3, #110	; 0x6e
    b3bc:	91a03181 	lslls	r3, r1, #3
    b3c0:	9a00000c 	bls	b3f8 <_malloc_r+0x584>
    b3c4:	e3510f55 	cmp	r1, #340	; 0x154
    b3c8:	91a037ac 	lsrls	r3, ip, #15
    b3cc:	92831077 	addls	r1, r3, #119	; 0x77
    b3d0:	91a03181 	lslls	r3, r1, #3
    b3d4:	9a000007 	bls	b3f8 <_malloc_r+0x584>
    b3d8:	e3a03e55 	mov	r3, #1360	; 0x550
    b3dc:	e2833004 	add	r3, r3, #4	; 0x4
    b3e0:	e1510003 	cmp	r1, r3
    b3e4:	91a0392c 	lsrls	r3, ip, #18
    b3e8:	9283107c 	addls	r1, r3, #124	; 0x7c
    b3ec:	83a0107e 	movhi	r1, #126	; 0x7e
    b3f0:	82433f59 	subhi	r3, r3, #356	; 0x164
    b3f4:	91a03181 	lslls	r3, r1, #3
    b3f8:	e08e0003 	add	r0, lr, r3
    b3fc:	e590e008 	ldr	lr, [r0, #8]
    b400:	e15e0000 	cmp	lr, r0
    b404:	e59fa180 	ldr	sl, [pc, #384]	; b58c <_malloc_r+0x718>
    b408:	11a0200e 	movne	r2, lr
    b40c:	0a00004a 	beq	b53c <_malloc_r+0x6c8>
    b410:	e5923004 	ldr	r3, [r2, #4]
    b414:	e3c33003 	bic	r3, r3, #3	; 0x3
    b418:	e15c0003 	cmp	ip, r3
    b41c:	2a000002 	bcs	b42c <_malloc_r+0x5b8>
    b420:	e5922008 	ldr	r2, [r2, #8]
    b424:	e1500002 	cmp	r0, r2
    b428:	1afffff8 	bne	b410 <_malloc_r+0x59c>
    b42c:	e592300c 	ldr	r3, [r2, #12]
    b430:	e1a0e002 	mov	lr, r2
    b434:	e584300c 	str	r3, [r4, #12]
    b438:	e584e008 	str	lr, [r4, #8]
    b43c:	e58e400c 	str	r4, [lr, #12]
    b440:	e5834008 	str	r4, [r3, #8]
    b444:	eafffeeb 	b	aff8 <_malloc_r+0x184>
    b448:	e2843008 	add	r3, r4, #8	; 0x8
    b44c:	e593400c 	ldr	r4, [r3, #12]
    b450:	e1530004 	cmp	r3, r4
    b454:	02825002 	addeq	r5, r2, #2	; 0x2
    b458:	0afffec9 	beq	af84 <_malloc_r+0x110>
    b45c:	eafffe9e 	b	aedc <_malloc_r+0x68>
    b460:	e2899001 	add	r9, r9, #1	; 0x1
    b464:	e3190003 	tst	r9, #3	; 0x3
    b468:	0a00000d 	beq	b4a4 <_malloc_r+0x630>
    b46c:	e2822008 	add	r2, r2, #8	; 0x8
    b470:	eafffef5 	b	b04c <_malloc_r+0x1d8>
    b474:	e0840003 	add	r0, r4, r3
    b478:	e5903004 	ldr	r3, [r0, #4]
    b47c:	e1a05004 	mov	r5, r4
    b480:	e594100c 	ldr	r1, [r4, #12]
    b484:	e5b52008 	ldr	r2, [r5, #8]!
    b488:	e3833001 	orr	r3, r3, #1	; 0x1
    b48c:	e5803004 	str	r3, [r0, #4]
    b490:	e5812008 	str	r2, [r1, #8]
    b494:	e582100c 	str	r1, [r2, #12]
    b498:	e1a00008 	mov	r0, r8
    b49c:	eb0000e0 	bl	b824 <__malloc_unlock>
    b4a0:	eafffe9a 	b	af10 <_malloc_r+0x9c>
    b4a4:	e1a02005 	mov	r2, r5
    b4a8:	e1a0c001 	mov	ip, r1
    b4ac:	e3120003 	tst	r2, #3	; 0x3
    b4b0:	e1a0100c 	mov	r1, ip
    b4b4:	e2422001 	sub	r2, r2, #1	; 0x1
    b4b8:	0a00002a 	beq	b568 <_malloc_r+0x6f4>
    b4bc:	e411c008 	ldr	ip, [r1], #-8
    b4c0:	e15c0001 	cmp	ip, r1
    b4c4:	0afffff8 	beq	b4ac <_malloc_r+0x638>
    b4c8:	e59a3004 	ldr	r3, [sl, #4]
    b4cc:	e1a00080 	lsl	r0, r0, #1
    b4d0:	e1500003 	cmp	r0, r3
    b4d4:	8affff28 	bhi	b17c <_malloc_r+0x308>
    b4d8:	e3500000 	cmp	r0, #0	; 0x0
    b4dc:	0affff26 	beq	b17c <_malloc_r+0x308>
    b4e0:	e1100003 	tst	r0, r3
    b4e4:	11a05009 	movne	r5, r9
    b4e8:	1afffed3 	bne	b03c <_malloc_r+0x1c8>
    b4ec:	e1a00080 	lsl	r0, r0, #1
    b4f0:	e1100003 	tst	r0, r3
    b4f4:	e2899004 	add	r9, r9, #4	; 0x4
    b4f8:	0afffffb 	beq	b4ec <_malloc_r+0x678>
    b4fc:	e1a05009 	mov	r5, r9
    b500:	eafffecd 	b	b03c <_malloc_r+0x1c8>
    b504:	e59fb090 	ldr	fp, [pc, #144]	; b59c <_malloc_r+0x728>
    b508:	e59b3000 	ldr	r3, [fp]
    b50c:	e0841003 	add	r1, r4, r3
    b510:	e58b1000 	str	r1, [fp]
    b514:	1affff3d 	bne	b210 <_malloc_r+0x39c>
    b518:	e1a03a02 	lsl	r3, r2, #20
    b51c:	e1a03a23 	lsr	r3, r3, #20
    b520:	e3530000 	cmp	r3, #0	; 0x0
    b524:	1affff39 	bne	b210 <_malloc_r+0x39c>
    b528:	e0843009 	add	r3, r4, r9
    b52c:	e59a2008 	ldr	r2, [sl, #8]
    b530:	e3833001 	orr	r3, r3, #1	; 0x1
    b534:	e5823004 	str	r3, [r2, #4]
    b538:	eaffff65 	b	b2d4 <_malloc_r+0x460>
    b53c:	e59a3004 	ldr	r3, [sl, #4]
    b540:	e1a01141 	asr	r1, r1, #2
    b544:	e3a02001 	mov	r2, #1	; 0x1
    b548:	e1833112 	orr	r3, r3, r2, lsl r1
    b54c:	e58a3004 	str	r3, [sl, #4]
    b550:	e1a0300e 	mov	r3, lr
    b554:	eaffffb6 	b	b434 <_malloc_r+0x5c0>
    b558:	e2851008 	add	r1, r5, #8	; 0x8
    b55c:	e1a00008 	mov	r0, r8
    b560:	eb00083d 	bl	d65c <_free_r>
    b564:	eaffff5a 	b	b2d4 <_malloc_r+0x460>
    b568:	e59a3004 	ldr	r3, [sl, #4]
    b56c:	e1e02000 	mvn	r2, r0
    b570:	e0033002 	and	r3, r3, r2
    b574:	e58a3004 	str	r3, [sl, #4]
    b578:	eaffffd2 	b	b4c8 <_malloc_r+0x654>
    b57c:	e1a00008 	mov	r0, r8
    b580:	eb0000a7 	bl	b824 <__malloc_unlock>
    b584:	e3a05000 	mov	r5, #0	; 0x0
    b588:	eafffe60 	b	af10 <_malloc_r+0x9c>
    b58c:	40000100 	.word	0x40000100
    b590:	40000108 	.word	0x40000108
    b594:	40000a40 	.word	0x40000a40
    b598:	4000050c 	.word	0x4000050c
    b59c:	40000a4c 	.word	0x40000a4c
    b5a0:	40000a44 	.word	0x40000a44
    b5a4:	40000a48 	.word	0x40000a48

0000b5a8 <memcmp>:
    b5a8:	e3520003 	cmp	r2, #3	; 0x3
    b5ac:	e92d0070 	push	{r4, r5, r6}
    b5b0:	e1a04002 	mov	r4, r2
    b5b4:	e1a06000 	mov	r6, r0
    b5b8:	e1a05001 	mov	r5, r1
    b5bc:	9a00001f 	bls	b640 <memcmp+0x98>
    b5c0:	e1813000 	orr	r3, r1, r0
    b5c4:	e3130003 	tst	r3, #3	; 0x3
    b5c8:	0a000011 	beq	b614 <memcmp+0x6c>
    b5cc:	e5d6c000 	ldrb	ip, [r6]
    b5d0:	e5d50000 	ldrb	r0, [r5]
    b5d4:	e15c0000 	cmp	ip, r0
    b5d8:	02442001 	subeq	r2, r4, #1	; 0x1
    b5dc:	01a03006 	moveq	r3, r6
    b5e0:	01a01005 	moveq	r1, r5
    b5e4:	0a000004 	beq	b5fc <memcmp+0x54>
    b5e8:	ea000017 	b	b64c <memcmp+0xa4>
    b5ec:	e5f3c001 	ldrb	ip, [r3, #1]!
    b5f0:	e5f10001 	ldrb	r0, [r1, #1]!
    b5f4:	e15c0000 	cmp	ip, r0
    b5f8:	1a000013 	bne	b64c <memcmp+0xa4>
    b5fc:	e3520000 	cmp	r2, #0	; 0x0
    b600:	e2422001 	sub	r2, r2, #1	; 0x1
    b604:	1afffff8 	bne	b5ec <memcmp+0x44>
    b608:	e3a00000 	mov	r0, #0	; 0x0
    b60c:	e8bd0070 	pop	{r4, r5, r6}
    b610:	e12fff1e 	bx	lr
    b614:	e5902000 	ldr	r2, [r0]
    b618:	e5913000 	ldr	r3, [r1]
    b61c:	e1520003 	cmp	r2, r3
    b620:	1a000004 	bne	b638 <memcmp+0x90>
    b624:	e2444004 	sub	r4, r4, #4	; 0x4
    b628:	e3540003 	cmp	r4, #3	; 0x3
    b62c:	e2800004 	add	r0, r0, #4	; 0x4
    b630:	e2811004 	add	r1, r1, #4	; 0x4
    b634:	8afffff6 	bhi	b614 <memcmp+0x6c>
    b638:	e1a06000 	mov	r6, r0
    b63c:	e1a05001 	mov	r5, r1
    b640:	e3540000 	cmp	r4, #0	; 0x0
    b644:	1affffe0 	bne	b5cc <memcmp+0x24>
    b648:	eaffffee 	b	b608 <memcmp+0x60>
    b64c:	e060000c 	rsb	r0, r0, ip
    b650:	eaffffed 	b	b60c <memcmp+0x64>

0000b654 <memcpy>:
    b654:	e92d0070 	push	{r4, r5, r6}
    b658:	e352000f 	cmp	r2, #15	; 0xf
    b65c:	e1a04002 	mov	r4, r2
    b660:	e1a05001 	mov	r5, r1
    b664:	e1a02001 	mov	r2, r1
    b668:	e1a06000 	mov	r6, r0
    b66c:	e1a01004 	mov	r1, r4
    b670:	9a000002 	bls	b680 <memcpy+0x2c>
    b674:	e1853006 	orr	r3, r5, r6
    b678:	e3130003 	tst	r3, #3	; 0x3
    b67c:	0a00000a 	beq	b6ac <memcpy+0x58>
    b680:	e3510000 	cmp	r1, #0	; 0x0
    b684:	0a000005 	beq	b6a0 <memcpy+0x4c>
    b688:	e3a0c000 	mov	ip, #0	; 0x0
    b68c:	e7d2300c 	ldrb	r3, [r2, ip]
    b690:	e7c0300c 	strb	r3, [r0, ip]
    b694:	e28cc001 	add	ip, ip, #1	; 0x1
    b698:	e15c0001 	cmp	ip, r1
    b69c:	1afffffa 	bne	b68c <memcpy+0x38>
    b6a0:	e1a00006 	mov	r0, r6
    b6a4:	e8bd0070 	pop	{r4, r5, r6}
    b6a8:	e12fff1e 	bx	lr
    b6ac:	e1a01006 	mov	r1, r6
    b6b0:	e1a0c005 	mov	ip, r5
    b6b4:	e1a00004 	mov	r0, r4
    b6b8:	e59c3000 	ldr	r3, [ip]
    b6bc:	e5813000 	str	r3, [r1]
    b6c0:	e59c2004 	ldr	r2, [ip, #4]
    b6c4:	e5812004 	str	r2, [r1, #4]
    b6c8:	e59c3008 	ldr	r3, [ip, #8]
    b6cc:	e5813008 	str	r3, [r1, #8]
    b6d0:	e2400010 	sub	r0, r0, #16	; 0x10
    b6d4:	e59c300c 	ldr	r3, [ip, #12]
    b6d8:	e350000f 	cmp	r0, #15	; 0xf
    b6dc:	e581300c 	str	r3, [r1, #12]
    b6e0:	e28cc010 	add	ip, ip, #16	; 0x10
    b6e4:	e2811010 	add	r1, r1, #16	; 0x10
    b6e8:	8afffff2 	bhi	b6b8 <memcpy+0x64>
    b6ec:	e2442010 	sub	r2, r4, #16	; 0x10
    b6f0:	e1a03222 	lsr	r3, r2, #4
    b6f4:	e0421203 	sub	r1, r2, r3, lsl #4
    b6f8:	e2833001 	add	r3, r3, #1	; 0x1
    b6fc:	e1a03203 	lsl	r3, r3, #4
    b700:	e3510003 	cmp	r1, #3	; 0x3
    b704:	e0854003 	add	r4, r5, r3
    b708:	e0860003 	add	r0, r6, r3
    b70c:	9a00000d 	bls	b748 <memcpy+0xf4>
    b710:	e3a0c000 	mov	ip, #0	; 0x0
    b714:	e794300c 	ldr	r3, [r4, ip]
    b718:	e780300c 	str	r3, [r0, ip]
    b71c:	e28cc004 	add	ip, ip, #4	; 0x4
    b720:	e06c3001 	rsb	r3, ip, r1
    b724:	e3530003 	cmp	r3, #3	; 0x3
    b728:	8afffff9 	bhi	b714 <memcpy+0xc0>
    b72c:	e2411004 	sub	r1, r1, #4	; 0x4
    b730:	e1a02121 	lsr	r2, r1, #2
    b734:	e2823001 	add	r3, r2, #1	; 0x1
    b738:	e1a03103 	lsl	r3, r3, #2
    b73c:	e0800003 	add	r0, r0, r3
    b740:	e0411102 	sub	r1, r1, r2, lsl #2
    b744:	e0844003 	add	r4, r4, r3
    b748:	e1a02004 	mov	r2, r4
    b74c:	eaffffcb 	b	b680 <memcpy+0x2c>

0000b750 <memset>:
    b750:	e3520003 	cmp	r2, #3	; 0x3
    b754:	e92d0030 	push	{r4, r5}
    b758:	e1a0c000 	mov	ip, r0
    b75c:	e1a04000 	mov	r4, r0
    b760:	e20150ff 	and	r5, r1, #255	; 0xff
    b764:	9a000022 	bls	b7f4 <memset+0xa4>
    b768:	e3100003 	tst	r0, #3	; 0x3
    b76c:	1a000022 	bne	b7fc <memset+0xac>
    b770:	e352000f 	cmp	r2, #15	; 0xf
    b774:	e1853405 	orr	r3, r5, r5, lsl #8
    b778:	e1831803 	orr	r1, r3, r3, lsl #16
    b77c:	81a0c002 	movhi	ip, r2
    b780:	81a03004 	movhi	r3, r4
    b784:	9a00000e 	bls	b7c4 <memset+0x74>
    b788:	e24cc010 	sub	ip, ip, #16	; 0x10
    b78c:	e35c000f 	cmp	ip, #15	; 0xf
    b790:	e5831000 	str	r1, [r3]
    b794:	e5831004 	str	r1, [r3, #4]
    b798:	e5831008 	str	r1, [r3, #8]
    b79c:	e583100c 	str	r1, [r3, #12]
    b7a0:	e2833010 	add	r3, r3, #16	; 0x10
    b7a4:	8afffff7 	bhi	b788 <memset+0x38>
    b7a8:	e2422010 	sub	r2, r2, #16	; 0x10
    b7ac:	e3c2300f 	bic	r3, r2, #15	; 0xf
    b7b0:	e202200f 	and	r2, r2, #15	; 0xf
    b7b4:	e2833010 	add	r3, r3, #16	; 0x10
    b7b8:	e3520003 	cmp	r2, #3	; 0x3
    b7bc:	e0840003 	add	r0, r4, r3
    b7c0:	9a00000a 	bls	b7f0 <memset+0xa0>
    b7c4:	e3a0c000 	mov	ip, #0	; 0x0
    b7c8:	e780100c 	str	r1, [r0, ip]
    b7cc:	e28cc004 	add	ip, ip, #4	; 0x4
    b7d0:	e06c3002 	rsb	r3, ip, r2
    b7d4:	e3530003 	cmp	r3, #3	; 0x3
    b7d8:	8afffffa 	bhi	b7c8 <memset+0x78>
    b7dc:	e2422004 	sub	r2, r2, #4	; 0x4
    b7e0:	e3c23003 	bic	r3, r2, #3	; 0x3
    b7e4:	e2833004 	add	r3, r3, #4	; 0x4
    b7e8:	e0800003 	add	r0, r0, r3
    b7ec:	e2022003 	and	r2, r2, #3	; 0x3
    b7f0:	e1a0c000 	mov	ip, r0
    b7f4:	e3520000 	cmp	r2, #0	; 0x0
    b7f8:	0a000005 	beq	b814 <memset+0xc4>
    b7fc:	e20510ff 	and	r1, r5, #255	; 0xff
    b800:	e3a03000 	mov	r3, #0	; 0x0
    b804:	e7cc1003 	strb	r1, [ip, r3]
    b808:	e2833001 	add	r3, r3, #1	; 0x1
    b80c:	e1530002 	cmp	r3, r2
    b810:	1afffffb 	bne	b804 <memset+0xb4>
    b814:	e1a00004 	mov	r0, r4
    b818:	e8bd0030 	pop	{r4, r5}
    b81c:	e12fff1e 	bx	lr

0000b820 <__malloc_lock>:
    b820:	e12fff1e 	bx	lr

0000b824 <__malloc_unlock>:
    b824:	e12fff1e 	bx	lr

0000b828 <siprintf>:
    b828:	e92d000e 	push	{r1, r2, r3}
    b82c:	e92d4010 	push	{r4, lr}
    b830:	e59f3058 	ldr	r3, [pc, #88]	; b890 <siprintf+0x68>
    b834:	e24dd05c 	sub	sp, sp, #92	; 0x5c
    b838:	e3e0c102 	mvn	ip, #-2147483648	; 0x80000000
    b83c:	e1a0e000 	mov	lr, r0
    b840:	e59d2064 	ldr	r2, [sp, #100]
    b844:	e58dc014 	str	ip, [sp, #20]
    b848:	e58dc008 	str	ip, [sp, #8]
    b84c:	e5930000 	ldr	r0, [r3]
    b850:	e3e0c000 	mvn	ip, #0	; 0x0
    b854:	e28d3068 	add	r3, sp, #104	; 0x68
    b858:	e1a0100d 	mov	r1, sp
    b85c:	e3a04f82 	mov	r4, #520	; 0x208
    b860:	e58de010 	str	lr, [sp, #16]
    b864:	e1cd40bc 	strh	r4, [sp, #12]
    b868:	e58de000 	str	lr, [sp]
    b86c:	e1cdc0be 	strh	ip, [sp, #14]
    b870:	eb0001d8 	bl	bfd8 <_vfiprintf_r>
    b874:	e59d3000 	ldr	r3, [sp]
    b878:	e3a02000 	mov	r2, #0	; 0x0
    b87c:	e5c32000 	strb	r2, [r3]
    b880:	e28dd05c 	add	sp, sp, #92	; 0x5c
    b884:	e8bd4010 	pop	{r4, lr}
    b888:	e28dd00c 	add	sp, sp, #12	; 0xc
    b88c:	e12fff1e 	bx	lr
    b890:	40000514 	.word	0x40000514

0000b894 <_siprintf_r>:
    b894:	e92d000c 	push	{r2, r3}
    b898:	e92d4010 	push	{r4, lr}
    b89c:	e1a0c001 	mov	ip, r1
    b8a0:	e24dd05c 	sub	sp, sp, #92	; 0x5c
    b8a4:	e3e0e102 	mvn	lr, #-2147483648	; 0x80000000
    b8a8:	e59d2064 	ldr	r2, [sp, #100]
    b8ac:	e28d3068 	add	r3, sp, #104	; 0x68
    b8b0:	e58dc010 	str	ip, [sp, #16]
    b8b4:	e58dc000 	str	ip, [sp]
    b8b8:	e1a0100d 	mov	r1, sp
    b8bc:	e3e0c000 	mvn	ip, #0	; 0x0
    b8c0:	e3a04f82 	mov	r4, #520	; 0x208
    b8c4:	e58de014 	str	lr, [sp, #20]
    b8c8:	e1cd40bc 	strh	r4, [sp, #12]
    b8cc:	e58de008 	str	lr, [sp, #8]
    b8d0:	e1cdc0be 	strh	ip, [sp, #14]
    b8d4:	eb0001bf 	bl	bfd8 <_vfiprintf_r>
    b8d8:	e59d3000 	ldr	r3, [sp]
    b8dc:	e3a02000 	mov	r2, #0	; 0x0
    b8e0:	e5c32000 	strb	r2, [r3]
    b8e4:	e28dd05c 	add	sp, sp, #92	; 0x5c
    b8e8:	e8bd4010 	pop	{r4, lr}
    b8ec:	e28dd008 	add	sp, sp, #8	; 0x8
    b8f0:	e12fff1e 	bx	lr

0000b8f4 <strcat>:
    b8f4:	e3100003 	tst	r0, #3	; 0x3
    b8f8:	e92d4010 	push	{r4, lr}
    b8fc:	e1a04000 	mov	r4, r0
    b900:	11a00000 	movne	r0, r0
    b904:	1a00001a 	bne	b974 <strcat+0x80>
    b908:	e5942000 	ldr	r2, [r4]
    b90c:	e28234ff 	add	r3, r2, #-16777216	; 0xff000000
    b910:	e2433801 	sub	r3, r3, #65536	; 0x10000
    b914:	e2433c01 	sub	r3, r3, #256	; 0x100
    b918:	e2433001 	sub	r3, r3, #1	; 0x1
    b91c:	e1e02002 	mvn	r2, r2
    b920:	e0033002 	and	r3, r3, r2
    b924:	e3c3347f 	bic	r3, r3, #2130706432	; 0x7f000000
    b928:	e3c3387f 	bic	r3, r3, #8323072	; 0x7f0000
    b92c:	e3c33c7f 	bic	r3, r3, #32512	; 0x7f00
    b930:	e3c3307f 	bic	r3, r3, #127	; 0x7f
    b934:	e3530000 	cmp	r3, #0	; 0x0
    b938:	e1a00004 	mov	r0, r4
    b93c:	1a00000c 	bne	b974 <strcat+0x80>
    b940:	e5b02004 	ldr	r2, [r0, #4]!
    b944:	e28234ff 	add	r3, r2, #-16777216	; 0xff000000
    b948:	e2433801 	sub	r3, r3, #65536	; 0x10000
    b94c:	e2433c01 	sub	r3, r3, #256	; 0x100
    b950:	e2433001 	sub	r3, r3, #1	; 0x1
    b954:	e1e02002 	mvn	r2, r2
    b958:	e0033002 	and	r3, r3, r2
    b95c:	e3c3347f 	bic	r3, r3, #2130706432	; 0x7f000000
    b960:	e3c3387f 	bic	r3, r3, #8323072	; 0x7f0000
    b964:	e3c33c7f 	bic	r3, r3, #32512	; 0x7f00
    b968:	e3c3307f 	bic	r3, r3, #127	; 0x7f
    b96c:	e3530000 	cmp	r3, #0	; 0x0
    b970:	0afffff2 	beq	b940 <strcat+0x4c>
    b974:	e5d03000 	ldrb	r3, [r0]
    b978:	e3530000 	cmp	r3, #0	; 0x0
    b97c:	0a000002 	beq	b98c <strcat+0x98>
    b980:	e5f03001 	ldrb	r3, [r0, #1]!
    b984:	e3530000 	cmp	r3, #0	; 0x0
    b988:	1afffffc 	bne	b980 <strcat+0x8c>
    b98c:	eb00003b 	bl	ba80 <strcpy>
    b990:	e1a00004 	mov	r0, r4
    b994:	e8bd8010 	pop	{r4, pc}

0000b998 <strcmp>:
    b998:	e1813000 	orr	r3, r1, r0
    b99c:	e3130003 	tst	r3, #3	; 0x3
    b9a0:	e1a02000 	mov	r2, r0
    b9a4:	1a000023 	bne	ba38 <strcmp+0xa0>
    b9a8:	e5902000 	ldr	r2, [r0]
    b9ac:	e5913000 	ldr	r3, [r1]
    b9b0:	e1520003 	cmp	r2, r3
    b9b4:	e1a0c001 	mov	ip, r1
    b9b8:	1a00001c 	bne	ba30 <strcmp+0x98>
    b9bc:	e28234ff 	add	r3, r2, #-16777216	; 0xff000000
    b9c0:	e2433801 	sub	r3, r3, #65536	; 0x10000
    b9c4:	e2433c01 	sub	r3, r3, #256	; 0x100
    b9c8:	e2433001 	sub	r3, r3, #1	; 0x1
    b9cc:	e1e02002 	mvn	r2, r2
    b9d0:	e0033002 	and	r3, r3, r2
    b9d4:	e3c3347f 	bic	r3, r3, #2130706432	; 0x7f000000
    b9d8:	e3c3387f 	bic	r3, r3, #8323072	; 0x7f0000
    b9dc:	e3c33c7f 	bic	r3, r3, #32512	; 0x7f00
    b9e0:	e3c3307f 	bic	r3, r3, #127	; 0x7f
    b9e4:	e3530000 	cmp	r3, #0	; 0x0
    b9e8:	0a000002 	beq	b9f8 <strcmp+0x60>
    b9ec:	ea000021 	b	ba78 <strcmp+0xe0>
    b9f0:	e3520000 	cmp	r2, #0	; 0x0
    b9f4:	1a00001f 	bne	ba78 <strcmp+0xe0>
    b9f8:	e5b01004 	ldr	r1, [r0, #4]!
    b9fc:	e28134ff 	add	r3, r1, #-16777216	; 0xff000000
    ba00:	e2433801 	sub	r3, r3, #65536	; 0x10000
    ba04:	e2433c01 	sub	r3, r3, #256	; 0x100
    ba08:	e1e02001 	mvn	r2, r1
    ba0c:	e2433001 	sub	r3, r3, #1	; 0x1
    ba10:	e0033002 	and	r3, r3, r2
    ba14:	e3c3247f 	bic	r2, r3, #2130706432	; 0x7f000000
    ba18:	e5bc3004 	ldr	r3, [ip, #4]!
    ba1c:	e3c2287f 	bic	r2, r2, #8323072	; 0x7f0000
    ba20:	e3c22c7f 	bic	r2, r2, #32512	; 0x7f00
    ba24:	e1510003 	cmp	r1, r3
    ba28:	e3c2207f 	bic	r2, r2, #127	; 0x7f
    ba2c:	0affffef 	beq	b9f0 <strcmp+0x58>
    ba30:	e1a02000 	mov	r2, r0
    ba34:	e1a0100c 	mov	r1, ip
    ba38:	e5d23000 	ldrb	r3, [r2]
    ba3c:	e3530000 	cmp	r3, #0	; 0x0
    ba40:	1a000004 	bne	ba58 <strcmp+0xc0>
    ba44:	ea000008 	b	ba6c <strcmp+0xd4>
    ba48:	e5f23001 	ldrb	r3, [r2, #1]!
    ba4c:	e3530000 	cmp	r3, #0	; 0x0
    ba50:	e2811001 	add	r1, r1, #1	; 0x1
    ba54:	0a000004 	beq	ba6c <strcmp+0xd4>
    ba58:	e5d10000 	ldrb	r0, [r1]
    ba5c:	e1500003 	cmp	r0, r3
    ba60:	0afffff8 	beq	ba48 <strcmp+0xb0>
    ba64:	e0600003 	rsb	r0, r0, r3
    ba68:	e12fff1e 	bx	lr
    ba6c:	e5d10000 	ldrb	r0, [r1]
    ba70:	e0600003 	rsb	r0, r0, r3
    ba74:	e12fff1e 	bx	lr
    ba78:	e3a00000 	mov	r0, #0	; 0x0
    ba7c:	e12fff1e 	bx	lr

0000ba80 <strcpy>:
    ba80:	e1813000 	orr	r3, r1, r0
    ba84:	e3130003 	tst	r3, #3	; 0x3
    ba88:	e52d4004 	push	{r4}		; (str r4, [sp, #-4]!)
    ba8c:	11a0c000 	movne	ip, r0
    ba90:	e1a04000 	mov	r4, r0
    ba94:	1a00001e 	bne	bb14 <strcpy+0x94>
    ba98:	e591c000 	ldr	ip, [r1]
    ba9c:	e28c24ff 	add	r2, ip, #-16777216	; 0xff000000
    baa0:	e2422801 	sub	r2, r2, #65536	; 0x10000
    baa4:	e2422c01 	sub	r2, r2, #256	; 0x100
    baa8:	e2422001 	sub	r2, r2, #1	; 0x1
    baac:	e1e0300c 	mvn	r3, ip
    bab0:	e0033002 	and	r3, r3, r2
    bab4:	e3c3347f 	bic	r3, r3, #2130706432	; 0x7f000000
    bab8:	e3c3387f 	bic	r3, r3, #8323072	; 0x7f0000
    babc:	e3c33c7f 	bic	r3, r3, #32512	; 0x7f00
    bac0:	e3c3307f 	bic	r3, r3, #127	; 0x7f
    bac4:	e3530000 	cmp	r3, #0	; 0x0
    bac8:	e1a00001 	mov	r0, r1
    bacc:	e1a01004 	mov	r1, r4
    bad0:	1a00000d 	bne	bb0c <strcpy+0x8c>
    bad4:	e481c004 	str	ip, [r1], #4
    bad8:	e5b0c004 	ldr	ip, [r0, #4]!
    badc:	e28c24ff 	add	r2, ip, #-16777216	; 0xff000000
    bae0:	e2422801 	sub	r2, r2, #65536	; 0x10000
    bae4:	e2422c01 	sub	r2, r2, #256	; 0x100
    bae8:	e2422001 	sub	r2, r2, #1	; 0x1
    baec:	e1e0300c 	mvn	r3, ip
    baf0:	e0033002 	and	r3, r3, r2
    baf4:	e3c3347f 	bic	r3, r3, #2130706432	; 0x7f000000
    baf8:	e3c3387f 	bic	r3, r3, #8323072	; 0x7f0000
    bafc:	e3c33c7f 	bic	r3, r3, #32512	; 0x7f00
    bb00:	e3c3307f 	bic	r3, r3, #127	; 0x7f
    bb04:	e3530000 	cmp	r3, #0	; 0x0
    bb08:	0afffff1 	beq	bad4 <strcpy+0x54>
    bb0c:	e1a0c001 	mov	ip, r1
    bb10:	e1a01000 	mov	r1, r0
    bb14:	e3a02000 	mov	r2, #0	; 0x0
    bb18:	e7d13002 	ldrb	r3, [r1, r2]
    bb1c:	e3530000 	cmp	r3, #0	; 0x0
    bb20:	e7cc3002 	strb	r3, [ip, r2]
    bb24:	e2822001 	add	r2, r2, #1	; 0x1
    bb28:	1afffffa 	bne	bb18 <strcpy+0x98>
    bb2c:	e1a00004 	mov	r0, r4
    bb30:	e8bd0010 	pop	{r4}
    bb34:	e12fff1e 	bx	lr

0000bb38 <strlen>:
    bb38:	e3100003 	tst	r0, #3	; 0x3
    bb3c:	e1a01000 	mov	r1, r0
    bb40:	11a00000 	movne	r0, r0
    bb44:	1a00001a 	bne	bbb4 <strlen+0x7c>
    bb48:	e5912000 	ldr	r2, [r1]
    bb4c:	e28234ff 	add	r3, r2, #-16777216	; 0xff000000
    bb50:	e2433801 	sub	r3, r3, #65536	; 0x10000
    bb54:	e2433c01 	sub	r3, r3, #256	; 0x100
    bb58:	e2433001 	sub	r3, r3, #1	; 0x1
    bb5c:	e1e02002 	mvn	r2, r2
    bb60:	e0033002 	and	r3, r3, r2
    bb64:	e3c3347f 	bic	r3, r3, #2130706432	; 0x7f000000
    bb68:	e3c3387f 	bic	r3, r3, #8323072	; 0x7f0000
    bb6c:	e3c33c7f 	bic	r3, r3, #32512	; 0x7f00
    bb70:	e3c3307f 	bic	r3, r3, #127	; 0x7f
    bb74:	e3530000 	cmp	r3, #0	; 0x0
    bb78:	e1a00001 	mov	r0, r1
    bb7c:	1a00000c 	bne	bbb4 <strlen+0x7c>
    bb80:	e5b02004 	ldr	r2, [r0, #4]!
    bb84:	e28234ff 	add	r3, r2, #-16777216	; 0xff000000
    bb88:	e2433801 	sub	r3, r3, #65536	; 0x10000
    bb8c:	e2433c01 	sub	r3, r3, #256	; 0x100
    bb90:	e2433001 	sub	r3, r3, #1	; 0x1
    bb94:	e1e02002 	mvn	r2, r2
    bb98:	e0033002 	and	r3, r3, r2
    bb9c:	e3c3347f 	bic	r3, r3, #2130706432	; 0x7f000000
    bba0:	e3c3387f 	bic	r3, r3, #8323072	; 0x7f0000
    bba4:	e3c33c7f 	bic	r3, r3, #32512	; 0x7f00
    bba8:	e3c3307f 	bic	r3, r3, #127	; 0x7f
    bbac:	e3530000 	cmp	r3, #0	; 0x0
    bbb0:	0afffff2 	beq	bb80 <strlen+0x48>
    bbb4:	e5d03000 	ldrb	r3, [r0]
    bbb8:	e3530000 	cmp	r3, #0	; 0x0
    bbbc:	0a000002 	beq	bbcc <strlen+0x94>
    bbc0:	e5f03001 	ldrb	r3, [r0, #1]!
    bbc4:	e3530000 	cmp	r3, #0	; 0x0
    bbc8:	1afffffc 	bne	bbc0 <strlen+0x88>
    bbcc:	e0610000 	rsb	r0, r1, r0
    bbd0:	e12fff1e 	bx	lr

0000bbd4 <strncpy>:
    bbd4:	e1a0c001 	mov	ip, r1
    bbd8:	e1811000 	orr	r1, r1, r0
    bbdc:	e3110003 	tst	r1, #3	; 0x3
    bbe0:	13a03000 	movne	r3, #0	; 0x0
    bbe4:	03a03001 	moveq	r3, #1	; 0x1
    bbe8:	e3520003 	cmp	r2, #3	; 0x3
    bbec:	93a03000 	movls	r3, #0	; 0x0
    bbf0:	82033001 	andhi	r3, r3, #1	; 0x1
    bbf4:	e92d0030 	push	{r4, r5}
    bbf8:	e3530000 	cmp	r3, #0	; 0x0
    bbfc:	e1a05000 	mov	r5, r0
    bc00:	11a0100c 	movne	r1, ip
    bc04:	e1a00002 	mov	r0, r2
    bc08:	11a04005 	movne	r4, r5
    bc0c:	1a00001e 	bne	bc8c <strncpy+0xb8>
    bc10:	e1a0400c 	mov	r4, ip
    bc14:	e1a0c005 	mov	ip, r5
    bc18:	e3500000 	cmp	r0, #0	; 0x0
    bc1c:	0a000017 	beq	bc80 <strncpy+0xac>
    bc20:	e5d43000 	ldrb	r3, [r4]
    bc24:	e1a0100c 	mov	r1, ip
    bc28:	e3530000 	cmp	r3, #0	; 0x0
    bc2c:	e2402001 	sub	r2, r0, #1	; 0x1
    bc30:	e4c13001 	strb	r3, [r1], #1
    bc34:	128cc002 	addne	ip, ip, #2	; 0x2
    bc38:	0a000008 	beq	bc60 <strncpy+0x8c>
    bc3c:	e3520000 	cmp	r2, #0	; 0x0
    bc40:	e1a0100c 	mov	r1, ip
    bc44:	e2422001 	sub	r2, r2, #1	; 0x1
    bc48:	0a00000c 	beq	bc80 <strncpy+0xac>
    bc4c:	e5f43001 	ldrb	r3, [r4, #1]!
    bc50:	e3530000 	cmp	r3, #0	; 0x0
    bc54:	e54c3001 	strb	r3, [ip, #-1]
    bc58:	e28cc001 	add	ip, ip, #1	; 0x1
    bc5c:	1afffff6 	bne	bc3c <strncpy+0x68>
    bc60:	e3520000 	cmp	r2, #0	; 0x0
    bc64:	13a03000 	movne	r3, #0	; 0x0
    bc68:	11a0c003 	movne	ip, r3
    bc6c:	0a000003 	beq	bc80 <strncpy+0xac>
    bc70:	e7c1c003 	strb	ip, [r1, r3]
    bc74:	e2833001 	add	r3, r3, #1	; 0x1
    bc78:	e1520003 	cmp	r2, r3
    bc7c:	1afffffb 	bne	bc70 <strncpy+0x9c>
    bc80:	e1a00005 	mov	r0, r5
    bc84:	e8bd0030 	pop	{r4, r5}
    bc88:	e12fff1e 	bx	lr
    bc8c:	e591c000 	ldr	ip, [r1]
    bc90:	e28c24ff 	add	r2, ip, #-16777216	; 0xff000000
    bc94:	e2422801 	sub	r2, r2, #65536	; 0x10000
    bc98:	e2422c01 	sub	r2, r2, #256	; 0x100
    bc9c:	e2422001 	sub	r2, r2, #1	; 0x1
    bca0:	e1e0300c 	mvn	r3, ip
    bca4:	e0033002 	and	r3, r3, r2
    bca8:	e3c3347f 	bic	r3, r3, #2130706432	; 0x7f000000
    bcac:	e3c3387f 	bic	r3, r3, #8323072	; 0x7f0000
    bcb0:	e3c33c7f 	bic	r3, r3, #32512	; 0x7f00
    bcb4:	e3c3307f 	bic	r3, r3, #127	; 0x7f
    bcb8:	e3530000 	cmp	r3, #0	; 0x0
    bcbc:	1a000004 	bne	bcd4 <strncpy+0x100>
    bcc0:	e2400004 	sub	r0, r0, #4	; 0x4
    bcc4:	e3500003 	cmp	r0, #3	; 0x3
    bcc8:	e484c004 	str	ip, [r4], #4
    bccc:	e2811004 	add	r1, r1, #4	; 0x4
    bcd0:	8affffed 	bhi	bc8c <strncpy+0xb8>
    bcd4:	e1a0c004 	mov	ip, r4
    bcd8:	e1a04001 	mov	r4, r1
    bcdc:	eaffffcd 	b	bc18 <strncpy+0x44>

0000bce0 <strtok>:
    bce0:	e59f300c 	ldr	r3, [pc, #12]	; bcf4 <strtok+0x14>
    bce4:	e5932000 	ldr	r2, [r3]
    bce8:	e3a03001 	mov	r3, #1	; 0x1
    bcec:	e282205c 	add	r2, r2, #92	; 0x5c
    bcf0:	ea000000 	b	bcf8 <__strtok_r>
    bcf4:	40000514 	.word	0x40000514

0000bcf8 <__strtok_r>:
    bcf8:	e92d0070 	push	{r4, r5, r6}
    bcfc:	e2505000 	subs	r5, r0, #0	; 0x0
    bd00:	e1a06002 	mov	r6, r2
    bd04:	e1a04001 	mov	r4, r1
    bd08:	e1a02003 	mov	r2, r3
    bd0c:	0a000026 	beq	bdac <__strtok_r+0xb4>
    bd10:	e1a01005 	mov	r1, r5
    bd14:	e4d10001 	ldrb	r0, [r1], #1
    bd18:	e3a0c000 	mov	ip, #0	; 0x0
    bd1c:	e7d4300c 	ldrb	r3, [r4, ip]
    bd20:	e3530000 	cmp	r3, #0	; 0x0
    bd24:	e28cc001 	add	ip, ip, #1	; 0x1
    bd28:	0a000005 	beq	bd44 <__strtok_r+0x4c>
    bd2c:	e1500003 	cmp	r0, r3
    bd30:	1afffff9 	bne	bd1c <__strtok_r+0x24>
    bd34:	e3520000 	cmp	r2, #0	; 0x0
    bd38:	0a00000f 	beq	bd7c <__strtok_r+0x84>
    bd3c:	e1a05001 	mov	r5, r1
    bd40:	eafffff2 	b	bd10 <__strtok_r+0x18>
    bd44:	e3500000 	cmp	r0, #0	; 0x0
    bd48:	05860000 	streq	r0, [r6]
    bd4c:	0a00000d 	beq	bd88 <__strtok_r+0x90>
    bd50:	e1a00001 	mov	r0, r1
    bd54:	e4d02001 	ldrb	r2, [r0], #1
    bd58:	e3a03000 	mov	r3, #0	; 0x0
    bd5c:	e7d4c003 	ldrb	ip, [r4, r3]
    bd60:	e15c0002 	cmp	ip, r2
    bd64:	e2833001 	add	r3, r3, #1	; 0x1
    bd68:	0a000008 	beq	bd90 <__strtok_r+0x98>
    bd6c:	e35c0000 	cmp	ip, #0	; 0x0
    bd70:	1afffff9 	bne	bd5c <__strtok_r+0x64>
    bd74:	e1a01000 	mov	r1, r0
    bd78:	eafffff4 	b	bd50 <__strtok_r+0x58>
    bd7c:	e5861000 	str	r1, [r6]
    bd80:	e5c52000 	strb	r2, [r5]
    bd84:	e1a00005 	mov	r0, r5
    bd88:	e8bd0070 	pop	{r4, r5, r6}
    bd8c:	e12fff1e 	bx	lr
    bd90:	e3520000 	cmp	r2, #0	; 0x0
    bd94:	01a00002 	moveq	r0, r2
    bd98:	13a03000 	movne	r3, #0	; 0x0
    bd9c:	15c13000 	strbne	r3, [r1]
    bda0:	e5860000 	str	r0, [r6]
    bda4:	e1a00005 	mov	r0, r5
    bda8:	eafffff6 	b	bd88 <__strtok_r+0x90>
    bdac:	e5965000 	ldr	r5, [r6]
    bdb0:	e3550000 	cmp	r5, #0	; 0x0
    bdb4:	01a00005 	moveq	r0, r5
    bdb8:	1affffd4 	bne	bd10 <__strtok_r+0x18>
    bdbc:	eafffff1 	b	bd88 <__strtok_r+0x90>

0000bdc0 <strtok_r>:
    bdc0:	e3a03001 	mov	r3, #1	; 0x1
    bdc4:	eaffffcb 	b	bcf8 <__strtok_r>

0000bdc8 <_strtol_r>:
    bdc8:	e92d4ff0 	push	{r4, r5, r6, r7, r8, r9, sl, fp, lr}
    bdcc:	e24dd00c 	sub	sp, sp, #12	; 0xc
    bdd0:	e58d1004 	str	r1, [sp, #4]
    bdd4:	e59f119c 	ldr	r1, [pc, #412]	; bf78 <_strtol_r+0x1b0>
    bdd8:	e58d0008 	str	r0, [sp, #8]
    bddc:	e591a000 	ldr	sl, [r1]
    bde0:	e58d2000 	str	r2, [sp]
    bde4:	e59d6004 	ldr	r6, [sp, #4]
    bde8:	e1a07003 	mov	r7, r3
    bdec:	e4d65001 	ldrb	r5, [r6], #1
    bdf0:	e7da3005 	ldrb	r3, [sl, r5]
    bdf4:	e2133008 	ands	r3, r3, #8	; 0x8
    bdf8:	1afffffb 	bne	bdec <_strtol_r+0x24>
    bdfc:	e355002d 	cmp	r5, #45	; 0x2d
    be00:	04d65001 	ldrbeq	r5, [r6], #1
    be04:	03a0b001 	moveq	fp, #1	; 0x1
    be08:	0a000002 	beq	be18 <_strtol_r+0x50>
    be0c:	e355002b 	cmp	r5, #43	; 0x2b
    be10:	04d65001 	ldrbeq	r5, [r6], #1
    be14:	e1a0b003 	mov	fp, r3
    be18:	e2772001 	rsbs	r2, r7, #1	; 0x1
    be1c:	33a02000 	movcc	r2, #0	; 0x0
    be20:	e3570000 	cmp	r7, #0	; 0x0
    be24:	13570010 	cmpne	r7, #16	; 0x10
    be28:	1a000008 	bne	be50 <_strtol_r+0x88>
    be2c:	e3550030 	cmp	r5, #48	; 0x30
    be30:	0a000047 	beq	bf54 <_strtol_r+0x18c>
    be34:	e3520000 	cmp	r2, #0	; 0x0
    be38:	0a000004 	beq	be50 <_strtol_r+0x88>
    be3c:	e3550030 	cmp	r5, #48	; 0x30
    be40:	13a0700a 	movne	r7, #10	; 0xa
    be44:	11a08007 	movne	r8, r7
    be48:	1a000001 	bne	be54 <_strtol_r+0x8c>
    be4c:	e3a07008 	mov	r7, #8	; 0x8
    be50:	e1a08007 	mov	r8, r7
    be54:	e35b0000 	cmp	fp, #0	; 0x0
    be58:	13a04102 	movne	r4, #-2147483648	; 0x80000000
    be5c:	03e04102 	mvneq	r4, #-2147483648	; 0x80000000
    be60:	e1a01008 	mov	r1, r8
    be64:	e1a00004 	mov	r0, r4
    be68:	ebfff8fc 	bl	a260 <__umodsi3>
    be6c:	e1a01008 	mov	r1, r8
    be70:	e1a09000 	mov	r9, r0
    be74:	e1a00004 	mov	r0, r4
    be78:	ebfff864 	bl	a010 <__aeabi_uidiv>
    be7c:	e1a0c000 	mov	ip, r0
    be80:	e3a00000 	mov	r0, #0	; 0x0
    be84:	e1a01000 	mov	r1, r0
    be88:	e7da3005 	ldrb	r3, [sl, r5]
    be8c:	e3130004 	tst	r3, #4	; 0x4
    be90:	12452030 	subne	r2, r5, #48	; 0x30
    be94:	1a000005 	bne	beb0 <_strtol_r+0xe8>
    be98:	e3130003 	tst	r3, #3	; 0x3
    be9c:	0a000017 	beq	bf00 <_strtol_r+0x138>
    bea0:	e3130001 	tst	r3, #1	; 0x1
    bea4:	13a03037 	movne	r3, #55	; 0x37
    bea8:	03a03057 	moveq	r3, #87	; 0x57
    beac:	e0632005 	rsb	r2, r3, r5
    beb0:	e1570002 	cmp	r7, r2
    beb4:	da000011 	ble	bf00 <_strtol_r+0x138>
    beb8:	e150000c 	cmp	r0, ip
    bebc:	93a03000 	movls	r3, #0	; 0x0
    bec0:	83a03001 	movhi	r3, #1	; 0x1
    bec4:	e1933fa1 	orrs	r3, r3, r1, lsr #31
    bec8:	1a000009 	bne	bef4 <_strtol_r+0x12c>
    becc:	e150000c 	cmp	r0, ip
    bed0:	13a03000 	movne	r3, #0	; 0x0
    bed4:	03a03001 	moveq	r3, #1	; 0x1
    bed8:	e1520009 	cmp	r2, r9
    bedc:	d3a03000 	movle	r3, #0	; 0x0
    bee0:	e3530000 	cmp	r3, #0	; 0x0
    bee4:	00202098 	mlaeq	r0, r8, r0, r2
    bee8:	03a01001 	moveq	r1, #1	; 0x1
    beec:	04d65001 	ldrbeq	r5, [r6], #1
    bef0:	0affffe4 	beq	be88 <_strtol_r+0xc0>
    bef4:	e3e01000 	mvn	r1, #0	; 0x0
    bef8:	e4d65001 	ldrb	r5, [r6], #1
    befc:	eaffffe1 	b	be88 <_strtol_r+0xc0>
    bf00:	e3710001 	cmn	r1, #1	; 0x1
    bf04:	0a00000b 	beq	bf38 <_strtol_r+0x170>
    bf08:	e35b0000 	cmp	fp, #0	; 0x0
    bf0c:	12600000 	rsbne	r0, r0, #0	; 0x0
    bf10:	e59d3000 	ldr	r3, [sp]
    bf14:	e3530000 	cmp	r3, #0	; 0x0
    bf18:	0a000004 	beq	bf30 <_strtol_r+0x168>
    bf1c:	e3510000 	cmp	r1, #0	; 0x0
    bf20:	059d1004 	ldreq	r1, [sp, #4]
    bf24:	e59d2000 	ldr	r2, [sp]
    bf28:	12461001 	subne	r1, r6, #1	; 0x1
    bf2c:	e5821000 	str	r1, [r2]
    bf30:	e28dd00c 	add	sp, sp, #12	; 0xc
    bf34:	e8bd8ff0 	pop	{r4, r5, r6, r7, r8, r9, sl, fp, pc}
    bf38:	e59d2008 	ldr	r2, [sp, #8]
    bf3c:	e35b0000 	cmp	fp, #0	; 0x0
    bf40:	e3a03022 	mov	r3, #34	; 0x22
    bf44:	e5823000 	str	r3, [r2]
    bf48:	13a00102 	movne	r0, #-2147483648	; 0x80000000
    bf4c:	03e00102 	mvneq	r0, #-2147483648	; 0x80000000
    bf50:	eaffffee 	b	bf10 <_strtol_r+0x148>
    bf54:	e5d63000 	ldrb	r3, [r6]
    bf58:	e3530058 	cmp	r3, #88	; 0x58
    bf5c:	13530078 	cmpne	r3, #120	; 0x78
    bf60:	1affffb3 	bne	be34 <_strtol_r+0x6c>
    bf64:	e3a07010 	mov	r7, #16	; 0x10
    bf68:	e5d65001 	ldrb	r5, [r6, #1]
    bf6c:	e1a08007 	mov	r8, r7
    bf70:	e2866002 	add	r6, r6, #2	; 0x2
    bf74:	eaffffb6 	b	be54 <_strtol_r+0x8c>
    bf78:	40000510 	.word	0x40000510

0000bf7c <strtol>:
    bf7c:	e52d4004 	push	{r4}		; (str r4, [sp, #-4]!)
    bf80:	e1a03002 	mov	r3, r2
    bf84:	e59f2018 	ldr	r2, [pc, #24]	; bfa4 <strtol+0x28>
    bf88:	e1a0c000 	mov	ip, r0
    bf8c:	e1a04001 	mov	r4, r1
    bf90:	e5920000 	ldr	r0, [r2]
    bf94:	e1a0100c 	mov	r1, ip
    bf98:	e1a02004 	mov	r2, r4
    bf9c:	e8bd0010 	pop	{r4}
    bfa0:	eaffff88 	b	bdc8 <_strtol_r>
    bfa4:	40000514 	.word	0x40000514

0000bfa8 <__sprint_r>:
    bfa8:	e5923008 	ldr	r3, [r2, #8]
    bfac:	e3530000 	cmp	r3, #0	; 0x0
    bfb0:	e92d4010 	push	{r4, lr}
    bfb4:	05823004 	streq	r3, [r2, #4]
    bfb8:	e1a04002 	mov	r4, r2
    bfbc:	01a00003 	moveq	r0, r3
    bfc0:	08bd8010 	popeq	{r4, pc}
    bfc4:	eb000642 	bl	d8d4 <__sfvwrite_r>
    bfc8:	e3a03000 	mov	r3, #0	; 0x0
    bfcc:	e5843004 	str	r3, [r4, #4]
    bfd0:	e5843008 	str	r3, [r4, #8]
    bfd4:	e8bd8010 	pop	{r4, pc}

0000bfd8 <_vfiprintf_r>:
    bfd8:	e92d4ff0 	push	{r4, r5, r6, r7, r8, r9, sl, fp, lr}
    bfdc:	e2505000 	subs	r5, r0, #0	; 0x0
    bfe0:	e24ddc05 	sub	sp, sp, #1280	; 0x500
    bfe4:	e88d0022 	stm	sp, {r1, r5}
    bfe8:	e1a04002 	mov	r4, r2
    bfec:	e1a0a003 	mov	sl, r3
    bff0:	0a000002 	beq	c000 <_vfiprintf_r+0x28>
    bff4:	e5953038 	ldr	r3, [r5, #56]
    bff8:	e3530000 	cmp	r3, #0	; 0x0
    bffc:	0a00017d 	beq	c5f8 <_vfiprintf_r+0x620>
    c000:	e59d8000 	ldr	r8, [sp]
    c004:	e1d8c0bc 	ldrh	ip, [r8, #12]
    c008:	e1a0380c 	lsl	r3, ip, #16
    c00c:	e1a02823 	lsr	r2, r3, #16
    c010:	e3120008 	tst	r2, #8	; 0x8
    c014:	0a000392 	beq	ce64 <_vfiprintf_r+0xe8c>
    c018:	e5983010 	ldr	r3, [r8, #16]
    c01c:	e3530000 	cmp	r3, #0	; 0x0
    c020:	0a00038f 	beq	ce64 <_vfiprintf_r+0xe8c>
    c024:	e202301a 	and	r3, r2, #26	; 0x1a
    c028:	e353000a 	cmp	r3, #10	; 0xa
    c02c:	0a000141 	beq	c538 <_vfiprintf_r+0x560>
    c030:	e3a03000 	mov	r3, #0	; 0x0
    c034:	e28d8d12 	add	r8, sp, #1152	; 0x480
    c038:	e2888008 	add	r8, r8, #8	; 0x8
    c03c:	e28d6d12 	add	r6, sp, #1152	; 0x480
    c040:	e58d3010 	str	r3, [sp, #16]
    c044:	e58d34f8 	str	r3, [sp, #1272]
    c048:	e58d34f4 	str	r3, [sp, #1268]
    c04c:	e58d3020 	str	r3, [sp, #32]
    c050:	e58d84f0 	str	r8, [sp, #1264]
    c054:	e2866008 	add	r6, r6, #8	; 0x8
    c058:	e1a08004 	mov	r8, r4
    c05c:	e5d83000 	ldrb	r3, [r8]
    c060:	e3530000 	cmp	r3, #0	; 0x0
    c064:	13530025 	cmpne	r3, #37	; 0x25
    c068:	0a000017 	beq	c0cc <_vfiprintf_r+0xf4>
    c06c:	e1a04008 	mov	r4, r8
    c070:	e5f43001 	ldrb	r3, [r4, #1]!
    c074:	e3530000 	cmp	r3, #0	; 0x0
    c078:	13530025 	cmpne	r3, #37	; 0x25
    c07c:	1afffffb 	bne	c070 <_vfiprintf_r+0x98>
    c080:	e0545008 	subs	r5, r4, r8
    c084:	01a08004 	moveq	r8, r4
    c088:	0a00000f 	beq	c0cc <_vfiprintf_r+0xf4>
    c08c:	e59d14f4 	ldr	r1, [sp, #1268]
    c090:	e59d04f8 	ldr	r0, [sp, #1272]
    c094:	e2812001 	add	r2, r1, #1	; 0x1
    c098:	e0803005 	add	r3, r0, r5
    c09c:	e3520007 	cmp	r2, #7	; 0x7
    c0a0:	e5868000 	str	r8, [r6]
    c0a4:	e58d34f8 	str	r3, [sp, #1272]
    c0a8:	e5865004 	str	r5, [r6, #4]
    c0ac:	e58d24f4 	str	r2, [sp, #1268]
    c0b0:	ca000109 	bgt	c4dc <_vfiprintf_r+0x504>
    c0b4:	e59dc010 	ldr	ip, [sp, #16]
    c0b8:	e08cc005 	add	ip, ip, r5
    c0bc:	e5d43000 	ldrb	r3, [r4]
    c0c0:	e58dc010 	str	ip, [sp, #16]
    c0c4:	e2866008 	add	r6, r6, #8	; 0x8
    c0c8:	e1a08004 	mov	r8, r4
    c0cc:	e3530000 	cmp	r3, #0	; 0x0
    c0d0:	0a000109 	beq	c4fc <_vfiprintf_r+0x524>
    c0d4:	e3a07000 	mov	r7, #0	; 0x0
    c0d8:	e3a02000 	mov	r2, #0	; 0x0
    c0dc:	e5cd24ff 	strb	r2, [sp, #1279]
    c0e0:	e58d7014 	str	r7, [sp, #20]
    c0e4:	e58da028 	str	sl, [sp, #40]
    c0e8:	e2881001 	add	r1, r8, #1	; 0x1
    c0ec:	e3e05000 	mvn	r5, #0	; 0x0
    c0f0:	e3a0a02b 	mov	sl, #43	; 0x2b
    c0f4:	e3a09020 	mov	r9, #32	; 0x20
    c0f8:	e1a08001 	mov	r8, r1
    c0fc:	e4d84001 	ldrb	r4, [r8], #1
    c100:	e2443020 	sub	r3, r4, #32	; 0x20
    c104:	e3530058 	cmp	r3, #88	; 0x58
    c108:	979ff103 	ldrls	pc, [pc, r3, lsl #2]
    c10c:	ea000261 	b	ca98 <_vfiprintf_r+0xac0>
    c110:	0000cb64 	.word	0x0000cb64
    c114:	0000ca98 	.word	0x0000ca98
    c118:	0000ca98 	.word	0x0000ca98
    c11c:	0000cb88 	.word	0x0000cb88
    c120:	0000ca98 	.word	0x0000ca98
    c124:	0000ca98 	.word	0x0000ca98
    c128:	0000ca98 	.word	0x0000ca98
    c12c:	0000ca98 	.word	0x0000ca98
    c130:	0000ca98 	.word	0x0000ca98
    c134:	0000ca98 	.word	0x0000ca98
    c138:	0000cb9c 	.word	0x0000cb9c
    c13c:	0000c600 	.word	0x0000c600
    c140:	0000ca98 	.word	0x0000ca98
    c144:	0000c614 	.word	0x0000c614
    c148:	0000c628 	.word	0x0000c628
    c14c:	0000ca98 	.word	0x0000ca98
    c150:	0000c684 	.word	0x0000c684
    c154:	0000c698 	.word	0x0000c698
    c158:	0000c698 	.word	0x0000c698
    c15c:	0000c698 	.word	0x0000c698
    c160:	0000c698 	.word	0x0000c698
    c164:	0000c698 	.word	0x0000c698
    c168:	0000c698 	.word	0x0000c698
    c16c:	0000c698 	.word	0x0000c698
    c170:	0000c698 	.word	0x0000c698
    c174:	0000c698 	.word	0x0000c698
    c178:	0000ca98 	.word	0x0000ca98
    c17c:	0000ca98 	.word	0x0000ca98
    c180:	0000ca98 	.word	0x0000ca98
    c184:	0000ca98 	.word	0x0000ca98
    c188:	0000ca98 	.word	0x0000ca98
    c18c:	0000ca98 	.word	0x0000ca98
    c190:	0000ca98 	.word	0x0000ca98
    c194:	0000ca98 	.word	0x0000ca98
    c198:	0000ca98 	.word	0x0000ca98
    c19c:	0000ca98 	.word	0x0000ca98
    c1a0:	0000c2c0 	.word	0x0000c2c0
    c1a4:	0000ca98 	.word	0x0000ca98
    c1a8:	0000ca98 	.word	0x0000ca98
    c1ac:	0000ca98 	.word	0x0000ca98
    c1b0:	0000ca98 	.word	0x0000ca98
    c1b4:	0000ca98 	.word	0x0000ca98
    c1b8:	0000ca98 	.word	0x0000ca98
    c1bc:	0000ca98 	.word	0x0000ca98
    c1c0:	0000ca98 	.word	0x0000ca98
    c1c4:	0000ca98 	.word	0x0000ca98
    c1c8:	0000ca98 	.word	0x0000ca98
    c1cc:	0000c288 	.word	0x0000c288
    c1d0:	0000ca98 	.word	0x0000ca98
    c1d4:	0000ca98 	.word	0x0000ca98
    c1d8:	0000ca98 	.word	0x0000ca98
    c1dc:	0000ca98 	.word	0x0000ca98
    c1e0:	0000ca98 	.word	0x0000ca98
    c1e4:	0000c34c 	.word	0x0000c34c
    c1e8:	0000ca98 	.word	0x0000ca98
    c1ec:	0000ca98 	.word	0x0000ca98
    c1f0:	0000ca4c 	.word	0x0000ca4c
    c1f4:	0000ca98 	.word	0x0000ca98
    c1f8:	0000ca98 	.word	0x0000ca98
    c1fc:	0000ca98 	.word	0x0000ca98
    c200:	0000ca98 	.word	0x0000ca98
    c204:	0000ca98 	.word	0x0000ca98
    c208:	0000ca98 	.word	0x0000ca98
    c20c:	0000ca98 	.word	0x0000ca98
    c210:	0000ca98 	.word	0x0000ca98
    c214:	0000ca98 	.word	0x0000ca98
    c218:	0000ca98 	.word	0x0000ca98
    c21c:	0000c784 	.word	0x0000c784
    c220:	0000c2c4 	.word	0x0000c2c4
    c224:	0000ca98 	.word	0x0000ca98
    c228:	0000ca98 	.word	0x0000ca98
    c22c:	0000ca98 	.word	0x0000ca98
    c230:	0000ca84 	.word	0x0000ca84
    c234:	0000c2c4 	.word	0x0000c2c4
    c238:	0000ca98 	.word	0x0000ca98
    c23c:	0000ca98 	.word	0x0000ca98
    c240:	0000c274 	.word	0x0000c274
    c244:	0000ca98 	.word	0x0000ca98
    c248:	0000cac0 	.word	0x0000cac0
    c24c:	0000c28c 	.word	0x0000c28c
    c250:	0000cae8 	.word	0x0000cae8
    c254:	0000c274 	.word	0x0000c274
    c258:	0000ca98 	.word	0x0000ca98
    c25c:	0000c720 	.word	0x0000c720
    c260:	0000ca98 	.word	0x0000ca98
    c264:	0000c350 	.word	0x0000c350
    c268:	0000ca98 	.word	0x0000ca98
    c26c:	0000ca98 	.word	0x0000ca98
    c270:	0000c6d4 	.word	0x0000c6d4
    c274:	e59d3028 	ldr	r3, [sp, #40]
    c278:	e3877010 	orr	r7, r7, #16	; 0x10
    c27c:	e1a01008 	mov	r1, r8
    c280:	e58d3028 	str	r3, [sp, #40]
    c284:	eaffff9b 	b	c0f8 <_vfiprintf_r+0x120>
    c288:	e3877010 	orr	r7, r7, #16	; 0x10
    c28c:	e2172010 	ands	r2, r7, #16	; 0x10
    c290:	1a000222 	bne	cb20 <_vfiprintf_r+0xb48>
    c294:	e2173040 	ands	r3, r7, #64	; 0x40
    c298:	0a0002fb 	beq	ce8c <_vfiprintf_r+0xeb4>
    c29c:	e59dc028 	ldr	ip, [sp, #40]
    c2a0:	e59d1028 	ldr	r1, [sp, #40]
    c2a4:	e59c3000 	ldr	r3, [ip]
    c2a8:	e2811004 	add	r1, r1, #4	; 0x4
    c2ac:	e1a03803 	lsl	r3, r3, #16
    c2b0:	e1a0c823 	lsr	ip, r3, #16
    c2b4:	e58d1024 	str	r1, [sp, #36]
    c2b8:	e1a03002 	mov	r3, r2
    c2bc:	ea00002f 	b	c380 <_vfiprintf_r+0x3a8>
    c2c0:	e3877010 	orr	r7, r7, #16	; 0x10
    c2c4:	e3170010 	tst	r7, #16	; 0x10
    c2c8:	1a000220 	bne	cb50 <_vfiprintf_r+0xb78>
    c2cc:	e3170040 	tst	r7, #64	; 0x40
    c2d0:	0a0002f8 	beq	ceb8 <_vfiprintf_r+0xee0>
    c2d4:	e59dc028 	ldr	ip, [sp, #40]
    c2d8:	e59d1028 	ldr	r1, [sp, #40]
    c2dc:	e59c3000 	ldr	r3, [ip]
    c2e0:	e2811004 	add	r1, r1, #4	; 0x4
    c2e4:	e1a03803 	lsl	r3, r3, #16
    c2e8:	e58d1024 	str	r1, [sp, #36]
    c2ec:	e1a0c843 	asr	ip, r3, #16
    c2f0:	e35c0000 	cmp	ip, #0	; 0x0
    c2f4:	b3a0302d 	movlt	r3, #45	; 0x2d
    c2f8:	b5cd34ff 	strblt	r3, [sp, #1279]
    c2fc:	a3a03001 	movge	r3, #1	; 0x1
    c300:	b26cc000 	rsblt	ip, ip, #0	; 0x0
    c304:	b243302c 	sublt	r3, r3, #44	; 0x2c
    c308:	e3550000 	cmp	r5, #0	; 0x0
    c30c:	aa00001f 	bge	c390 <_vfiprintf_r+0x3b8>
    c310:	e28d0e4f 	add	r0, sp, #1264	; 0x4f0
    c314:	e3530001 	cmp	r3, #1	; 0x1
    c318:	0a0002b3 	beq	cdec <_vfiprintf_r+0xe14>
    c31c:	31a09000 	movcc	r9, r0
    c320:	3a000250 	bcc	cc68 <_vfiprintf_r+0xc90>
    c324:	e3530002 	cmp	r3, #2	; 0x2
    c328:	0a0002c4 	beq	ce40 <_vfiprintf_r+0xe68>
    c32c:	e59f0c1c 	ldr	r0, [pc, #3100]	; cf50 <_vfiprintf_r+0xf78>
    c330:	e59d2024 	ldr	r2, [sp, #36]
    c334:	e58d5018 	str	r5, [sp, #24]
    c338:	e58d2028 	str	r2, [sp, #40]
    c33c:	e1a09000 	mov	r9, r0
    c340:	ebfffdfc 	bl	bb38 <strlen>
    c344:	e1a0b000 	mov	fp, r0
    c348:	ea000023 	b	c3dc <_vfiprintf_r+0x404>
    c34c:	e3877010 	orr	r7, r7, #16	; 0x10
    c350:	e3170010 	tst	r7, #16	; 0x10
    c354:	1a0001f7 	bne	cb38 <_vfiprintf_r+0xb60>
    c358:	e3170040 	tst	r7, #64	; 0x40
    c35c:	0a0002cf 	beq	cea0 <_vfiprintf_r+0xec8>
    c360:	e59dc028 	ldr	ip, [sp, #40]
    c364:	e59d1028 	ldr	r1, [sp, #40]
    c368:	e59c3000 	ldr	r3, [ip]
    c36c:	e2811004 	add	r1, r1, #4	; 0x4
    c370:	e1a03803 	lsl	r3, r3, #16
    c374:	e58d1024 	str	r1, [sp, #36]
    c378:	e1a0c823 	lsr	ip, r3, #16
    c37c:	e3a03001 	mov	r3, #1	; 0x1
    c380:	e3a01000 	mov	r1, #0	; 0x0
    c384:	e3550000 	cmp	r5, #0	; 0x0
    c388:	e5cd14ff 	strb	r1, [sp, #1279]
    c38c:	baffffdf 	blt	c310 <_vfiprintf_r+0x338>
    c390:	e3550000 	cmp	r5, #0	; 0x0
    c394:	035c0000 	cmpeq	ip, #0	; 0x0
    c398:	e3c77080 	bic	r7, r7, #128	; 0x80
    c39c:	e28d0e4f 	add	r0, sp, #1264	; 0x4f0
    c3a0:	1affffdb 	bne	c314 <_vfiprintf_r+0x33c>
    c3a4:	e3530000 	cmp	r3, #0	; 0x0
    c3a8:	1a000006 	bne	c3c8 <_vfiprintf_r+0x3f0>
    c3ac:	e3170001 	tst	r7, #1	; 0x1
    c3b0:	12833030 	addne	r3, r3, #48	; 0x30
    c3b4:	128d9e4e 	addne	r9, sp, #1248	; 0x4e0
    c3b8:	15cd34ef 	strbne	r3, [sp, #1263]
    c3bc:	1289900f 	addne	r9, r9, #15	; 0xf
    c3c0:	13a0b001 	movne	fp, #1	; 0x1
    c3c4:	1a000001 	bne	c3d0 <_vfiprintf_r+0x3f8>
    c3c8:	e1a09000 	mov	r9, r0
    c3cc:	e3a0b000 	mov	fp, #0	; 0x0
    c3d0:	e59d3024 	ldr	r3, [sp, #36]
    c3d4:	e58d5018 	str	r5, [sp, #24]
    c3d8:	e58d3028 	str	r3, [sp, #40]
    c3dc:	e5dd34ff 	ldrb	r3, [sp, #1279]
    c3e0:	e59d1018 	ldr	r1, [sp, #24]
    c3e4:	e151000b 	cmp	r1, fp
    c3e8:	b1a0100b 	movlt	r1, fp
    c3ec:	e3530000 	cmp	r3, #0	; 0x0
    c3f0:	e58d101c 	str	r1, [sp, #28]
    c3f4:	12811001 	addne	r1, r1, #1	; 0x1
    c3f8:	158d101c 	strne	r1, [sp, #28]
    c3fc:	e2172002 	ands	r2, r7, #2	; 0x2
    c400:	159d301c 	ldrne	r3, [sp, #28]
    c404:	12833002 	addne	r3, r3, #2	; 0x2
    c408:	158d301c 	strne	r3, [sp, #28]
    c40c:	e2175084 	ands	r5, r7, #132	; 0x84
    c410:	e58d2008 	str	r2, [sp, #8]
    c414:	e58d500c 	str	r5, [sp, #12]
    c418:	1a0000ee 	bne	c7d8 <_vfiprintf_r+0x800>
    c41c:	e59dc014 	ldr	ip, [sp, #20]
    c420:	e59d101c 	ldr	r1, [sp, #28]
    c424:	e061400c 	rsb	r4, r1, ip
    c428:	e3540000 	cmp	r4, #0	; 0x0
    c42c:	da0000e9 	ble	c7d8 <_vfiprintf_r+0x800>
    c430:	e3540010 	cmp	r4, #16	; 0x10
    c434:	da0002af 	ble	cef8 <_vfiprintf_r+0xf20>
    c438:	e59d04f8 	ldr	r0, [sp, #1272]
    c43c:	e59d14f4 	ldr	r1, [sp, #1268]
    c440:	e59f5b0c 	ldr	r5, [pc, #2828]	; cf54 <_vfiprintf_r+0xf7c>
    c444:	e28dae4f 	add	sl, sp, #1264	; 0x4f0
    c448:	ea000002 	b	c458 <_vfiprintf_r+0x480>
    c44c:	e2444010 	sub	r4, r4, #16	; 0x10
    c450:	e3540010 	cmp	r4, #16	; 0x10
    c454:	da000016 	ble	c4b4 <_vfiprintf_r+0x4dc>
    c458:	e2811001 	add	r1, r1, #1	; 0x1
    c45c:	e2800010 	add	r0, r0, #16	; 0x10
    c460:	e3510007 	cmp	r1, #7	; 0x7
    c464:	e3a02010 	mov	r2, #16	; 0x10
    c468:	e5865000 	str	r5, [r6]
    c46c:	e5862004 	str	r2, [r6, #4]
    c470:	e58d04f8 	str	r0, [sp, #1272]
    c474:	e58d14f4 	str	r1, [sp, #1268]
    c478:	d2866008 	addle	r6, r6, #8	; 0x8
    c47c:	dafffff2 	ble	c44c <_vfiprintf_r+0x474>
    c480:	e59d0004 	ldr	r0, [sp, #4]
    c484:	e59d1000 	ldr	r1, [sp]
    c488:	e1a0200a 	mov	r2, sl
    c48c:	ebfffec5 	bl	bfa8 <__sprint_r>
    c490:	e28d6d12 	add	r6, sp, #1152	; 0x480
    c494:	e3500000 	cmp	r0, #0	; 0x0
    c498:	e2866008 	add	r6, r6, #8	; 0x8
    c49c:	1a00001c 	bne	c514 <_vfiprintf_r+0x53c>
    c4a0:	e2444010 	sub	r4, r4, #16	; 0x10
    c4a4:	e3540010 	cmp	r4, #16	; 0x10
    c4a8:	e59d04f8 	ldr	r0, [sp, #1272]
    c4ac:	e59d14f4 	ldr	r1, [sp, #1268]
    c4b0:	caffffe8 	bgt	c458 <_vfiprintf_r+0x480>
    c4b4:	e2811001 	add	r1, r1, #1	; 0x1
    c4b8:	e0800004 	add	r0, r0, r4
    c4bc:	e3510007 	cmp	r1, #7	; 0x7
    c4c0:	e5865000 	str	r5, [r6]
    c4c4:	e5864004 	str	r4, [r6, #4]
    c4c8:	e58d04f8 	str	r0, [sp, #1272]
    c4cc:	e58d14f4 	str	r1, [sp, #1268]
    c4d0:	ca00021e 	bgt	cd50 <_vfiprintf_r+0xd78>
    c4d4:	e2866008 	add	r6, r6, #8	; 0x8
    c4d8:	ea0000c0 	b	c7e0 <_vfiprintf_r+0x808>
    c4dc:	e59d0004 	ldr	r0, [sp, #4]
    c4e0:	e59d1000 	ldr	r1, [sp]
    c4e4:	e28d2e4f 	add	r2, sp, #1264	; 0x4f0
    c4e8:	ebfffeae 	bl	bfa8 <__sprint_r>
    c4ec:	e3500000 	cmp	r0, #0	; 0x0
    c4f0:	1a000007 	bne	c514 <_vfiprintf_r+0x53c>
    c4f4:	e28d6d12 	add	r6, sp, #1152	; 0x480
    c4f8:	eafffeed 	b	c0b4 <_vfiprintf_r+0xdc>
    c4fc:	e59d34f8 	ldr	r3, [sp, #1272]
    c500:	e3530000 	cmp	r3, #0	; 0x0
    c504:	159d0004 	ldrne	r0, [sp, #4]
    c508:	159d1000 	ldrne	r1, [sp]
    c50c:	128d2e4f 	addne	r2, sp, #1264	; 0x4f0
    c510:	1bfffea4 	blne	bfa8 <__sprint_r>
    c514:	e59d2000 	ldr	r2, [sp]
    c518:	e1d230bc 	ldrh	r3, [r2, #12]
    c51c:	e3130040 	tst	r3, #64	; 0x40
    c520:	0a000001 	beq	c52c <_vfiprintf_r+0x554>
    c524:	e3e03000 	mvn	r3, #0	; 0x0
    c528:	e58d3010 	str	r3, [sp, #16]
    c52c:	e59d0010 	ldr	r0, [sp, #16]
    c530:	e28ddc05 	add	sp, sp, #1280	; 0x500
    c534:	e8bd8ff0 	pop	{r4, r5, r6, r7, r8, r9, sl, fp, pc}
    c538:	e59d2000 	ldr	r2, [sp]
    c53c:	e1d230fe 	ldrsh	r3, [r2, #14]
    c540:	e3530000 	cmp	r3, #0	; 0x0
    c544:	bafffeb9 	blt	c030 <_vfiprintf_r+0x58>
    c548:	e592501c 	ldr	r5, [r2, #28]
    c54c:	e5926024 	ldr	r6, [r2, #36]
    c550:	e1a02004 	mov	r2, r4
    c554:	e3a04b01 	mov	r4, #1024	; 0x400
    c558:	e3ccc002 	bic	ip, ip, #2	; 0x2
    c55c:	e08d8004 	add	r8, sp, r4
    c560:	e1c8c3b8 	strh	ip, [r8, #56]
    c564:	e3a0c000 	mov	ip, #0	; 0x0
    c568:	e58dc444 	str	ip, [sp, #1092]
    c56c:	e59dc000 	ldr	ip, [sp]
    c570:	e28d7e42 	add	r7, sp, #1056	; 0x420
    c574:	e1dcc0be 	ldrh	ip, [ip, #14]
    c578:	e28de030 	add	lr, sp, #48	; 0x30
    c57c:	e287700c 	add	r7, r7, #12	; 0xc
    c580:	e24ee004 	sub	lr, lr, #4	; 0x4
    c584:	e1a0300a 	mov	r3, sl
    c588:	e59d0004 	ldr	r0, [sp, #4]
    c58c:	e1a01007 	mov	r1, r7
    c590:	e1c8c3ba 	strh	ip, [r8, #58]
    c594:	e58d5448 	str	r5, [sp, #1096]
    c598:	e58d6450 	str	r6, [sp, #1104]
    c59c:	e58de43c 	str	lr, [sp, #1084]
    c5a0:	e58d4440 	str	r4, [sp, #1088]
    c5a4:	e58de42c 	str	lr, [sp, #1068]
    c5a8:	e58d4434 	str	r4, [sp, #1076]
    c5ac:	ebfffe89 	bl	bfd8 <_vfiprintf_r>
    c5b0:	e3500000 	cmp	r0, #0	; 0x0
    c5b4:	e58d0010 	str	r0, [sp, #16]
    c5b8:	ba000006 	blt	c5d8 <_vfiprintf_r+0x600>
    c5bc:	e1a01007 	mov	r1, r7
    c5c0:	e59d0004 	ldr	r0, [sp, #4]
    c5c4:	eb0002c4 	bl	d0dc <_fflush_r>
    c5c8:	e59d1010 	ldr	r1, [sp, #16]
    c5cc:	e3500000 	cmp	r0, #0	; 0x0
    c5d0:	13e01000 	mvnne	r1, #0	; 0x0
    c5d4:	e58d1010 	str	r1, [sp, #16]
    c5d8:	e28d2b01 	add	r2, sp, #1024	; 0x400
    c5dc:	e1d233b8 	ldrh	r3, [r2, #56]
    c5e0:	e3130040 	tst	r3, #64	; 0x40
    c5e4:	159d5000 	ldrne	r5, [sp]
    c5e8:	11d530bc 	ldrhne	r3, [r5, #12]
    c5ec:	13833040 	orrne	r3, r3, #64	; 0x40
    c5f0:	11c530bc 	strhne	r3, [r5, #12]
    c5f4:	eaffffcc 	b	c52c <_vfiprintf_r+0x554>
    c5f8:	eb00032e 	bl	d2b8 <__sinit>
    c5fc:	eafffe7f 	b	c000 <_vfiprintf_r+0x28>
    c600:	e59d3028 	ldr	r3, [sp, #40]
    c604:	e5cda4ff 	strb	sl, [sp, #1279]
    c608:	e1a01008 	mov	r1, r8
    c60c:	e58d3028 	str	r3, [sp, #40]
    c610:	eafffeb8 	b	c0f8 <_vfiprintf_r+0x120>
    c614:	e59d3028 	ldr	r3, [sp, #40]
    c618:	e3877004 	orr	r7, r7, #4	; 0x4
    c61c:	e1a01008 	mov	r1, r8
    c620:	e58d3028 	str	r3, [sp, #40]
    c624:	eafffeb3 	b	c0f8 <_vfiprintf_r+0x120>
    c628:	e1a01008 	mov	r1, r8
    c62c:	e4d14001 	ldrb	r4, [r1], #1
    c630:	e354002a 	cmp	r4, #42	; 0x2a
    c634:	0a00023f 	beq	cf38 <_vfiprintf_r+0xf60>
    c638:	e2440030 	sub	r0, r4, #48	; 0x30
    c63c:	e3500009 	cmp	r0, #9	; 0x9
    c640:	83a05000 	movhi	r5, #0	; 0x0
    c644:	8a00000c 	bhi	c67c <_vfiprintf_r+0x6a4>
    c648:	e288c002 	add	ip, r8, #2	; 0x2
    c64c:	e3a03000 	mov	r3, #0	; 0x0
    c650:	e1a02183 	lsl	r2, r3, #3
    c654:	e55c4001 	ldrb	r4, [ip, #-1]
    c658:	e1a03083 	lsl	r3, r3, #1
    c65c:	e0833002 	add	r3, r3, r2
    c660:	e0833000 	add	r3, r3, r0
    c664:	e2440030 	sub	r0, r4, #48	; 0x30
    c668:	e3500009 	cmp	r0, #9	; 0x9
    c66c:	e1a0100c 	mov	r1, ip
    c670:	e28cc001 	add	ip, ip, #1	; 0x1
    c674:	9afffff5 	bls	c650 <_vfiprintf_r+0x678>
    c678:	e1835fc3 	orr	r5, r3, r3, asr #31
    c67c:	e1a08001 	mov	r8, r1
    c680:	eafffe9e 	b	c100 <_vfiprintf_r+0x128>
    c684:	e59d3028 	ldr	r3, [sp, #40]
    c688:	e3877080 	orr	r7, r7, #128	; 0x80
    c68c:	e1a01008 	mov	r1, r8
    c690:	e58d3028 	str	r3, [sp, #40]
    c694:	eafffe97 	b	c0f8 <_vfiprintf_r+0x120>
    c698:	e2440030 	sub	r0, r4, #48	; 0x30
    c69c:	e3a03000 	mov	r3, #0	; 0x0
    c6a0:	e1a01008 	mov	r1, r8
    c6a4:	e1a02183 	lsl	r2, r3, #3
    c6a8:	e4d14001 	ldrb	r4, [r1], #1
    c6ac:	e1a03083 	lsl	r3, r3, #1
    c6b0:	e0833002 	add	r3, r3, r2
    c6b4:	e0803003 	add	r3, r0, r3
    c6b8:	e2440030 	sub	r0, r4, #48	; 0x30
    c6bc:	e3500009 	cmp	r0, #9	; 0x9
    c6c0:	e1a08001 	mov	r8, r1
    c6c4:	9afffff5 	bls	c6a0 <_vfiprintf_r+0x6c8>
    c6c8:	e58d3014 	str	r3, [sp, #20]
    c6cc:	e1a08001 	mov	r8, r1
    c6d0:	eafffe8a 	b	c100 <_vfiprintf_r+0x128>
    c6d4:	e59fc87c 	ldr	ip, [pc, #2172]	; cf58 <_vfiprintf_r+0xf80>
    c6d8:	e3170010 	tst	r7, #16	; 0x10
    c6dc:	e58dc020 	str	ip, [sp, #32]
    c6e0:	0a0000dd 	beq	ca5c <_vfiprintf_r+0xa84>
    c6e4:	e59d1028 	ldr	r1, [sp, #40]
    c6e8:	e2812004 	add	r2, r1, #4	; 0x4
    c6ec:	e591c000 	ldr	ip, [r1]
    c6f0:	e58d2024 	str	r2, [sp, #36]
    c6f4:	e35c0000 	cmp	ip, #0	; 0x0
    c6f8:	03a03000 	moveq	r3, #0	; 0x0
    c6fc:	12073001 	andne	r3, r7, #1	; 0x1
    c700:	e3530000 	cmp	r3, #0	; 0x0
    c704:	13a03030 	movne	r3, #48	; 0x30
    c708:	15cd34fd 	strbne	r3, [sp, #1277]
    c70c:	02833002 	addeq	r3, r3, #2	; 0x2
    c710:	15cd44fe 	strbne	r4, [sp, #1278]
    c714:	13877002 	orrne	r7, r7, #2	; 0x2
    c718:	1243302e 	subne	r3, r3, #46	; 0x2e
    c71c:	eaffff17 	b	c380 <_vfiprintf_r+0x3a8>
    c720:	e3a02000 	mov	r2, #0	; 0x0
    c724:	e59d3028 	ldr	r3, [sp, #40]
    c728:	e5cd24ff 	strb	r2, [sp, #1279]
    c72c:	e5939000 	ldr	r9, [r3]
    c730:	e2833004 	add	r3, r3, #4	; 0x4
    c734:	e3590000 	cmp	r9, #0	; 0x0
    c738:	e58d3028 	str	r3, [sp, #40]
    c73c:	0a0001f1 	beq	cf08 <_vfiprintf_r+0xf30>
    c740:	e3550000 	cmp	r5, #0	; 0x0
    c744:	ba0001e5 	blt	cee0 <_vfiprintf_r+0xf08>
    c748:	e1a00009 	mov	r0, r9
    c74c:	e3a01000 	mov	r1, #0	; 0x0
    c750:	e1a02005 	mov	r2, r5
    c754:	eb000615 	bl	dfb0 <memchr>
    c758:	e3500000 	cmp	r0, #0	; 0x0
    c75c:	0a000004 	beq	c774 <_vfiprintf_r+0x79c>
    c760:	e069b000 	rsb	fp, r9, r0
    c764:	e15b0005 	cmp	fp, r5
    c768:	d3a05000 	movle	r5, #0	; 0x0
    c76c:	d58d5018 	strle	r5, [sp, #24]
    c770:	daffff19 	ble	c3dc <_vfiprintf_r+0x404>
    c774:	e3a0c000 	mov	ip, #0	; 0x0
    c778:	e1a0b005 	mov	fp, r5
    c77c:	e58dc018 	str	ip, [sp, #24]
    c780:	eaffff15 	b	c3dc <_vfiprintf_r+0x404>
    c784:	e59d5028 	ldr	r5, [sp, #40]
    c788:	e5953000 	ldr	r3, [r5]
    c78c:	e3a0b001 	mov	fp, #1	; 0x1
    c790:	e3a0c000 	mov	ip, #0	; 0x0
    c794:	e2855004 	add	r5, r5, #4	; 0x4
    c798:	e28d9d13 	add	r9, sp, #1216	; 0x4c0
    c79c:	e5cd34c8 	strb	r3, [sp, #1224]
    c7a0:	e5cdc4ff 	strb	ip, [sp, #1279]
    c7a4:	e58d5028 	str	r5, [sp, #40]
    c7a8:	e58db01c 	str	fp, [sp, #28]
    c7ac:	e2899008 	add	r9, r9, #8	; 0x8
    c7b0:	e2172002 	ands	r2, r7, #2	; 0x2
    c7b4:	159d301c 	ldrne	r3, [sp, #28]
    c7b8:	e3a05000 	mov	r5, #0	; 0x0
    c7bc:	12833002 	addne	r3, r3, #2	; 0x2
    c7c0:	e58d5018 	str	r5, [sp, #24]
    c7c4:	158d301c 	strne	r3, [sp, #28]
    c7c8:	e2175084 	ands	r5, r7, #132	; 0x84
    c7cc:	e58d2008 	str	r2, [sp, #8]
    c7d0:	e58d500c 	str	r5, [sp, #12]
    c7d4:	0affff10 	beq	c41c <_vfiprintf_r+0x444>
    c7d8:	e59d04f8 	ldr	r0, [sp, #1272]
    c7dc:	e59d14f4 	ldr	r1, [sp, #1268]
    c7e0:	e5dd34ff 	ldrb	r3, [sp, #1279]
    c7e4:	e3530000 	cmp	r3, #0	; 0x0
    c7e8:	0a00000b 	beq	c81c <_vfiprintf_r+0x844>
    c7ec:	e28d3e4f 	add	r3, sp, #1264	; 0x4f0
    c7f0:	e2811001 	add	r1, r1, #1	; 0x1
    c7f4:	e283300f 	add	r3, r3, #15	; 0xf
    c7f8:	e2800001 	add	r0, r0, #1	; 0x1
    c7fc:	e5863000 	str	r3, [r6]
    c800:	e3510007 	cmp	r1, #7	; 0x7
    c804:	e3a03001 	mov	r3, #1	; 0x1
    c808:	e5863004 	str	r3, [r6, #4]
    c80c:	e58d04f8 	str	r0, [sp, #1272]
    c810:	e58d14f4 	str	r1, [sp, #1268]
    c814:	ca0000f4 	bgt	cbec <_vfiprintf_r+0xc14>
    c818:	e2866008 	add	r6, r6, #8	; 0x8
    c81c:	e59d5008 	ldr	r5, [sp, #8]
    c820:	e3550000 	cmp	r5, #0	; 0x0
    c824:	0a00000b 	beq	c858 <_vfiprintf_r+0x880>
    c828:	e2811001 	add	r1, r1, #1	; 0x1
    c82c:	e28d3e4f 	add	r3, sp, #1264	; 0x4f0
    c830:	e2800002 	add	r0, r0, #2	; 0x2
    c834:	e283300d 	add	r3, r3, #13	; 0xd
    c838:	e3a02002 	mov	r2, #2	; 0x2
    c83c:	e3510007 	cmp	r1, #7	; 0x7
    c840:	e5863000 	str	r3, [r6]
    c844:	e5862004 	str	r2, [r6, #4]
    c848:	e58d04f8 	str	r0, [sp, #1272]
    c84c:	e58d14f4 	str	r1, [sp, #1268]
    c850:	ca0000ef 	bgt	cc14 <_vfiprintf_r+0xc3c>
    c854:	e2866008 	add	r6, r6, #8	; 0x8
    c858:	e59dc00c 	ldr	ip, [sp, #12]
    c85c:	e35c0080 	cmp	ip, #128	; 0x80
    c860:	0a00010c 	beq	cc98 <_vfiprintf_r+0xcc0>
    c864:	e59d2018 	ldr	r2, [sp, #24]
    c868:	e06b4002 	rsb	r4, fp, r2
    c86c:	e3540000 	cmp	r4, #0	; 0x0
    c870:	da000028 	ble	c918 <_vfiprintf_r+0x940>
    c874:	e3540010 	cmp	r4, #16	; 0x10
    c878:	d59f56dc 	ldrle	r5, [pc, #1756]	; cf5c <_vfiprintf_r+0xf84>
    c87c:	da00001c 	ble	c8f4 <_vfiprintf_r+0x91c>
    c880:	e59f56d4 	ldr	r5, [pc, #1748]	; cf5c <_vfiprintf_r+0xf84>
    c884:	e28dae4f 	add	sl, sp, #1264	; 0x4f0
    c888:	ea000002 	b	c898 <_vfiprintf_r+0x8c0>
    c88c:	e2444010 	sub	r4, r4, #16	; 0x10
    c890:	e3540010 	cmp	r4, #16	; 0x10
    c894:	da000016 	ble	c8f4 <_vfiprintf_r+0x91c>
    c898:	e2811001 	add	r1, r1, #1	; 0x1
    c89c:	e2800010 	add	r0, r0, #16	; 0x10
    c8a0:	e3510007 	cmp	r1, #7	; 0x7
    c8a4:	e3a03010 	mov	r3, #16	; 0x10
    c8a8:	e5865000 	str	r5, [r6]
    c8ac:	e5863004 	str	r3, [r6, #4]
    c8b0:	e58d04f8 	str	r0, [sp, #1272]
    c8b4:	e58d14f4 	str	r1, [sp, #1268]
    c8b8:	d2866008 	addle	r6, r6, #8	; 0x8
    c8bc:	dafffff2 	ble	c88c <_vfiprintf_r+0x8b4>
    c8c0:	e59d0004 	ldr	r0, [sp, #4]
    c8c4:	e59d1000 	ldr	r1, [sp]
    c8c8:	e1a0200a 	mov	r2, sl
    c8cc:	ebfffdb5 	bl	bfa8 <__sprint_r>
    c8d0:	e28d6d12 	add	r6, sp, #1152	; 0x480
    c8d4:	e3500000 	cmp	r0, #0	; 0x0
    c8d8:	e2866008 	add	r6, r6, #8	; 0x8
    c8dc:	1affff0c 	bne	c514 <_vfiprintf_r+0x53c>
    c8e0:	e2444010 	sub	r4, r4, #16	; 0x10
    c8e4:	e3540010 	cmp	r4, #16	; 0x10
    c8e8:	e59d04f8 	ldr	r0, [sp, #1272]
    c8ec:	e59d14f4 	ldr	r1, [sp, #1268]
    c8f0:	caffffe8 	bgt	c898 <_vfiprintf_r+0x8c0>
    c8f4:	e2811001 	add	r1, r1, #1	; 0x1
    c8f8:	e0800004 	add	r0, r0, r4
    c8fc:	e3510007 	cmp	r1, #7	; 0x7
    c900:	e5865000 	str	r5, [r6]
    c904:	e5864004 	str	r4, [r6, #4]
    c908:	e58d04f8 	str	r0, [sp, #1272]
    c90c:	e58d14f4 	str	r1, [sp, #1268]
    c910:	ca0000c9 	bgt	cc3c <_vfiprintf_r+0xc64>
    c914:	e2866008 	add	r6, r6, #8	; 0x8
    c918:	e2813001 	add	r3, r1, #1	; 0x1
    c91c:	e080000b 	add	r0, r0, fp
    c920:	e3530007 	cmp	r3, #7	; 0x7
    c924:	e8860a00 	stm	r6, {r9, fp}
    c928:	e58d04f8 	str	r0, [sp, #1272]
    c92c:	e58d34f4 	str	r3, [sp, #1268]
    c930:	d286c008 	addle	ip, r6, #8	; 0x8
    c934:	ca000110 	bgt	cd7c <_vfiprintf_r+0xda4>
    c938:	e3170004 	tst	r7, #4	; 0x4
    c93c:	0a000033 	beq	ca10 <_vfiprintf_r+0xa38>
    c940:	e59d5014 	ldr	r5, [sp, #20]
    c944:	e59d101c 	ldr	r1, [sp, #28]
    c948:	e0614005 	rsb	r4, r1, r5
    c94c:	e3540000 	cmp	r4, #0	; 0x0
    c950:	da00002e 	ble	ca10 <_vfiprintf_r+0xa38>
    c954:	e3540010 	cmp	r4, #16	; 0x10
    c958:	da000173 	ble	cf2c <_vfiprintf_r+0xf54>
    c95c:	e59d14f4 	ldr	r1, [sp, #1268]
    c960:	e59f55ec 	ldr	r5, [pc, #1516]	; cf54 <_vfiprintf_r+0xf7c>
    c964:	e28d6e4f 	add	r6, sp, #1264	; 0x4f0
    c968:	ea000002 	b	c978 <_vfiprintf_r+0x9a0>
    c96c:	e2444010 	sub	r4, r4, #16	; 0x10
    c970:	e3540010 	cmp	r4, #16	; 0x10
    c974:	da000016 	ble	c9d4 <_vfiprintf_r+0x9fc>
    c978:	e2811001 	add	r1, r1, #1	; 0x1
    c97c:	e2800010 	add	r0, r0, #16	; 0x10
    c980:	e3510007 	cmp	r1, #7	; 0x7
    c984:	e3a02010 	mov	r2, #16	; 0x10
    c988:	e58c5000 	str	r5, [ip]
    c98c:	e58c2004 	str	r2, [ip, #4]
    c990:	e58d04f8 	str	r0, [sp, #1272]
    c994:	e58d14f4 	str	r1, [sp, #1268]
    c998:	d28cc008 	addle	ip, ip, #8	; 0x8
    c99c:	dafffff2 	ble	c96c <_vfiprintf_r+0x994>
    c9a0:	e59d0004 	ldr	r0, [sp, #4]
    c9a4:	e59d1000 	ldr	r1, [sp]
    c9a8:	e1a02006 	mov	r2, r6
    c9ac:	ebfffd7d 	bl	bfa8 <__sprint_r>
    c9b0:	e28dcd12 	add	ip, sp, #1152	; 0x480
    c9b4:	e3500000 	cmp	r0, #0	; 0x0
    c9b8:	e28cc008 	add	ip, ip, #8	; 0x8
    c9bc:	1afffed4 	bne	c514 <_vfiprintf_r+0x53c>
    c9c0:	e2444010 	sub	r4, r4, #16	; 0x10
    c9c4:	e3540010 	cmp	r4, #16	; 0x10
    c9c8:	e59d04f8 	ldr	r0, [sp, #1272]
    c9cc:	e59d14f4 	ldr	r1, [sp, #1268]
    c9d0:	caffffe8 	bgt	c978 <_vfiprintf_r+0x9a0>
    c9d4:	e2813001 	add	r3, r1, #1	; 0x1
    c9d8:	e0800004 	add	r0, r0, r4
    c9dc:	e3530007 	cmp	r3, #7	; 0x7
    c9e0:	e58c5000 	str	r5, [ip]
    c9e4:	e58c4004 	str	r4, [ip, #4]
    c9e8:	e58d04f8 	str	r0, [sp, #1272]
    c9ec:	e58d34f4 	str	r3, [sp, #1268]
    c9f0:	da000006 	ble	ca10 <_vfiprintf_r+0xa38>
    c9f4:	e59d0004 	ldr	r0, [sp, #4]
    c9f8:	e59d1000 	ldr	r1, [sp]
    c9fc:	e28d2e4f 	add	r2, sp, #1264	; 0x4f0
    ca00:	ebfffd68 	bl	bfa8 <__sprint_r>
    ca04:	e3500000 	cmp	r0, #0	; 0x0
    ca08:	1afffec1 	bne	c514 <_vfiprintf_r+0x53c>
    ca0c:	e59d04f8 	ldr	r0, [sp, #1272]
    ca10:	e59d3010 	ldr	r3, [sp, #16]
    ca14:	e59d501c 	ldr	r5, [sp, #28]
    ca18:	e59dc014 	ldr	ip, [sp, #20]
    ca1c:	e155000c 	cmp	r5, ip
    ca20:	a0833005 	addge	r3, r3, r5
    ca24:	b083300c 	addlt	r3, r3, ip
    ca28:	e3500000 	cmp	r0, #0	; 0x0
    ca2c:	e58d3010 	str	r3, [sp, #16]
    ca30:	1a0000db 	bne	cda4 <_vfiprintf_r+0xdcc>
    ca34:	e3a01000 	mov	r1, #0	; 0x0
    ca38:	e28d6d12 	add	r6, sp, #1152	; 0x480
    ca3c:	e58d14f4 	str	r1, [sp, #1268]
    ca40:	e59da028 	ldr	sl, [sp, #40]
    ca44:	e2866008 	add	r6, r6, #8	; 0x8
    ca48:	eafffd83 	b	c05c <_vfiprintf_r+0x84>
    ca4c:	e59f350c 	ldr	r3, [pc, #1292]	; cf60 <_vfiprintf_r+0xf88>
    ca50:	e3170010 	tst	r7, #16	; 0x10
    ca54:	e58d3020 	str	r3, [sp, #32]
    ca58:	1affff21 	bne	c6e4 <_vfiprintf_r+0x70c>
    ca5c:	e3170040 	tst	r7, #64	; 0x40
    ca60:	0a000119 	beq	cecc <_vfiprintf_r+0xef4>
    ca64:	e59dc028 	ldr	ip, [sp, #40]
    ca68:	e59d1028 	ldr	r1, [sp, #40]
    ca6c:	e59c3000 	ldr	r3, [ip]
    ca70:	e2811004 	add	r1, r1, #4	; 0x4
    ca74:	e1a03803 	lsl	r3, r3, #16
    ca78:	e1a0c823 	lsr	ip, r3, #16
    ca7c:	e58d1024 	str	r1, [sp, #36]
    ca80:	eaffff1b 	b	c6f4 <_vfiprintf_r+0x71c>
    ca84:	e59d3028 	ldr	r3, [sp, #40]
    ca88:	e3877040 	orr	r7, r7, #64	; 0x40
    ca8c:	e1a01008 	mov	r1, r8
    ca90:	e58d3028 	str	r3, [sp, #40]
    ca94:	eafffd97 	b	c0f8 <_vfiprintf_r+0x120>
    ca98:	e3540000 	cmp	r4, #0	; 0x0
    ca9c:	0afffe96 	beq	c4fc <_vfiprintf_r+0x524>
    caa0:	e3a0b001 	mov	fp, #1	; 0x1
    caa4:	e3a05000 	mov	r5, #0	; 0x0
    caa8:	e28d9d13 	add	r9, sp, #1216	; 0x4c0
    caac:	e5cd44c8 	strb	r4, [sp, #1224]
    cab0:	e5cd54ff 	strb	r5, [sp, #1279]
    cab4:	e2899008 	add	r9, r9, #8	; 0x8
    cab8:	e58db01c 	str	fp, [sp, #28]
    cabc:	eaffff3b 	b	c7b0 <_vfiprintf_r+0x7d8>
    cac0:	e3170010 	tst	r7, #16	; 0x10
    cac4:	1a000042 	bne	cbd4 <_vfiprintf_r+0xbfc>
    cac8:	e3170040 	tst	r7, #64	; 0x40
    cacc:	0a000040 	beq	cbd4 <_vfiprintf_r+0xbfc>
    cad0:	e59d1028 	ldr	r1, [sp, #40]
    cad4:	e59d2010 	ldr	r2, [sp, #16]
    cad8:	e5913000 	ldr	r3, [r1]
    cadc:	e281a004 	add	sl, r1, #4	; 0x4
    cae0:	e1c320b0 	strh	r2, [r3]
    cae4:	eafffd5c 	b	c05c <_vfiprintf_r+0x84>
    cae8:	e59d2028 	ldr	r2, [sp, #40]
    caec:	e3a03030 	mov	r3, #48	; 0x30
    caf0:	e592c000 	ldr	ip, [r2]
    caf4:	e5cd34fd 	strb	r3, [sp, #1277]
    caf8:	e59d3028 	ldr	r3, [sp, #40]
    cafc:	e59f1454 	ldr	r1, [pc, #1108]	; cf58 <_vfiprintf_r+0xf80>
    cb00:	e2833004 	add	r3, r3, #4	; 0x4
    cb04:	e3a02078 	mov	r2, #120	; 0x78
    cb08:	e58d3024 	str	r3, [sp, #36]
    cb0c:	e5cd24fe 	strb	r2, [sp, #1278]
    cb10:	e3877002 	orr	r7, r7, #2	; 0x2
    cb14:	e3a03002 	mov	r3, #2	; 0x2
    cb18:	e58d1020 	str	r1, [sp, #32]
    cb1c:	eafffe17 	b	c380 <_vfiprintf_r+0x3a8>
    cb20:	e59d1028 	ldr	r1, [sp, #40]
    cb24:	e2812004 	add	r2, r1, #4	; 0x4
    cb28:	e591c000 	ldr	ip, [r1]
    cb2c:	e58d2024 	str	r2, [sp, #36]
    cb30:	e3a03000 	mov	r3, #0	; 0x0
    cb34:	eafffe11 	b	c380 <_vfiprintf_r+0x3a8>
    cb38:	e59d1028 	ldr	r1, [sp, #40]
    cb3c:	e2812004 	add	r2, r1, #4	; 0x4
    cb40:	e591c000 	ldr	ip, [r1]
    cb44:	e58d2024 	str	r2, [sp, #36]
    cb48:	e3a03001 	mov	r3, #1	; 0x1
    cb4c:	eafffe0b 	b	c380 <_vfiprintf_r+0x3a8>
    cb50:	e59d1028 	ldr	r1, [sp, #40]
    cb54:	e2812004 	add	r2, r1, #4	; 0x4
    cb58:	e591c000 	ldr	ip, [r1]
    cb5c:	e58d2024 	str	r2, [sp, #36]
    cb60:	eafffde2 	b	c2f0 <_vfiprintf_r+0x318>
    cb64:	e5dd34ff 	ldrb	r3, [sp, #1279]
    cb68:	e3530000 	cmp	r3, #0	; 0x0
    cb6c:	159d3028 	ldrne	r3, [sp, #40]
    cb70:	1a000010 	bne	cbb8 <_vfiprintf_r+0xbe0>
    cb74:	e59d3028 	ldr	r3, [sp, #40]
    cb78:	e5cd94ff 	strb	r9, [sp, #1279]
    cb7c:	e1a01008 	mov	r1, r8
    cb80:	e58d3028 	str	r3, [sp, #40]
    cb84:	eafffd5b 	b	c0f8 <_vfiprintf_r+0x120>
    cb88:	e59d3028 	ldr	r3, [sp, #40]
    cb8c:	e3877001 	orr	r7, r7, #1	; 0x1
    cb90:	e1a01008 	mov	r1, r8
    cb94:	e58d3028 	str	r3, [sp, #40]
    cb98:	eafffd56 	b	c0f8 <_vfiprintf_r+0x120>
    cb9c:	e59dc028 	ldr	ip, [sp, #40]
    cba0:	e59cc000 	ldr	ip, [ip]
    cba4:	e59d1028 	ldr	r1, [sp, #40]
    cba8:	e35c0000 	cmp	ip, #0	; 0x0
    cbac:	e58dc014 	str	ip, [sp, #20]
    cbb0:	e2813004 	add	r3, r1, #4	; 0x4
    cbb4:	ba000002 	blt	cbc4 <_vfiprintf_r+0xbec>
    cbb8:	e1a01008 	mov	r1, r8
    cbbc:	e58d3028 	str	r3, [sp, #40]
    cbc0:	eafffd4c 	b	c0f8 <_vfiprintf_r+0x120>
    cbc4:	e59d2014 	ldr	r2, [sp, #20]
    cbc8:	e2622000 	rsb	r2, r2, #0	; 0x0
    cbcc:	e58d2014 	str	r2, [sp, #20]
    cbd0:	eafffe90 	b	c618 <_vfiprintf_r+0x640>
    cbd4:	e59d5028 	ldr	r5, [sp, #40]
    cbd8:	e59dc010 	ldr	ip, [sp, #16]
    cbdc:	e5953000 	ldr	r3, [r5]
    cbe0:	e285a004 	add	sl, r5, #4	; 0x4
    cbe4:	e583c000 	str	ip, [r3]
    cbe8:	eafffd1b 	b	c05c <_vfiprintf_r+0x84>
    cbec:	e59d0004 	ldr	r0, [sp, #4]
    cbf0:	e59d1000 	ldr	r1, [sp]
    cbf4:	e28d2e4f 	add	r2, sp, #1264	; 0x4f0
    cbf8:	ebfffcea 	bl	bfa8 <__sprint_r>
    cbfc:	e3500000 	cmp	r0, #0	; 0x0
    cc00:	1afffe43 	bne	c514 <_vfiprintf_r+0x53c>
    cc04:	e59d04f8 	ldr	r0, [sp, #1272]
    cc08:	e59d14f4 	ldr	r1, [sp, #1268]
    cc0c:	e28d6d12 	add	r6, sp, #1152	; 0x480
    cc10:	eaffff00 	b	c818 <_vfiprintf_r+0x840>
    cc14:	e59d0004 	ldr	r0, [sp, #4]
    cc18:	e59d1000 	ldr	r1, [sp]
    cc1c:	e28d2e4f 	add	r2, sp, #1264	; 0x4f0
    cc20:	ebfffce0 	bl	bfa8 <__sprint_r>
    cc24:	e3500000 	cmp	r0, #0	; 0x0
    cc28:	1afffe39 	bne	c514 <_vfiprintf_r+0x53c>
    cc2c:	e59d04f8 	ldr	r0, [sp, #1272]
    cc30:	e59d14f4 	ldr	r1, [sp, #1268]
    cc34:	e28d6d12 	add	r6, sp, #1152	; 0x480
    cc38:	eaffff05 	b	c854 <_vfiprintf_r+0x87c>
    cc3c:	e59d0004 	ldr	r0, [sp, #4]
    cc40:	e59d1000 	ldr	r1, [sp]
    cc44:	e28d2e4f 	add	r2, sp, #1264	; 0x4f0
    cc48:	ebfffcd6 	bl	bfa8 <__sprint_r>
    cc4c:	e3500000 	cmp	r0, #0	; 0x0
    cc50:	1afffe2f 	bne	c514 <_vfiprintf_r+0x53c>
    cc54:	e28d6d12 	add	r6, sp, #1152	; 0x480
    cc58:	e59d04f8 	ldr	r0, [sp, #1272]
    cc5c:	e59d14f4 	ldr	r1, [sp, #1268]
    cc60:	e2866008 	add	r6, r6, #8	; 0x8
    cc64:	eaffff2b 	b	c918 <_vfiprintf_r+0x940>
    cc68:	e20c3007 	and	r3, ip, #7	; 0x7
    cc6c:	e2833030 	add	r3, r3, #48	; 0x30
    cc70:	e1b0c1ac 	lsrs	ip, ip, #3
    cc74:	e5693001 	strb	r3, [r9, #-1]!
    cc78:	1afffffa 	bne	cc68 <_vfiprintf_r+0xc90>
    cc7c:	e3170001 	tst	r7, #1	; 0x1
    cc80:	0a000002 	beq	cc90 <_vfiprintf_r+0xcb8>
    cc84:	e3530030 	cmp	r3, #48	; 0x30
    cc88:	13a03030 	movne	r3, #48	; 0x30
    cc8c:	15693001 	strbne	r3, [r9, #-1]!
    cc90:	e069b000 	rsb	fp, r9, r0
    cc94:	eafffdcd 	b	c3d0 <_vfiprintf_r+0x3f8>
    cc98:	e59d2014 	ldr	r2, [sp, #20]
    cc9c:	e59d301c 	ldr	r3, [sp, #28]
    cca0:	e0634002 	rsb	r4, r3, r2
    cca4:	e3540000 	cmp	r4, #0	; 0x0
    cca8:	dafffeed 	ble	c864 <_vfiprintf_r+0x88c>
    ccac:	e3540010 	cmp	r4, #16	; 0x10
    ccb0:	d59f52a4 	ldrle	r5, [pc, #676]	; cf5c <_vfiprintf_r+0xf84>
    ccb4:	da00001b 	ble	cd28 <_vfiprintf_r+0xd50>
    ccb8:	e59f529c 	ldr	r5, [pc, #668]	; cf5c <_vfiprintf_r+0xf84>
    ccbc:	e28dae4f 	add	sl, sp, #1264	; 0x4f0
    ccc0:	ea000002 	b	ccd0 <_vfiprintf_r+0xcf8>
    ccc4:	e2444010 	sub	r4, r4, #16	; 0x10
    ccc8:	e3540010 	cmp	r4, #16	; 0x10
    cccc:	da000015 	ble	cd28 <_vfiprintf_r+0xd50>
    ccd0:	e2811001 	add	r1, r1, #1	; 0x1
    ccd4:	e2800010 	add	r0, r0, #16	; 0x10
    ccd8:	e3510007 	cmp	r1, #7	; 0x7
    ccdc:	e3a0c010 	mov	ip, #16	; 0x10
    cce0:	e8861020 	stm	r6, {r5, ip}
    cce4:	e58d04f8 	str	r0, [sp, #1272]
    cce8:	e58d14f4 	str	r1, [sp, #1268]
    ccec:	d2866008 	addle	r6, r6, #8	; 0x8
    ccf0:	dafffff3 	ble	ccc4 <_vfiprintf_r+0xcec>
    ccf4:	e59d0004 	ldr	r0, [sp, #4]
    ccf8:	e59d1000 	ldr	r1, [sp]
    ccfc:	e1a0200a 	mov	r2, sl
    cd00:	ebfffca8 	bl	bfa8 <__sprint_r>
    cd04:	e28d6d12 	add	r6, sp, #1152	; 0x480
    cd08:	e3500000 	cmp	r0, #0	; 0x0
    cd0c:	e2866008 	add	r6, r6, #8	; 0x8
    cd10:	1afffdff 	bne	c514 <_vfiprintf_r+0x53c>
    cd14:	e2444010 	sub	r4, r4, #16	; 0x10
    cd18:	e3540010 	cmp	r4, #16	; 0x10
    cd1c:	e59d04f8 	ldr	r0, [sp, #1272]
    cd20:	e59d14f4 	ldr	r1, [sp, #1268]
    cd24:	caffffe9 	bgt	ccd0 <_vfiprintf_r+0xcf8>
    cd28:	e2811001 	add	r1, r1, #1	; 0x1
    cd2c:	e0800004 	add	r0, r0, r4
    cd30:	e3510007 	cmp	r1, #7	; 0x7
    cd34:	e5865000 	str	r5, [r6]
    cd38:	e5864004 	str	r4, [r6, #4]
    cd3c:	e58d04f8 	str	r0, [sp, #1272]
    cd40:	e58d14f4 	str	r1, [sp, #1268]
    cd44:	ca00001d 	bgt	cdc0 <_vfiprintf_r+0xde8>
    cd48:	e2866008 	add	r6, r6, #8	; 0x8
    cd4c:	eafffec4 	b	c864 <_vfiprintf_r+0x88c>
    cd50:	e59d0004 	ldr	r0, [sp, #4]
    cd54:	e59d1000 	ldr	r1, [sp]
    cd58:	e28d2e4f 	add	r2, sp, #1264	; 0x4f0
    cd5c:	ebfffc91 	bl	bfa8 <__sprint_r>
    cd60:	e3500000 	cmp	r0, #0	; 0x0
    cd64:	1afffdea 	bne	c514 <_vfiprintf_r+0x53c>
    cd68:	e28d6d12 	add	r6, sp, #1152	; 0x480
    cd6c:	e59d04f8 	ldr	r0, [sp, #1272]
    cd70:	e59d14f4 	ldr	r1, [sp, #1268]
    cd74:	e2866008 	add	r6, r6, #8	; 0x8
    cd78:	eafffe98 	b	c7e0 <_vfiprintf_r+0x808>
    cd7c:	e59d0004 	ldr	r0, [sp, #4]
    cd80:	e59d1000 	ldr	r1, [sp]
    cd84:	e28d2e4f 	add	r2, sp, #1264	; 0x4f0
    cd88:	ebfffc86 	bl	bfa8 <__sprint_r>
    cd8c:	e3500000 	cmp	r0, #0	; 0x0
    cd90:	1afffddf 	bne	c514 <_vfiprintf_r+0x53c>
    cd94:	e28dcd12 	add	ip, sp, #1152	; 0x480
    cd98:	e59d04f8 	ldr	r0, [sp, #1272]
    cd9c:	e28cc008 	add	ip, ip, #8	; 0x8
    cda0:	eafffee4 	b	c938 <_vfiprintf_r+0x960>
    cda4:	e59d0004 	ldr	r0, [sp, #4]
    cda8:	e59d1000 	ldr	r1, [sp]
    cdac:	e28d2e4f 	add	r2, sp, #1264	; 0x4f0
    cdb0:	ebfffc7c 	bl	bfa8 <__sprint_r>
    cdb4:	e3500000 	cmp	r0, #0	; 0x0
    cdb8:	0affff1d 	beq	ca34 <_vfiprintf_r+0xa5c>
    cdbc:	eafffdd4 	b	c514 <_vfiprintf_r+0x53c>
    cdc0:	e59d0004 	ldr	r0, [sp, #4]
    cdc4:	e59d1000 	ldr	r1, [sp]
    cdc8:	e28d2e4f 	add	r2, sp, #1264	; 0x4f0
    cdcc:	ebfffc75 	bl	bfa8 <__sprint_r>
    cdd0:	e3500000 	cmp	r0, #0	; 0x0
    cdd4:	1afffdce 	bne	c514 <_vfiprintf_r+0x53c>
    cdd8:	e28d6d12 	add	r6, sp, #1152	; 0x480
    cddc:	e59d04f8 	ldr	r0, [sp, #1272]
    cde0:	e59d14f4 	ldr	r1, [sp, #1268]
    cde4:	e2866008 	add	r6, r6, #8	; 0x8
    cde8:	eafffe9d 	b	c864 <_vfiprintf_r+0x88c>
    cdec:	e35c0009 	cmp	ip, #9	; 0x9
    cdf0:	91a04000 	movls	r4, r0
    cdf4:	9a00000c 	bls	ce2c <_vfiprintf_r+0xe54>
    cdf8:	e59fa164 	ldr	sl, [pc, #356]	; cf64 <_vfiprintf_r+0xf8c>
    cdfc:	e1a04000 	mov	r4, r0
    ce00:	e0832c9a 	umull	r2, r3, sl, ip
    ce04:	e1a031a3 	lsr	r3, r3, #3
    ce08:	e1a02083 	lsl	r2, r3, #1
    ce0c:	e1a01183 	lsl	r1, r3, #3
    ce10:	e0822001 	add	r2, r2, r1
    ce14:	e062200c 	rsb	r2, r2, ip
    ce18:	e2822030 	add	r2, r2, #48	; 0x30
    ce1c:	e3530009 	cmp	r3, #9	; 0x9
    ce20:	e1a0c003 	mov	ip, r3
    ce24:	e5642001 	strb	r2, [r4, #-1]!
    ce28:	8afffff4 	bhi	ce00 <_vfiprintf_r+0xe28>
    ce2c:	e28c3030 	add	r3, ip, #48	; 0x30
    ce30:	e2449001 	sub	r9, r4, #1	; 0x1
    ce34:	e5443001 	strb	r3, [r4, #-1]
    ce38:	e069b000 	rsb	fp, r9, r0
    ce3c:	eafffd63 	b	c3d0 <_vfiprintf_r+0x3f8>
    ce40:	e1a09000 	mov	r9, r0
    ce44:	e59d1020 	ldr	r1, [sp, #32]
    ce48:	e20c300f 	and	r3, ip, #15	; 0xf
    ce4c:	e7d12003 	ldrb	r2, [r1, r3]
    ce50:	e1b0c22c 	lsrs	ip, ip, #4
    ce54:	e5692001 	strb	r2, [r9, #-1]!
    ce58:	1afffff9 	bne	ce44 <_vfiprintf_r+0xe6c>
    ce5c:	e069b000 	rsb	fp, r9, r0
    ce60:	eafffd5a 	b	c3d0 <_vfiprintf_r+0x3f8>
    ce64:	e59d0004 	ldr	r0, [sp, #4]
    ce68:	e59d1000 	ldr	r1, [sp]
    ce6c:	eb000049 	bl	cf98 <__swsetup_r>
    ce70:	e3500000 	cmp	r0, #0	; 0x0
    ce74:	1afffdaa 	bne	c524 <_vfiprintf_r+0x54c>
    ce78:	e59d1000 	ldr	r1, [sp]
    ce7c:	e1d1c0bc 	ldrh	ip, [r1, #12]
    ce80:	e1a0380c 	lsl	r3, ip, #16
    ce84:	e1a02823 	lsr	r2, r3, #16
    ce88:	eafffc65 	b	c024 <_vfiprintf_r+0x4c>
    ce8c:	e59d2028 	ldr	r2, [sp, #40]
    ce90:	e2821004 	add	r1, r2, #4	; 0x4
    ce94:	e592c000 	ldr	ip, [r2]
    ce98:	e58d1024 	str	r1, [sp, #36]
    ce9c:	eafffd37 	b	c380 <_vfiprintf_r+0x3a8>
    cea0:	e59d2028 	ldr	r2, [sp, #40]
    cea4:	e2823004 	add	r3, r2, #4	; 0x4
    cea8:	e58d3024 	str	r3, [sp, #36]
    ceac:	e592c000 	ldr	ip, [r2]
    ceb0:	e3a03001 	mov	r3, #1	; 0x1
    ceb4:	eafffd31 	b	c380 <_vfiprintf_r+0x3a8>
    ceb8:	e59d2028 	ldr	r2, [sp, #40]
    cebc:	e2823004 	add	r3, r2, #4	; 0x4
    cec0:	e592c000 	ldr	ip, [r2]
    cec4:	e58d3024 	str	r3, [sp, #36]
    cec8:	eafffd08 	b	c2f0 <_vfiprintf_r+0x318>
    cecc:	e59d2028 	ldr	r2, [sp, #40]
    ced0:	e2823004 	add	r3, r2, #4	; 0x4
    ced4:	e592c000 	ldr	ip, [r2]
    ced8:	e58d3024 	str	r3, [sp, #36]
    cedc:	eafffe04 	b	c6f4 <_vfiprintf_r+0x71c>
    cee0:	e3a0c000 	mov	ip, #0	; 0x0
    cee4:	e1a00009 	mov	r0, r9
    cee8:	e58dc018 	str	ip, [sp, #24]
    ceec:	ebfffb11 	bl	bb38 <strlen>
    cef0:	e1a0b000 	mov	fp, r0
    cef4:	eafffd38 	b	c3dc <_vfiprintf_r+0x404>
    cef8:	e59d04f8 	ldr	r0, [sp, #1272]
    cefc:	e59d14f4 	ldr	r1, [sp, #1268]
    cf00:	e59f504c 	ldr	r5, [pc, #76]	; cf54 <_vfiprintf_r+0xf7c>
    cf04:	eafffd6a 	b	c4b4 <_vfiprintf_r+0x4dc>
    cf08:	e3550006 	cmp	r5, #6	; 0x6
    cf0c:	83a0b006 	movhi	fp, #6	; 0x6
    cf10:	859f9050 	ldrhi	r9, [pc, #80]	; cf68 <_vfiprintf_r+0xf90>
    cf14:	858db01c 	strhi	fp, [sp, #28]
    cf18:	91a0b005 	movls	fp, r5
    cf1c:	91c55fc5 	bicls	r5, r5, r5, asr #31
    cf20:	959f9040 	ldrls	r9, [pc, #64]	; cf68 <_vfiprintf_r+0xf90>
    cf24:	958d501c 	strls	r5, [sp, #28]
    cf28:	eafffe20 	b	c7b0 <_vfiprintf_r+0x7d8>
    cf2c:	e59d14f4 	ldr	r1, [sp, #1268]
    cf30:	e59f501c 	ldr	r5, [pc, #28]	; cf54 <_vfiprintf_r+0xf7c>
    cf34:	eafffea6 	b	c9d4 <_vfiprintf_r+0x9fc>
    cf38:	e59d3028 	ldr	r3, [sp, #40]
    cf3c:	e5935000 	ldr	r5, [r3]
    cf40:	e2833004 	add	r3, r3, #4	; 0x4
    cf44:	e1855fc5 	orr	r5, r5, r5, asr #31
    cf48:	e58d3028 	str	r3, [sp, #40]
    cf4c:	eafffc69 	b	c0f8 <_vfiprintf_r+0x120>
    cf50:	00010b74 	.word	0x00010b74
    cf54:	0000ff4d 	.word	0x0000ff4d
    cf58:	00010b58 	.word	0x00010b58
    cf5c:	0000ff3d 	.word	0x0000ff3d
    cf60:	00010b44 	.word	0x00010b44
    cf64:	cccccccd 	.word	0xcccccccd
    cf68:	00010b6c 	.word	0x00010b6c

0000cf6c <vfiprintf>:
    cf6c:	e52d4004 	push	{r4}		; (str r4, [sp, #-4]!)
    cf70:	e1a03002 	mov	r3, r2
    cf74:	e59f2018 	ldr	r2, [pc, #24]	; cf94 <vfiprintf+0x28>
    cf78:	e1a0c000 	mov	ip, r0
    cf7c:	e1a04001 	mov	r4, r1
    cf80:	e5920000 	ldr	r0, [r2]
    cf84:	e1a0100c 	mov	r1, ip
    cf88:	e1a02004 	mov	r2, r4
    cf8c:	e8bd0010 	pop	{r4}
    cf90:	eafffc10 	b	bfd8 <_vfiprintf_r>
    cf94:	40000514 	.word	0x40000514

0000cf98 <__swsetup_r>:
    cf98:	e59f3138 	ldr	r3, [pc, #312]	; d0d8 <__swsetup_r+0x140>
    cf9c:	e5932000 	ldr	r2, [r3]
    cfa0:	e3520000 	cmp	r2, #0	; 0x0
    cfa4:	e92d4030 	push	{r4, r5, lr}
    cfa8:	e1a05000 	mov	r5, r0
    cfac:	e1a04001 	mov	r4, r1
    cfb0:	0a000002 	beq	cfc0 <__swsetup_r+0x28>
    cfb4:	e5923038 	ldr	r3, [r2, #56]
    cfb8:	e3530000 	cmp	r3, #0	; 0x0
    cfbc:	0a00001d 	beq	d038 <__swsetup_r+0xa0>
    cfc0:	e1d400bc 	ldrh	r0, [r4, #12]
    cfc4:	e1a03800 	lsl	r3, r0, #16
    cfc8:	e1a02823 	lsr	r2, r3, #16
    cfcc:	e3120008 	tst	r2, #8	; 0x8
    cfd0:	e1a03000 	mov	r3, r0
    cfd4:	15941010 	ldrne	r1, [r4, #16]
    cfd8:	0a000023 	beq	d06c <__swsetup_r+0xd4>
    cfdc:	e3510000 	cmp	r1, #0	; 0x0
    cfe0:	0a000017 	beq	d044 <__swsetup_r+0xac>
    cfe4:	e2123001 	ands	r3, r2, #1	; 0x1
    cfe8:	1a000006 	bne	d008 <__swsetup_r+0x70>
    cfec:	e3120002 	tst	r2, #2	; 0x2
    cff0:	05943014 	ldreq	r3, [r4, #20]
    cff4:	e3510000 	cmp	r1, #0	; 0x0
    cff8:	e5843008 	str	r3, [r4, #8]
    cffc:	0a000008 	beq	d024 <__swsetup_r+0x8c>
    d000:	e3a00000 	mov	r0, #0	; 0x0
    d004:	e8bd8030 	pop	{r4, r5, pc}
    d008:	e5943014 	ldr	r3, [r4, #20]
    d00c:	e3a02000 	mov	r2, #0	; 0x0
    d010:	e2633000 	rsb	r3, r3, #0	; 0x0
    d014:	e3510000 	cmp	r1, #0	; 0x0
    d018:	e5842008 	str	r2, [r4, #8]
    d01c:	e5843018 	str	r3, [r4, #24]
    d020:	1afffff6 	bne	d000 <__swsetup_r+0x68>
    d024:	e1d430bc 	ldrh	r3, [r4, #12]
    d028:	e3130080 	tst	r3, #128	; 0x80
    d02c:	0afffff3 	beq	d000 <__swsetup_r+0x68>
    d030:	e3e00000 	mvn	r0, #0	; 0x0
    d034:	e8bd8030 	pop	{r4, r5, pc}
    d038:	e1a00002 	mov	r0, r2
    d03c:	eb00009d 	bl	d2b8 <__sinit>
    d040:	eaffffde 	b	cfc0 <__swsetup_r+0x28>
    d044:	e3120c02 	tst	r2, #512	; 0x200
    d048:	0a000001 	beq	d054 <__swsetup_r+0xbc>
    d04c:	e3120080 	tst	r2, #128	; 0x80
    d050:	0affffe3 	beq	cfe4 <__swsetup_r+0x4c>
    d054:	e1a01004 	mov	r1, r4
    d058:	e1a00005 	mov	r0, r5
    d05c:	eb00037a 	bl	de4c <__smakebuf_r>
    d060:	e1d420bc 	ldrh	r2, [r4, #12]
    d064:	e5941010 	ldr	r1, [r4, #16]
    d068:	eaffffdd 	b	cfe4 <__swsetup_r+0x4c>
    d06c:	e3120010 	tst	r2, #16	; 0x10
    d070:	0affffee 	beq	d030 <__swsetup_r+0x98>
    d074:	e3120004 	tst	r2, #4	; 0x4
    d078:	05941010 	ldreq	r1, [r4, #16]
    d07c:	0a000010 	beq	d0c4 <__swsetup_r+0x12c>
    d080:	e5941030 	ldr	r1, [r4, #48]
    d084:	e3510000 	cmp	r1, #0	; 0x0
    d088:	0a000007 	beq	d0ac <__swsetup_r+0x114>
    d08c:	e2843040 	add	r3, r4, #64	; 0x40
    d090:	e1510003 	cmp	r1, r3
    d094:	0a000002 	beq	d0a4 <__swsetup_r+0x10c>
    d098:	e1a00005 	mov	r0, r5
    d09c:	eb00016e 	bl	d65c <_free_r>
    d0a0:	e1d400bc 	ldrh	r0, [r4, #12]
    d0a4:	e3a03000 	mov	r3, #0	; 0x0
    d0a8:	e5843030 	str	r3, [r4, #48]
    d0ac:	e3c03024 	bic	r3, r0, #36	; 0x24
    d0b0:	e1c430bc 	strh	r3, [r4, #12]
    d0b4:	e5941010 	ldr	r1, [r4, #16]
    d0b8:	e3a03000 	mov	r3, #0	; 0x0
    d0bc:	e884000a 	stm	r4, {r1, r3}
    d0c0:	e1d430bc 	ldrh	r3, [r4, #12]
    d0c4:	e3833008 	orr	r3, r3, #8	; 0x8
    d0c8:	e1a02803 	lsl	r2, r3, #16
    d0cc:	e1c430bc 	strh	r3, [r4, #12]
    d0d0:	e1a02822 	lsr	r2, r2, #16
    d0d4:	eaffffc0 	b	cfdc <__swsetup_r+0x44>
    d0d8:	40000514 	.word	0x40000514

0000d0dc <_fflush_r>:
    d0dc:	e92d40f0 	push	{r4, r5, r6, r7, lr}
    d0e0:	e2507000 	subs	r7, r0, #0	; 0x0
    d0e4:	e1a06001 	mov	r6, r1
    d0e8:	0a000002 	beq	d0f8 <_fflush_r+0x1c>
    d0ec:	e5973038 	ldr	r3, [r7, #56]
    d0f0:	e3530000 	cmp	r3, #0	; 0x0
    d0f4:	0a000045 	beq	d210 <_fflush_r+0x134>
    d0f8:	e1d620bc 	ldrh	r2, [r6, #12]
    d0fc:	e1a03802 	lsl	r3, r2, #16
    d100:	e1a01843 	asr	r1, r3, #16
    d104:	e3110008 	tst	r1, #8	; 0x8
    d108:	1a000022 	bne	d198 <_fflush_r+0xbc>
    d10c:	e5963004 	ldr	r3, [r6, #4]
    d110:	e3822b02 	orr	r2, r2, #2048	; 0x800
    d114:	e3530000 	cmp	r3, #0	; 0x0
    d118:	e1c620bc 	strh	r2, [r6, #12]
    d11c:	da000044 	ble	d234 <_fflush_r+0x158>
    d120:	e596c028 	ldr	ip, [r6, #40]
    d124:	e35c0000 	cmp	ip, #0	; 0x0
    d128:	0a000018 	beq	d190 <_fflush_r+0xb4>
    d12c:	e2122a01 	ands	r2, r2, #4096	; 0x1000
    d130:	15964050 	ldrne	r4, [r6, #80]
    d134:	0a000042 	beq	d244 <_fflush_r+0x168>
    d138:	e1d630bc 	ldrh	r3, [r6, #12]
    d13c:	e3130004 	tst	r3, #4	; 0x4
    d140:	1a000034 	bne	d218 <_fflush_r+0x13c>
    d144:	e1a00007 	mov	r0, r7
    d148:	e596101c 	ldr	r1, [r6, #28]
    d14c:	e1a02004 	mov	r2, r4
    d150:	e3a03000 	mov	r3, #0	; 0x0
    d154:	e1a0e00f 	mov	lr, pc
    d158:	e12fff1c 	bx	ip
    d15c:	e1500004 	cmp	r0, r4
    d160:	1a000025 	bne	d1fc <_fflush_r+0x120>
    d164:	e1d630bc 	ldrh	r3, [r6, #12]
    d168:	e3c33b02 	bic	r3, r3, #2048	; 0x800
    d16c:	e1c630bc 	strh	r3, [r6, #12]
    d170:	e1d620bc 	ldrh	r2, [r6, #12]
    d174:	e5963010 	ldr	r3, [r6, #16]
    d178:	e3120a01 	tst	r2, #4096	; 0x1000
    d17c:	e3a00000 	mov	r0, #0	; 0x0
    d180:	e5863000 	str	r3, [r6]
    d184:	e5860004 	str	r0, [r6, #4]
    d188:	15864050 	strne	r4, [r6, #80]
    d18c:	18bd80f0 	popne	{r4, r5, r6, r7, pc}
    d190:	e3a00000 	mov	r0, #0	; 0x0
    d194:	e8bd80f0 	pop	{r4, r5, r6, r7, pc}
    d198:	e5965010 	ldr	r5, [r6, #16]
    d19c:	e3550000 	cmp	r5, #0	; 0x0
    d1a0:	0afffffa 	beq	d190 <_fflush_r+0xb4>
    d1a4:	e5963000 	ldr	r3, [r6]
    d1a8:	e3110003 	tst	r1, #3	; 0x3
    d1ac:	e0654003 	rsb	r4, r5, r3
    d1b0:	05963014 	ldreq	r3, [r6, #20]
    d1b4:	13a03000 	movne	r3, #0	; 0x0
    d1b8:	e3540000 	cmp	r4, #0	; 0x0
    d1bc:	e5865000 	str	r5, [r6]
    d1c0:	e5863008 	str	r3, [r6, #8]
    d1c4:	ca000002 	bgt	d1d4 <_fflush_r+0xf8>
    d1c8:	eafffff0 	b	d190 <_fflush_r+0xb4>
    d1cc:	e3540000 	cmp	r4, #0	; 0x0
    d1d0:	daffffee 	ble	d190 <_fflush_r+0xb4>
    d1d4:	e1a02005 	mov	r2, r5
    d1d8:	e1a03004 	mov	r3, r4
    d1dc:	e1a00007 	mov	r0, r7
    d1e0:	e596101c 	ldr	r1, [r6, #28]
    d1e4:	e1a0e00f 	mov	lr, pc
    d1e8:	e596f024 	ldr	pc, [r6, #36]
    d1ec:	e3500000 	cmp	r0, #0	; 0x0
    d1f0:	e0604004 	rsb	r4, r0, r4
    d1f4:	e0855000 	add	r5, r5, r0
    d1f8:	cafffff3 	bgt	d1cc <_fflush_r+0xf0>
    d1fc:	e1d630bc 	ldrh	r3, [r6, #12]
    d200:	e3833040 	orr	r3, r3, #64	; 0x40
    d204:	e1c630bc 	strh	r3, [r6, #12]
    d208:	e3e00000 	mvn	r0, #0	; 0x0
    d20c:	e8bd80f0 	pop	{r4, r5, r6, r7, pc}
    d210:	eb000028 	bl	d2b8 <__sinit>
    d214:	eaffffb7 	b	d0f8 <_fflush_r+0x1c>
    d218:	e5963030 	ldr	r3, [r6, #48]
    d21c:	e5962004 	ldr	r2, [r6, #4]
    d220:	e3530000 	cmp	r3, #0	; 0x0
    d224:	1596303c 	ldrne	r3, [r6, #60]
    d228:	e0624004 	rsb	r4, r2, r4
    d22c:	10634004 	rsbne	r4, r3, r4
    d230:	eaffffc3 	b	d144 <_fflush_r+0x68>
    d234:	e596303c 	ldr	r3, [r6, #60]
    d238:	e3530000 	cmp	r3, #0	; 0x0
    d23c:	caffffb7 	bgt	d120 <_fflush_r+0x44>
    d240:	eaffffd2 	b	d190 <_fflush_r+0xb4>
    d244:	e1a00007 	mov	r0, r7
    d248:	e596101c 	ldr	r1, [r6, #28]
    d24c:	e3a03001 	mov	r3, #1	; 0x1
    d250:	e1a0e00f 	mov	lr, pc
    d254:	e12fff1c 	bx	ip
    d258:	e3700001 	cmn	r0, #1	; 0x1
    d25c:	e1a04000 	mov	r4, r0
    d260:	1596c028 	ldrne	ip, [r6, #40]
    d264:	1affffb3 	bne	d138 <_fflush_r+0x5c>
    d268:	e5973000 	ldr	r3, [r7]
    d26c:	e353001d 	cmp	r3, #29	; 0x1d
    d270:	0affffc6 	beq	d190 <_fflush_r+0xb4>
    d274:	e1d630bc 	ldrh	r3, [r6, #12]
    d278:	e3833040 	orr	r3, r3, #64	; 0x40
    d27c:	e1c630bc 	strh	r3, [r6, #12]
    d280:	e8bd80f0 	pop	{r4, r5, r6, r7, pc}

0000d284 <fflush>:
    d284:	e3500000 	cmp	r0, #0	; 0x0
    d288:	0a000003 	beq	d29c <fflush+0x18>
    d28c:	e59f3018 	ldr	r3, [pc, #24]	; d2ac <fflush+0x28>
    d290:	e1a01000 	mov	r1, r0
    d294:	e5930000 	ldr	r0, [r3]
    d298:	eaffff8f 	b	d0dc <_fflush_r>
    d29c:	e59f300c 	ldr	r3, [pc, #12]	; d2b0 <fflush+0x2c>
    d2a0:	e59f100c 	ldr	r1, [pc, #12]	; d2b4 <fflush+0x30>
    d2a4:	e5930000 	ldr	r0, [r3]
    d2a8:	ea0002a4 	b	dd40 <_fwalk_reent>
    d2ac:	40000514 	.word	0x40000514
    d2b0:	00010060 	.word	0x00010060
    d2b4:	0000d0dc 	.word	0x0000d0dc

0000d2b8 <__sinit>:
    d2b8:	e92d07f0 	push	{r4, r5, r6, r7, r8, r9, sl}
    d2bc:	e590a038 	ldr	sl, [r0, #56]
    d2c0:	e35a0000 	cmp	sl, #0	; 0x0
    d2c4:	e1a09000 	mov	r9, r0
    d2c8:	1a00003a 	bne	d3b8 <__sinit+0x100>
    d2cc:	e3a03003 	mov	r3, #3	; 0x3
    d2d0:	e58932e4 	str	r3, [r9, #740]
    d2d4:	e59f30e4 	ldr	r3, [pc, #228]	; d3c0 <__sinit+0x108>
    d2d8:	e5992004 	ldr	r2, [r9, #4]
    d2dc:	e5991008 	ldr	r1, [r9, #8]
    d2e0:	e589303c 	str	r3, [r9, #60]
    d2e4:	e3a03004 	mov	r3, #4	; 0x4
    d2e8:	e590000c 	ldr	r0, [r0, #12]
    d2ec:	e59f60d0 	ldr	r6, [pc, #208]	; d3c4 <__sinit+0x10c>
    d2f0:	e59f70d0 	ldr	r7, [pc, #208]	; d3c8 <__sinit+0x110>
    d2f4:	e59f80d0 	ldr	r8, [pc, #208]	; d3cc <__sinit+0x114>
    d2f8:	e59f40d0 	ldr	r4, [pc, #208]	; d3d0 <__sinit+0x118>
    d2fc:	e1c230bc 	strh	r3, [r2, #12]
    d300:	e3a03009 	mov	r3, #9	; 0x9
    d304:	e3a05001 	mov	r5, #1	; 0x1
    d308:	e1c130bc 	strh	r3, [r1, #12]
    d30c:	e289cfbb 	add	ip, r9, #748	; 0x2ec
    d310:	e3a03012 	mov	r3, #18	; 0x12
    d314:	e5895038 	str	r5, [r9, #56]
    d318:	e582402c 	str	r4, [r2, #44]
    d31c:	e582a000 	str	sl, [r2]
    d320:	e582a004 	str	sl, [r2, #4]
    d324:	e582a008 	str	sl, [r2, #8]
    d328:	e1c2a0be 	strh	sl, [r2, #14]
    d32c:	e582a010 	str	sl, [r2, #16]
    d330:	e582a014 	str	sl, [r2, #20]
    d334:	e582a018 	str	sl, [r2, #24]
    d338:	e582201c 	str	r2, [r2, #28]
    d33c:	e5826020 	str	r6, [r2, #32]
    d340:	e5827024 	str	r7, [r2, #36]
    d344:	e589c2e8 	str	ip, [r9, #744]
    d348:	e581402c 	str	r4, [r1, #44]
    d34c:	e1c150be 	strh	r5, [r1, #14]
    d350:	e5828028 	str	r8, [r2, #40]
    d354:	e589a2e0 	str	sl, [r9, #736]
    d358:	e581a000 	str	sl, [r1]
    d35c:	e581a004 	str	sl, [r1, #4]
    d360:	e581a008 	str	sl, [r1, #8]
    d364:	e581a010 	str	sl, [r1, #16]
    d368:	e581a014 	str	sl, [r1, #20]
    d36c:	e581a018 	str	sl, [r1, #24]
    d370:	e581101c 	str	r1, [r1, #28]
    d374:	e5816020 	str	r6, [r1, #32]
    d378:	e5817024 	str	r7, [r1, #36]
    d37c:	e5818028 	str	r8, [r1, #40]
    d380:	e1c030bc 	strh	r3, [r0, #12]
    d384:	e3a03002 	mov	r3, #2	; 0x2
    d388:	e580a000 	str	sl, [r0]
    d38c:	e580402c 	str	r4, [r0, #44]
    d390:	e580a018 	str	sl, [r0, #24]
    d394:	e5806020 	str	r6, [r0, #32]
    d398:	e5807024 	str	r7, [r0, #36]
    d39c:	e5808028 	str	r8, [r0, #40]
    d3a0:	e580a004 	str	sl, [r0, #4]
    d3a4:	e580a008 	str	sl, [r0, #8]
    d3a8:	e580a010 	str	sl, [r0, #16]
    d3ac:	e580a014 	str	sl, [r0, #20]
    d3b0:	e580001c 	str	r0, [r0, #28]
    d3b4:	e1c030be 	strh	r3, [r0, #14]
    d3b8:	e8bd07f0 	pop	{r4, r5, r6, r7, r8, r9, sl}
    d3bc:	e12fff1e 	bx	lr
    d3c0:	0000d424 	.word	0x0000d424
    d3c4:	0000e7ac 	.word	0x0000e7ac
    d3c8:	0000e758 	.word	0x0000e758
    d3cc:	0000e724 	.word	0x0000e724
    d3d0:	0000e71c 	.word	0x0000e71c

0000d3d4 <__sfp_lock_acquire>:
    d3d4:	e12fff1e 	bx	lr

0000d3d8 <__sfp_lock_release>:
    d3d8:	e12fff1e 	bx	lr

0000d3dc <__sinit_lock_acquire>:
    d3dc:	e12fff1e 	bx	lr

0000d3e0 <__sinit_lock_release>:
    d3e0:	e12fff1e 	bx	lr

0000d3e4 <__fp_lock>:
    d3e4:	e3a00000 	mov	r0, #0	; 0x0
    d3e8:	e12fff1e 	bx	lr

0000d3ec <__fp_unlock>:
    d3ec:	e3a00000 	mov	r0, #0	; 0x0
    d3f0:	e12fff1e 	bx	lr

0000d3f4 <__fp_unlock_all>:
    d3f4:	e59f3008 	ldr	r3, [pc, #8]	; d404 <__fp_unlock_all+0x10>
    d3f8:	e59f1008 	ldr	r1, [pc, #8]	; d408 <__fp_unlock_all+0x14>
    d3fc:	e5930000 	ldr	r0, [r3]
    d400:	ea000270 	b	ddc8 <_fwalk>
    d404:	40000514 	.word	0x40000514
    d408:	0000d3ec 	.word	0x0000d3ec

0000d40c <__fp_lock_all>:
    d40c:	e59f3008 	ldr	r3, [pc, #8]	; d41c <__fp_lock_all+0x10>
    d410:	e59f1008 	ldr	r1, [pc, #8]	; d420 <__fp_lock_all+0x14>
    d414:	e5930000 	ldr	r0, [r3]
    d418:	ea00026a 	b	ddc8 <_fwalk>
    d41c:	40000514 	.word	0x40000514
    d420:	0000d3e4 	.word	0x0000d3e4

0000d424 <_cleanup_r>:
    d424:	e59f1000 	ldr	r1, [pc, #0]	; d42c <_cleanup_r+0x8>
    d428:	ea000266 	b	ddc8 <_fwalk>
    d42c:	0000e8e0 	.word	0x0000e8e0

0000d430 <_cleanup>:
    d430:	e59f3008 	ldr	r3, [pc, #8]	; d440 <_cleanup+0x10>
    d434:	e59f1008 	ldr	r1, [pc, #8]	; d444 <_cleanup+0x14>
    d438:	e5930000 	ldr	r0, [r3]
    d43c:	ea000261 	b	ddc8 <_fwalk>
    d440:	00010060 	.word	0x00010060
    d444:	0000e8e0 	.word	0x0000e8e0

0000d448 <__sfmoreglue>:
    d448:	e1a03281 	lsl	r3, r1, #5
    d44c:	e0433181 	sub	r3, r3, r1, lsl #3
    d450:	e0613003 	rsb	r3, r1, r3
    d454:	e92d4070 	push	{r4, r5, r6, lr}
    d458:	e1a06103 	lsl	r6, r3, #2
    d45c:	e1a05001 	mov	r5, r1
    d460:	e286100c 	add	r1, r6, #12	; 0xc
    d464:	ebfff682 	bl	ae74 <_malloc_r>
    d468:	e2504000 	subs	r4, r0, #0	; 0x0
    d46c:	0a000005 	beq	d488 <__sfmoreglue+0x40>
    d470:	e284000c 	add	r0, r4, #12	; 0xc
    d474:	e3a01000 	mov	r1, #0	; 0x0
    d478:	e8840022 	stm	r4, {r1, r5}
    d47c:	e5840008 	str	r0, [r4, #8]
    d480:	e1a02006 	mov	r2, r6
    d484:	ebfff8b1 	bl	b750 <memset>
    d488:	e1a00004 	mov	r0, r4
    d48c:	e8bd8070 	pop	{r4, r5, r6, pc}

0000d490 <__sfp>:
    d490:	e59f30c8 	ldr	r3, [pc, #200]	; d560 <__sfp+0xd0>
    d494:	e92d4030 	push	{r4, r5, lr}
    d498:	e5934000 	ldr	r4, [r3]
    d49c:	e5942038 	ldr	r2, [r4, #56]
    d4a0:	e3520000 	cmp	r2, #0	; 0x0
    d4a4:	e1a05000 	mov	r5, r0
    d4a8:	0a000020 	beq	d530 <__sfp+0xa0>
    d4ac:	e2844e2e 	add	r4, r4, #736	; 0x2e0
    d4b0:	e5943004 	ldr	r3, [r4, #4]
    d4b4:	e2532001 	subs	r2, r3, #1	; 0x1
    d4b8:	e5940008 	ldr	r0, [r4, #8]
    d4bc:	5a000003 	bpl	d4d0 <__sfp+0x40>
    d4c0:	ea000015 	b	d51c <__sfp+0x8c>
    d4c4:	e2522001 	subs	r2, r2, #1	; 0x1
    d4c8:	e280005c 	add	r0, r0, #92	; 0x5c
    d4cc:	4a000012 	bmi	d51c <__sfp+0x8c>
    d4d0:	e1d030fc 	ldrsh	r3, [r0, #12]
    d4d4:	e3530000 	cmp	r3, #0	; 0x0
    d4d8:	1afffff9 	bne	d4c4 <__sfp+0x34>
    d4dc:	e3a03000 	mov	r3, #0	; 0x0
    d4e0:	e5803048 	str	r3, [r0, #72]
    d4e4:	e5803000 	str	r3, [r0]
    d4e8:	e5803008 	str	r3, [r0, #8]
    d4ec:	e5803004 	str	r3, [r0, #4]
    d4f0:	e5803010 	str	r3, [r0, #16]
    d4f4:	e5803014 	str	r3, [r0, #20]
    d4f8:	e5803018 	str	r3, [r0, #24]
    d4fc:	e5803030 	str	r3, [r0, #48]
    d500:	e5803034 	str	r3, [r0, #52]
    d504:	e5803044 	str	r3, [r0, #68]
    d508:	e3e03000 	mvn	r3, #0	; 0x0
    d50c:	e1c030be 	strh	r3, [r0, #14]
    d510:	e3a03001 	mov	r3, #1	; 0x1
    d514:	e1c030bc 	strh	r3, [r0, #12]
    d518:	e8bd8030 	pop	{r4, r5, pc}
    d51c:	e5940000 	ldr	r0, [r4]
    d520:	e3500000 	cmp	r0, #0	; 0x0
    d524:	0a000004 	beq	d53c <__sfp+0xac>
    d528:	e1a04000 	mov	r4, r0
    d52c:	eaffffdf 	b	d4b0 <__sfp+0x20>
    d530:	e1a00004 	mov	r0, r4
    d534:	ebffff5f 	bl	d2b8 <__sinit>
    d538:	eaffffdb 	b	d4ac <__sfp+0x1c>
    d53c:	e1a00005 	mov	r0, r5
    d540:	e3a01004 	mov	r1, #4	; 0x4
    d544:	ebffffbf 	bl	d448 <__sfmoreglue>
    d548:	e3500000 	cmp	r0, #0	; 0x0
    d54c:	e5840000 	str	r0, [r4]
    d550:	1afffff4 	bne	d528 <__sfp+0x98>
    d554:	e3a0300c 	mov	r3, #12	; 0xc
    d558:	e5853000 	str	r3, [r5]
    d55c:	e8bd8030 	pop	{r4, r5, pc}
    d560:	00010060 	.word	0x00010060

0000d564 <_malloc_trim_r>:
    d564:	e92d40f0 	push	{r4, r5, r6, r7, lr}
    d568:	e59f70e0 	ldr	r7, [pc, #224]	; d650 <_malloc_trim_r+0xec>
    d56c:	e1a04001 	mov	r4, r1
    d570:	e1a06000 	mov	r6, r0
    d574:	ebfff8a9 	bl	b820 <__malloc_lock>
    d578:	e5973008 	ldr	r3, [r7, #8]
    d57c:	e5932004 	ldr	r2, [r3, #4]
    d580:	e3c25003 	bic	r5, r2, #3	; 0x3
    d584:	e2853efe 	add	r3, r5, #4064	; 0xfe0
    d588:	e283300f 	add	r3, r3, #15	; 0xf
    d58c:	e0643003 	rsb	r3, r4, r3
    d590:	e1a03623 	lsr	r3, r3, #12
    d594:	e2433001 	sub	r3, r3, #1	; 0x1
    d598:	e1a04603 	lsl	r4, r3, #12
    d59c:	e3540a01 	cmp	r4, #4096	; 0x1000
    d5a0:	ba000006 	blt	d5c0 <_malloc_trim_r+0x5c>
    d5a4:	e1a00006 	mov	r0, r6
    d5a8:	e3a01000 	mov	r1, #0	; 0x0
    d5ac:	ebffe7a4 	bl	7444 <_sbrk_r>
    d5b0:	e5973008 	ldr	r3, [r7, #8]
    d5b4:	e0833005 	add	r3, r3, r5
    d5b8:	e1500003 	cmp	r0, r3
    d5bc:	0a000003 	beq	d5d0 <_malloc_trim_r+0x6c>
    d5c0:	e1a00006 	mov	r0, r6
    d5c4:	ebfff896 	bl	b824 <__malloc_unlock>
    d5c8:	e3a00000 	mov	r0, #0	; 0x0
    d5cc:	e8bd80f0 	pop	{r4, r5, r6, r7, pc}
    d5d0:	e1a00006 	mov	r0, r6
    d5d4:	e2641000 	rsb	r1, r4, #0	; 0x0
    d5d8:	ebffe799 	bl	7444 <_sbrk_r>
    d5dc:	e3700001 	cmn	r0, #1	; 0x1
    d5e0:	0a00000b 	beq	d614 <_malloc_trim_r+0xb0>
    d5e4:	e59fc068 	ldr	ip, [pc, #104]	; d654 <_malloc_trim_r+0xf0>
    d5e8:	e59c2000 	ldr	r2, [ip]
    d5ec:	e5971008 	ldr	r1, [r7, #8]
    d5f0:	e0643005 	rsb	r3, r4, r5
    d5f4:	e3833001 	orr	r3, r3, #1	; 0x1
    d5f8:	e0642002 	rsb	r2, r4, r2
    d5fc:	e1a00006 	mov	r0, r6
    d600:	e5813004 	str	r3, [r1, #4]
    d604:	e58c2000 	str	r2, [ip]
    d608:	ebfff885 	bl	b824 <__malloc_unlock>
    d60c:	e3a00001 	mov	r0, #1	; 0x1
    d610:	e8bd80f0 	pop	{r4, r5, r6, r7, pc}
    d614:	e3a01000 	mov	r1, #0	; 0x0
    d618:	e1a00006 	mov	r0, r6
    d61c:	ebffe788 	bl	7444 <_sbrk_r>
    d620:	e597c008 	ldr	ip, [r7, #8]
    d624:	e06c1000 	rsb	r1, ip, r0
    d628:	e351000f 	cmp	r1, #15	; 0xf
    d62c:	daffffe3 	ble	d5c0 <_malloc_trim_r+0x5c>
    d630:	e59f3020 	ldr	r3, [pc, #32]	; d658 <_malloc_trim_r+0xf4>
    d634:	e5932000 	ldr	r2, [r3]
    d638:	e59f3014 	ldr	r3, [pc, #20]	; d654 <_malloc_trim_r+0xf0>
    d63c:	e0622000 	rsb	r2, r2, r0
    d640:	e3811001 	orr	r1, r1, #1	; 0x1
    d644:	e5832000 	str	r2, [r3]
    d648:	e58c1004 	str	r1, [ip, #4]
    d64c:	eaffffdb 	b	d5c0 <_malloc_trim_r+0x5c>
    d650:	40000100 	.word	0x40000100
    d654:	40000a4c 	.word	0x40000a4c
    d658:	4000050c 	.word	0x4000050c

0000d65c <_free_r>:
    d65c:	e92d41f0 	push	{r4, r5, r6, r7, r8, lr}
    d660:	e2514000 	subs	r4, r1, #0	; 0x0
    d664:	e1a08000 	mov	r8, r0
    d668:	08bd81f0 	popeq	{r4, r5, r6, r7, r8, pc}
    d66c:	e2445008 	sub	r5, r4, #8	; 0x8
    d670:	ebfff86a 	bl	b820 <__malloc_lock>
    d674:	e5951004 	ldr	r1, [r5, #4]
    d678:	e59f7244 	ldr	r7, [pc, #580]	; d8c4 <_free_r+0x268>
    d67c:	e3c1e001 	bic	lr, r1, #1	; 0x1
    d680:	e085000e 	add	r0, r5, lr
    d684:	e5973008 	ldr	r3, [r7, #8]
    d688:	e5902004 	ldr	r2, [r0, #4]
    d68c:	e1530000 	cmp	r3, r0
    d690:	e3c26003 	bic	r6, r2, #3	; 0x3
    d694:	0a00006d 	beq	d850 <_free_r+0x1f4>
    d698:	e2111001 	ands	r1, r1, #1	; 0x1
    d69c:	e5806004 	str	r6, [r0, #4]
    d6a0:	13a01000 	movne	r1, #0	; 0x0
    d6a4:	0a000040 	beq	d7ac <_free_r+0x150>
    d6a8:	e0803006 	add	r3, r0, r6
    d6ac:	e5932004 	ldr	r2, [r3, #4]
    d6b0:	e3120001 	tst	r2, #1	; 0x1
    d6b4:	1a000006 	bne	d6d4 <_free_r+0x78>
    d6b8:	e3510000 	cmp	r1, #0	; 0x0
    d6bc:	e08ee006 	add	lr, lr, r6
    d6c0:	15902008 	ldrne	r2, [r0, #8]
    d6c4:	0a000047 	beq	d7e8 <_free_r+0x18c>
    d6c8:	e590300c 	ldr	r3, [r0, #12]
    d6cc:	e5832008 	str	r2, [r3, #8]
    d6d0:	e582300c 	str	r3, [r2, #12]
    d6d4:	e38e3001 	orr	r3, lr, #1	; 0x1
    d6d8:	e3510000 	cmp	r1, #0	; 0x0
    d6dc:	e5853004 	str	r3, [r5, #4]
    d6e0:	e785e00e 	str	lr, [r5, lr]
    d6e4:	1a00002d 	bne	d7a0 <_free_r+0x144>
    d6e8:	e35e0c02 	cmp	lr, #512	; 0x200
    d6ec:	3a000049 	bcc	d818 <_free_r+0x1bc>
    d6f0:	e1a014ae 	lsr	r1, lr, #9
    d6f4:	e3510004 	cmp	r1, #4	; 0x4
    d6f8:	91a0332e 	lsrls	r3, lr, #6
    d6fc:	92831038 	addls	r1, r3, #56	; 0x38
    d700:	91a03181 	lslls	r3, r1, #3
    d704:	9a000015 	bls	d760 <_free_r+0x104>
    d708:	e3510014 	cmp	r1, #20	; 0x14
    d70c:	9281105b 	addls	r1, r1, #91	; 0x5b
    d710:	91a03181 	lslls	r3, r1, #3
    d714:	9a000011 	bls	d760 <_free_r+0x104>
    d718:	e3510054 	cmp	r1, #84	; 0x54
    d71c:	91a0362e 	lsrls	r3, lr, #12
    d720:	9283106e 	addls	r1, r3, #110	; 0x6e
    d724:	91a03181 	lslls	r3, r1, #3
    d728:	9a00000c 	bls	d760 <_free_r+0x104>
    d72c:	e3510f55 	cmp	r1, #340	; 0x154
    d730:	91a037ae 	lsrls	r3, lr, #15
    d734:	92831077 	addls	r1, r3, #119	; 0x77
    d738:	91a03181 	lslls	r3, r1, #3
    d73c:	9a000007 	bls	d760 <_free_r+0x104>
    d740:	e3a03e55 	mov	r3, #1360	; 0x550
    d744:	e2833004 	add	r3, r3, #4	; 0x4
    d748:	e1510003 	cmp	r1, r3
    d74c:	91a0392e 	lsrls	r3, lr, #18
    d750:	9283107c 	addls	r1, r3, #124	; 0x7c
    d754:	83a0107e 	movhi	r1, #126	; 0x7e
    d758:	82433f59 	subhi	r3, r3, #356	; 0x164
    d75c:	91a03181 	lslls	r3, r1, #3
    d760:	e0872003 	add	r2, r7, r3
    d764:	e5920008 	ldr	r0, [r2, #8]
    d768:	e1500002 	cmp	r0, r2
    d76c:	0a00004d 	beq	d8a8 <_free_r+0x24c>
    d770:	e5903004 	ldr	r3, [r0, #4]
    d774:	e3c33003 	bic	r3, r3, #3	; 0x3
    d778:	e15e0003 	cmp	lr, r3
    d77c:	2a000002 	bcs	d78c <_free_r+0x130>
    d780:	e5900008 	ldr	r0, [r0, #8]
    d784:	e1520000 	cmp	r2, r0
    d788:	1afffff8 	bne	d770 <_free_r+0x114>
    d78c:	e590300c 	ldr	r3, [r0, #12]
    d790:	e585300c 	str	r3, [r5, #12]
    d794:	e5850008 	str	r0, [r5, #8]
    d798:	e580500c 	str	r5, [r0, #12]
    d79c:	e5835008 	str	r5, [r3, #8]
    d7a0:	e1a00008 	mov	r0, r8
    d7a4:	e8bd41f0 	pop	{r4, r5, r6, r7, r8, lr}
    d7a8:	eafff81d 	b	b824 <__malloc_unlock>
    d7ac:	e5142008 	ldr	r2, [r4, #-8]
    d7b0:	e0625005 	rsb	r5, r2, r5
    d7b4:	e595c008 	ldr	ip, [r5, #8]
    d7b8:	e2873008 	add	r3, r7, #8	; 0x8
    d7bc:	e15c0003 	cmp	ip, r3
    d7c0:	1595300c 	ldrne	r3, [r5, #12]
    d7c4:	1583c008 	strne	ip, [r3, #8]
    d7c8:	158c300c 	strne	r3, [ip, #12]
    d7cc:	e0803006 	add	r3, r0, r6
    d7d0:	e08ee002 	add	lr, lr, r2
    d7d4:	e5932004 	ldr	r2, [r3, #4]
    d7d8:	03a01001 	moveq	r1, #1	; 0x1
    d7dc:	e3120001 	tst	r2, #1	; 0x1
    d7e0:	1affffbb 	bne	d6d4 <_free_r+0x78>
    d7e4:	eaffffb3 	b	d6b8 <_free_r+0x5c>
    d7e8:	e5902008 	ldr	r2, [r0, #8]
    d7ec:	e59f30d4 	ldr	r3, [pc, #212]	; d8c8 <_free_r+0x26c>
    d7f0:	e1520003 	cmp	r2, r3
    d7f4:	1affffb3 	bne	d6c8 <_free_r+0x6c>
    d7f8:	e38e3001 	orr	r3, lr, #1	; 0x1
    d7fc:	e582500c 	str	r5, [r2, #12]
    d800:	e5825008 	str	r5, [r2, #8]
    d804:	e785e00e 	str	lr, [r5, lr]
    d808:	e5853004 	str	r3, [r5, #4]
    d80c:	e5852008 	str	r2, [r5, #8]
    d810:	e585200c 	str	r2, [r5, #12]
    d814:	eaffffe1 	b	d7a0 <_free_r+0x144>
    d818:	e1a031ae 	lsr	r3, lr, #3
    d81c:	e5971004 	ldr	r1, [r7, #4]
    d820:	e1a00143 	asr	r0, r3, #2
    d824:	e3a02001 	mov	r2, #1	; 0x1
    d828:	e1811012 	orr	r1, r1, r2, lsl r0
    d82c:	e1a03183 	lsl	r3, r3, #3
    d830:	e0873003 	add	r3, r7, r3
    d834:	e5932008 	ldr	r2, [r3, #8]
    d838:	e585300c 	str	r3, [r5, #12]
    d83c:	e5852008 	str	r2, [r5, #8]
    d840:	e5871004 	str	r1, [r7, #4]
    d844:	e582500c 	str	r5, [r2, #12]
    d848:	e5835008 	str	r5, [r3, #8]
    d84c:	eaffffd3 	b	d7a0 <_free_r+0x144>
    d850:	e3110001 	tst	r1, #1	; 0x1
    d854:	e086000e 	add	r0, r6, lr
    d858:	1a000006 	bne	d878 <_free_r+0x21c>
    d85c:	e5141008 	ldr	r1, [r4, #-8]
    d860:	e0615005 	rsb	r5, r1, r5
    d864:	e595200c 	ldr	r2, [r5, #12]
    d868:	e5953008 	ldr	r3, [r5, #8]
    d86c:	e5823008 	str	r3, [r2, #8]
    d870:	e583200c 	str	r2, [r3, #12]
    d874:	e0800001 	add	r0, r0, r1
    d878:	e59f304c 	ldr	r3, [pc, #76]	; d8cc <_free_r+0x270>
    d87c:	e5932000 	ldr	r2, [r3]
    d880:	e3803001 	orr	r3, r0, #1	; 0x1
    d884:	e1500002 	cmp	r0, r2
    d888:	e5875008 	str	r5, [r7, #8]
    d88c:	e5853004 	str	r3, [r5, #4]
    d890:	3affffc2 	bcc	d7a0 <_free_r+0x144>
    d894:	e59f3034 	ldr	r3, [pc, #52]	; d8d0 <_free_r+0x274>
    d898:	e1a00008 	mov	r0, r8
    d89c:	e5931000 	ldr	r1, [r3]
    d8a0:	ebffff2f 	bl	d564 <_malloc_trim_r>
    d8a4:	eaffffbd 	b	d7a0 <_free_r+0x144>
    d8a8:	e5973004 	ldr	r3, [r7, #4]
    d8ac:	e1a01141 	asr	r1, r1, #2
    d8b0:	e3a02001 	mov	r2, #1	; 0x1
    d8b4:	e1833112 	orr	r3, r3, r2, lsl r1
    d8b8:	e5873004 	str	r3, [r7, #4]
    d8bc:	e1a03000 	mov	r3, r0
    d8c0:	eaffffb2 	b	d790 <_free_r+0x134>
    d8c4:	40000100 	.word	0x40000100
    d8c8:	40000108 	.word	0x40000108
    d8cc:	40000508 	.word	0x40000508
    d8d0:	40000a40 	.word	0x40000a40

0000d8d4 <__sfvwrite_r>:
    d8d4:	e92d4ff0 	push	{r4, r5, r6, r7, r8, r9, sl, fp, lr}
    d8d8:	e5923008 	ldr	r3, [r2, #8]
    d8dc:	e24dd008 	sub	sp, sp, #8	; 0x8
    d8e0:	e3530000 	cmp	r3, #0	; 0x0
    d8e4:	e1a0b002 	mov	fp, r2
    d8e8:	e58d0000 	str	r0, [sp]
    d8ec:	e1a06001 	mov	r6, r1
    d8f0:	0a000057 	beq	da54 <__sfvwrite_r+0x180>
    d8f4:	e1d100bc 	ldrh	r0, [r1, #12]
    d8f8:	e3100008 	tst	r0, #8	; 0x8
    d8fc:	0a000095 	beq	db58 <__sfvwrite_r+0x284>
    d900:	e5913010 	ldr	r3, [r1, #16]
    d904:	e3530000 	cmp	r3, #0	; 0x0
    d908:	0a000092 	beq	db58 <__sfvwrite_r+0x284>
    d90c:	e2103002 	ands	r3, r0, #2	; 0x2
    d910:	13a04000 	movne	r4, #0	; 0x0
    d914:	e59ba000 	ldr	sl, [fp]
    d918:	11a05004 	movne	r5, r4
    d91c:	1a000039 	bne	da08 <__sfvwrite_r+0x134>
    d920:	e2102001 	ands	r2, r0, #1	; 0x1
    d924:	01a05002 	moveq	r5, r2
    d928:	01a07005 	moveq	r7, r5
    d92c:	0a00005f 	beq	dab0 <__sfvwrite_r+0x1dc>
    d930:	e58d3004 	str	r3, [sp, #4]
    d934:	e1a07003 	mov	r7, r3
    d938:	e1a09003 	mov	r9, r3
    d93c:	e1a08003 	mov	r8, r3
    d940:	e3570000 	cmp	r7, #0	; 0x0
    d944:	0a000026 	beq	d9e4 <__sfvwrite_r+0x110>
    d948:	e59d2004 	ldr	r2, [sp, #4]
    d94c:	e3520000 	cmp	r2, #0	; 0x0
    d950:	0a0000ed 	beq	dd0c <__sfvwrite_r+0x438>
    d954:	e596c014 	ldr	ip, [r6, #20]
    d958:	e5961008 	ldr	r1, [r6, #8]
    d95c:	e5960000 	ldr	r0, [r6]
    d960:	e5962010 	ldr	r2, [r6, #16]
    d964:	e1580007 	cmp	r8, r7
    d968:	31a05008 	movcc	r5, r8
    d96c:	21a05007 	movcs	r5, r7
    d970:	e08c4001 	add	r4, ip, r1
    d974:	e1500002 	cmp	r0, r2
    d978:	93a03000 	movls	r3, #0	; 0x0
    d97c:	83a03001 	movhi	r3, #1	; 0x1
    d980:	e1550004 	cmp	r5, r4
    d984:	d3a03000 	movle	r3, #0	; 0x0
    d988:	e3530000 	cmp	r3, #0	; 0x0
    d98c:	1a0000d2 	bne	dcdc <__sfvwrite_r+0x408>
    d990:	e155000c 	cmp	r5, ip
    d994:	ba0000bd 	blt	dc90 <__sfvwrite_r+0x3bc>
    d998:	e1a0300c 	mov	r3, ip
    d99c:	e59d0000 	ldr	r0, [sp]
    d9a0:	e596101c 	ldr	r1, [r6, #28]
    d9a4:	e1a02009 	mov	r2, r9
    d9a8:	e1a0e00f 	mov	lr, pc
    d9ac:	e596f024 	ldr	pc, [r6, #36]
    d9b0:	e2504000 	subs	r4, r0, #0	; 0x0
    d9b4:	da00008c 	ble	dbec <__sfvwrite_r+0x318>
    d9b8:	e0588004 	subs	r8, r8, r4
    d9bc:	0a0000bf 	beq	dcc0 <__sfvwrite_r+0x3ec>
    d9c0:	e59b3008 	ldr	r3, [fp, #8]
    d9c4:	e0643003 	rsb	r3, r4, r3
    d9c8:	e3530000 	cmp	r3, #0	; 0x0
    d9cc:	e58b3008 	str	r3, [fp, #8]
    d9d0:	0a00001f 	beq	da54 <__sfvwrite_r+0x180>
    d9d4:	e0647007 	rsb	r7, r4, r7
    d9d8:	e3570000 	cmp	r7, #0	; 0x0
    d9dc:	e0899004 	add	r9, r9, r4
    d9e0:	1affffd8 	bne	d948 <__sfvwrite_r+0x74>
    d9e4:	e3a03000 	mov	r3, #0	; 0x0
    d9e8:	e59a9000 	ldr	r9, [sl]
    d9ec:	e59a7004 	ldr	r7, [sl, #4]
    d9f0:	e58d3004 	str	r3, [sp, #4]
    d9f4:	e28aa008 	add	sl, sl, #8	; 0x8
    d9f8:	eaffffd0 	b	d940 <__sfvwrite_r+0x6c>
    d9fc:	e59a5000 	ldr	r5, [sl]
    da00:	e59a4004 	ldr	r4, [sl, #4]
    da04:	e28aa008 	add	sl, sl, #8	; 0x8
    da08:	e3540000 	cmp	r4, #0	; 0x0
    da0c:	e1a02005 	mov	r2, r5
    da10:	e59d0000 	ldr	r0, [sp]
    da14:	0afffff8 	beq	d9fc <__sfvwrite_r+0x128>
    da18:	e3540b01 	cmp	r4, #1024	; 0x400
    da1c:	31a03004 	movcc	r3, r4
    da20:	23a03b01 	movcs	r3, #1024	; 0x400
    da24:	e596101c 	ldr	r1, [r6, #28]
    da28:	e1a0e00f 	mov	lr, pc
    da2c:	e596f024 	ldr	pc, [r6, #36]
    da30:	e3500000 	cmp	r0, #0	; 0x0
    da34:	e0604004 	rsb	r4, r0, r4
    da38:	e0855000 	add	r5, r5, r0
    da3c:	da00006a 	ble	dbec <__sfvwrite_r+0x318>
    da40:	e59b3008 	ldr	r3, [fp, #8]
    da44:	e0603003 	rsb	r3, r0, r3
    da48:	e3530000 	cmp	r3, #0	; 0x0
    da4c:	e58b3008 	str	r3, [fp, #8]
    da50:	1affffec 	bne	da08 <__sfvwrite_r+0x134>
    da54:	e3a00000 	mov	r0, #0	; 0x0
    da58:	e28dd008 	add	sp, sp, #8	; 0x8
    da5c:	e8bd8ff0 	pop	{r4, r5, r6, r7, r8, r9, sl, fp, pc}
    da60:	e1a04005 	mov	r4, r5
    da64:	e1a02004 	mov	r2, r4
    da68:	e5960000 	ldr	r0, [r6]
    da6c:	e1a01007 	mov	r1, r7
    da70:	eb000194 	bl	e0c8 <memmove>
    da74:	e5963008 	ldr	r3, [r6, #8]
    da78:	e5962000 	ldr	r2, [r6]
    da7c:	e0643003 	rsb	r3, r4, r3
    da80:	e0822004 	add	r2, r2, r4
    da84:	e5863008 	str	r3, [r6, #8]
    da88:	e5862000 	str	r2, [r6]
    da8c:	e1a04005 	mov	r4, r5
    da90:	e59b3008 	ldr	r3, [fp, #8]
    da94:	e0643003 	rsb	r3, r4, r3
    da98:	e3530000 	cmp	r3, #0	; 0x0
    da9c:	e58b3008 	str	r3, [fp, #8]
    daa0:	0affffeb 	beq	da54 <__sfvwrite_r+0x180>
    daa4:	e1d600bc 	ldrh	r0, [r6, #12]
    daa8:	e0645005 	rsb	r5, r4, r5
    daac:	e0877004 	add	r7, r7, r4
    dab0:	e3550000 	cmp	r5, #0	; 0x0
    dab4:	0a000035 	beq	db90 <__sfvwrite_r+0x2bc>
    dab8:	e3100c02 	tst	r0, #512	; 0x200
    dabc:	e5964008 	ldr	r4, [r6, #8]
    dac0:	0a000036 	beq	dba0 <__sfvwrite_r+0x2cc>
    dac4:	e1550004 	cmp	r5, r4
    dac8:	3affffe4 	bcc	da60 <__sfvwrite_r+0x18c>
    dacc:	e3100d12 	tst	r0, #1152	; 0x480
    dad0:	0affffe3 	beq	da64 <__sfvwrite_r+0x190>
    dad4:	e5962014 	ldr	r2, [r6, #20]
    dad8:	e596c010 	ldr	ip, [r6, #16]
    dadc:	e5961000 	ldr	r1, [r6]
    dae0:	e1a03082 	lsl	r3, r2, #1
    dae4:	e0833002 	add	r3, r3, r2
    dae8:	e06c9001 	rsb	r9, ip, r1
    daec:	e0833fa3 	add	r3, r3, r3, lsr #31
    daf0:	e2892001 	add	r2, r9, #1	; 0x1
    daf4:	e1a040c3 	asr	r4, r3, #1
    daf8:	e0822005 	add	r2, r2, r5
    dafc:	e1540002 	cmp	r4, r2
    db00:	31a04002 	movcc	r4, r2
    db04:	e3100b01 	tst	r0, #1024	; 0x400
    db08:	0a000053 	beq	dc5c <__sfvwrite_r+0x388>
    db0c:	e59d0000 	ldr	r0, [sp]
    db10:	e1a01004 	mov	r1, r4
    db14:	ebfff4d6 	bl	ae74 <_malloc_r>
    db18:	e2508000 	subs	r8, r0, #0	; 0x0
    db1c:	0a000057 	beq	dc80 <__sfvwrite_r+0x3ac>
    db20:	e5961010 	ldr	r1, [r6, #16]
    db24:	e1a02009 	mov	r2, r9
    db28:	ebfff6c9 	bl	b654 <memcpy>
    db2c:	e1d630bc 	ldrh	r3, [r6, #12]
    db30:	e3c33d12 	bic	r3, r3, #1152	; 0x480
    db34:	e3833080 	orr	r3, r3, #128	; 0x80
    db38:	e1c630bc 	strh	r3, [r6, #12]
    db3c:	e0692004 	rsb	r2, r9, r4
    db40:	e0883009 	add	r3, r8, r9
    db44:	e5863000 	str	r3, [r6]
    db48:	e5862008 	str	r2, [r6, #8]
    db4c:	e5868010 	str	r8, [r6, #16]
    db50:	e5864014 	str	r4, [r6, #20]
    db54:	eaffffc1 	b	da60 <__sfvwrite_r+0x18c>
    db58:	e59d0000 	ldr	r0, [sp]
    db5c:	e1a01006 	mov	r1, r6
    db60:	ebfffd0c 	bl	cf98 <__swsetup_r>
    db64:	e3500000 	cmp	r0, #0	; 0x0
    db68:	01d600bc 	ldrheq	r0, [r6, #12]
    db6c:	0affff66 	beq	d90c <__sfvwrite_r+0x38>
    db70:	e1d630bc 	ldrh	r3, [r6, #12]
    db74:	e3833040 	orr	r3, r3, #64	; 0x40
    db78:	e1c630bc 	strh	r3, [r6, #12]
    db7c:	e59d3000 	ldr	r3, [sp]
    db80:	e3a02009 	mov	r2, #9	; 0x9
    db84:	e5832000 	str	r2, [r3]
    db88:	e3e00000 	mvn	r0, #0	; 0x0
    db8c:	eaffffb1 	b	da58 <__sfvwrite_r+0x184>
    db90:	e59a7000 	ldr	r7, [sl]
    db94:	e59a5004 	ldr	r5, [sl, #4]
    db98:	e28aa008 	add	sl, sl, #8	; 0x8
    db9c:	eaffffc3 	b	dab0 <__sfvwrite_r+0x1dc>
    dba0:	e5960000 	ldr	r0, [r6]
    dba4:	e5963010 	ldr	r3, [r6, #16]
    dba8:	e1500003 	cmp	r0, r3
    dbac:	93a02000 	movls	r2, #0	; 0x0
    dbb0:	83a02001 	movhi	r2, #1	; 0x1
    dbb4:	e1540005 	cmp	r4, r5
    dbb8:	23a02000 	movcs	r2, #0	; 0x0
    dbbc:	e3520000 	cmp	r2, #0	; 0x0
    dbc0:	1a000019 	bne	dc2c <__sfvwrite_r+0x358>
    dbc4:	e5963014 	ldr	r3, [r6, #20]
    dbc8:	e1550003 	cmp	r5, r3
    dbcc:	3a00000b 	bcc	dc00 <__sfvwrite_r+0x32c>
    dbd0:	e59d0000 	ldr	r0, [sp]
    dbd4:	e596101c 	ldr	r1, [r6, #28]
    dbd8:	e1a02007 	mov	r2, r7
    dbdc:	e1a0e00f 	mov	lr, pc
    dbe0:	e596f024 	ldr	pc, [r6, #36]
    dbe4:	e2504000 	subs	r4, r0, #0	; 0x0
    dbe8:	caffffa8 	bgt	da90 <__sfvwrite_r+0x1bc>
    dbec:	e1d630bc 	ldrh	r3, [r6, #12]
    dbf0:	e3833040 	orr	r3, r3, #64	; 0x40
    dbf4:	e1c630bc 	strh	r3, [r6, #12]
    dbf8:	e3e00000 	mvn	r0, #0	; 0x0
    dbfc:	eaffff95 	b	da58 <__sfvwrite_r+0x184>
    dc00:	e1a02005 	mov	r2, r5
    dc04:	e1a01007 	mov	r1, r7
    dc08:	eb00012e 	bl	e0c8 <memmove>
    dc0c:	e5963008 	ldr	r3, [r6, #8]
    dc10:	e5962000 	ldr	r2, [r6]
    dc14:	e0653003 	rsb	r3, r5, r3
    dc18:	e0822005 	add	r2, r2, r5
    dc1c:	e5863008 	str	r3, [r6, #8]
    dc20:	e5862000 	str	r2, [r6]
    dc24:	e1a04005 	mov	r4, r5
    dc28:	eaffff98 	b	da90 <__sfvwrite_r+0x1bc>
    dc2c:	e1a01007 	mov	r1, r7
    dc30:	e1a02004 	mov	r2, r4
    dc34:	eb000123 	bl	e0c8 <memmove>
    dc38:	e5963000 	ldr	r3, [r6]
    dc3c:	e0833004 	add	r3, r3, r4
    dc40:	e5863000 	str	r3, [r6]
    dc44:	e59d0000 	ldr	r0, [sp]
    dc48:	e1a01006 	mov	r1, r6
    dc4c:	ebfffd22 	bl	d0dc <_fflush_r>
    dc50:	e3500000 	cmp	r0, #0	; 0x0
    dc54:	0affff8d 	beq	da90 <__sfvwrite_r+0x1bc>
    dc58:	eaffffe3 	b	dbec <__sfvwrite_r+0x318>
    dc5c:	e1a0100c 	mov	r1, ip
    dc60:	e59d0000 	ldr	r0, [sp]
    dc64:	e1a02004 	mov	r2, r4
    dc68:	eb000167 	bl	e20c <_realloc_r>
    dc6c:	e2508000 	subs	r8, r0, #0	; 0x0
    dc70:	1affffb1 	bne	db3c <__sfvwrite_r+0x268>
    dc74:	e59d0000 	ldr	r0, [sp]
    dc78:	e5961010 	ldr	r1, [r6, #16]
    dc7c:	ebfffe76 	bl	d65c <_free_r>
    dc80:	e59d2000 	ldr	r2, [sp]
    dc84:	e3a0300c 	mov	r3, #12	; 0xc
    dc88:	e5823000 	str	r3, [r2]
    dc8c:	eaffffd6 	b	dbec <__sfvwrite_r+0x318>
    dc90:	e1a02005 	mov	r2, r5
    dc94:	e1a01009 	mov	r1, r9
    dc98:	eb00010a 	bl	e0c8 <memmove>
    dc9c:	e5963008 	ldr	r3, [r6, #8]
    dca0:	e5962000 	ldr	r2, [r6]
    dca4:	e1a04005 	mov	r4, r5
    dca8:	e0653003 	rsb	r3, r5, r3
    dcac:	e0822005 	add	r2, r2, r5
    dcb0:	e0588004 	subs	r8, r8, r4
    dcb4:	e5863008 	str	r3, [r6, #8]
    dcb8:	e5862000 	str	r2, [r6]
    dcbc:	1affff3f 	bne	d9c0 <__sfvwrite_r+0xec>
    dcc0:	e59d0000 	ldr	r0, [sp]
    dcc4:	e1a01006 	mov	r1, r6
    dcc8:	ebfffd03 	bl	d0dc <_fflush_r>
    dccc:	e3500000 	cmp	r0, #0	; 0x0
    dcd0:	1affffc5 	bne	dbec <__sfvwrite_r+0x318>
    dcd4:	e58d8004 	str	r8, [sp, #4]
    dcd8:	eaffff38 	b	d9c0 <__sfvwrite_r+0xec>
    dcdc:	e1a01009 	mov	r1, r9
    dce0:	e1a02004 	mov	r2, r4
    dce4:	eb0000f7 	bl	e0c8 <memmove>
    dce8:	e5963000 	ldr	r3, [r6]
    dcec:	e0833004 	add	r3, r3, r4
    dcf0:	e5863000 	str	r3, [r6]
    dcf4:	e59d0000 	ldr	r0, [sp]
    dcf8:	e1a01006 	mov	r1, r6
    dcfc:	ebfffcf6 	bl	d0dc <_fflush_r>
    dd00:	e3500000 	cmp	r0, #0	; 0x0
    dd04:	0affff2b 	beq	d9b8 <__sfvwrite_r+0xe4>
    dd08:	eaffffb7 	b	dbec <__sfvwrite_r+0x318>
    dd0c:	e1a02007 	mov	r2, r7
    dd10:	e1a00009 	mov	r0, r9
    dd14:	e3a0100a 	mov	r1, #10	; 0xa
    dd18:	eb0000a4 	bl	dfb0 <memchr>
    dd1c:	e3500000 	cmp	r0, #0	; 0x0
    dd20:	12803001 	addne	r3, r0, #1	; 0x1
    dd24:	10698003 	rsbne	r8, r9, r3
    dd28:	03a02001 	moveq	r2, #1	; 0x1
    dd2c:	13a03001 	movne	r3, #1	; 0x1
    dd30:	158d3004 	strne	r3, [sp, #4]
    dd34:	02878001 	addeq	r8, r7, #1	; 0x1
    dd38:	058d2004 	streq	r2, [sp, #4]
    dd3c:	eaffff04 	b	d954 <__sfvwrite_r+0x80>

0000dd40 <_fwalk_reent>:
    dd40:	e92d47f0 	push	{r4, r5, r6, r7, r8, r9, sl, lr}
    dd44:	e1a07000 	mov	r7, r0
    dd48:	e1a09001 	mov	r9, r1
    dd4c:	ebfffda0 	bl	d3d4 <__sfp_lock_acquire>
    dd50:	e2978e2e 	adds	r8, r7, #736	; 0x2e0
    dd54:	01a0a008 	moveq	sl, r8
    dd58:	0a000017 	beq	ddbc <_fwalk_reent+0x7c>
    dd5c:	e3a0a000 	mov	sl, #0	; 0x0
    dd60:	e5986004 	ldr	r6, [r8, #4]
    dd64:	e3560000 	cmp	r6, #0	; 0x0
    dd68:	e5984008 	ldr	r4, [r8, #8]
    dd6c:	da00000f 	ble	ddb0 <_fwalk_reent+0x70>
    dd70:	e3a05000 	mov	r5, #0	; 0x0
    dd74:	e1d430fc 	ldrsh	r3, [r4, #12]
    dd78:	e3530000 	cmp	r3, #0	; 0x0
    dd7c:	e2855001 	add	r5, r5, #1	; 0x1
    dd80:	0a000007 	beq	dda4 <_fwalk_reent+0x64>
    dd84:	e1d430fe 	ldrsh	r3, [r4, #14]
    dd88:	e3730001 	cmn	r3, #1	; 0x1
    dd8c:	e1a01004 	mov	r1, r4
    dd90:	e1a00007 	mov	r0, r7
    dd94:	0a000002 	beq	dda4 <_fwalk_reent+0x64>
    dd98:	e1a0e00f 	mov	lr, pc
    dd9c:	e12fff19 	bx	r9
    dda0:	e18aa000 	orr	sl, sl, r0
    dda4:	e1550006 	cmp	r5, r6
    dda8:	e284405c 	add	r4, r4, #92	; 0x5c
    ddac:	1afffff0 	bne	dd74 <_fwalk_reent+0x34>
    ddb0:	e5988000 	ldr	r8, [r8]
    ddb4:	e3580000 	cmp	r8, #0	; 0x0
    ddb8:	1affffe8 	bne	dd60 <_fwalk_reent+0x20>
    ddbc:	ebfffd85 	bl	d3d8 <__sfp_lock_release>
    ddc0:	e1a0000a 	mov	r0, sl
    ddc4:	e8bd87f0 	pop	{r4, r5, r6, r7, r8, r9, sl, pc}

0000ddc8 <_fwalk>:
    ddc8:	e92d45f0 	push	{r4, r5, r6, r7, r8, sl, lr}
    ddcc:	e1a04000 	mov	r4, r0
    ddd0:	e1a0a001 	mov	sl, r1
    ddd4:	ebfffd7e 	bl	d3d4 <__sfp_lock_acquire>
    ddd8:	e2947e2e 	adds	r7, r4, #736	; 0x2e0
    dddc:	01a08007 	moveq	r8, r7
    dde0:	0a000016 	beq	de40 <_fwalk+0x78>
    dde4:	e3a08000 	mov	r8, #0	; 0x0
    dde8:	e5976004 	ldr	r6, [r7, #4]
    ddec:	e3560000 	cmp	r6, #0	; 0x0
    ddf0:	e5974008 	ldr	r4, [r7, #8]
    ddf4:	da00000e 	ble	de34 <_fwalk+0x6c>
    ddf8:	e3a05000 	mov	r5, #0	; 0x0
    ddfc:	e1d430fc 	ldrsh	r3, [r4, #12]
    de00:	e3530000 	cmp	r3, #0	; 0x0
    de04:	e2855001 	add	r5, r5, #1	; 0x1
    de08:	0a000006 	beq	de28 <_fwalk+0x60>
    de0c:	e1d430fe 	ldrsh	r3, [r4, #14]
    de10:	e3730001 	cmn	r3, #1	; 0x1
    de14:	e1a00004 	mov	r0, r4
    de18:	0a000002 	beq	de28 <_fwalk+0x60>
    de1c:	e1a0e00f 	mov	lr, pc
    de20:	e12fff1a 	bx	sl
    de24:	e1888000 	orr	r8, r8, r0
    de28:	e1550006 	cmp	r5, r6
    de2c:	e284405c 	add	r4, r4, #92	; 0x5c
    de30:	1afffff1 	bne	ddfc <_fwalk+0x34>
    de34:	e5977000 	ldr	r7, [r7]
    de38:	e3570000 	cmp	r7, #0	; 0x0
    de3c:	1affffe9 	bne	dde8 <_fwalk+0x20>
    de40:	ebfffd64 	bl	d3d8 <__sfp_lock_release>
    de44:	e1a00008 	mov	r0, r8
    de48:	e8bd85f0 	pop	{r4, r5, r6, r7, r8, sl, pc}

0000de4c <__smakebuf_r>:
    de4c:	e1d120bc 	ldrh	r2, [r1, #12]
    de50:	e92d40f0 	push	{r4, r5, r6, r7, lr}
    de54:	e1a03802 	lsl	r3, r2, #16
    de58:	e1a03823 	lsr	r3, r3, #16
    de5c:	e3130002 	tst	r3, #2	; 0x2
    de60:	12812043 	addne	r2, r1, #67	; 0x43
    de64:	13a03001 	movne	r3, #1	; 0x1
    de68:	e24dd03c 	sub	sp, sp, #60	; 0x3c
    de6c:	e1a04001 	mov	r4, r1
    de70:	e1a06000 	mov	r6, r0
    de74:	15813014 	strne	r3, [r1, #20]
    de78:	15812010 	strne	r2, [r1, #16]
    de7c:	15812000 	strne	r2, [r1]
    de80:	1a000030 	bne	df48 <__smakebuf_r+0xfc>
    de84:	e1d110fe 	ldrsh	r1, [r1, #14]
    de88:	e3510000 	cmp	r1, #0	; 0x0
    de8c:	ba000012 	blt	dedc <__smakebuf_r+0x90>
    de90:	e1a0200d 	mov	r2, sp
    de94:	ebffe564 	bl	742c <_fstat_r>
    de98:	e3500000 	cmp	r0, #0	; 0x0
    de9c:	ba00000b 	blt	ded0 <__smakebuf_r+0x84>
    dea0:	e59d3004 	ldr	r3, [sp, #4]
    dea4:	e2033a0f 	and	r3, r3, #61440	; 0xf000
    dea8:	e3530a02 	cmp	r3, #8192	; 0x2000
    deac:	13a07000 	movne	r7, #0	; 0x0
    deb0:	03a07001 	moveq	r7, #1	; 0x1
    deb4:	e3530902 	cmp	r3, #32768	; 0x8000
    deb8:	0a00002f 	beq	df7c <__smakebuf_r+0x130>
    debc:	e1d430bc 	ldrh	r3, [r4, #12]
    dec0:	e3833b02 	orr	r3, r3, #2048	; 0x800
    dec4:	e1c430bc 	strh	r3, [r4, #12]
    dec8:	e3a05b01 	mov	r5, #1024	; 0x400
    decc:	ea000008 	b	def4 <__smakebuf_r+0xa8>
    ded0:	e1d420bc 	ldrh	r2, [r4, #12]
    ded4:	e1a03802 	lsl	r3, r2, #16
    ded8:	e1a03823 	lsr	r3, r3, #16
    dedc:	e3130080 	tst	r3, #128	; 0x80
    dee0:	e3823b02 	orr	r3, r2, #2048	; 0x800
    dee4:	e1c430bc 	strh	r3, [r4, #12]
    dee8:	03a05b01 	moveq	r5, #1024	; 0x400
    deec:	13a05040 	movne	r5, #64	; 0x40
    def0:	e3a07000 	mov	r7, #0	; 0x0
    def4:	e1a00006 	mov	r0, r6
    def8:	e1a01005 	mov	r1, r5
    defc:	ebfff3dc 	bl	ae74 <_malloc_r>
    df00:	e3500000 	cmp	r0, #0	; 0x0
    df04:	0a000011 	beq	df50 <__smakebuf_r+0x104>
    df08:	e1d420bc 	ldrh	r2, [r4, #12]
    df0c:	e59f3094 	ldr	r3, [pc, #148]	; dfa8 <__smakebuf_r+0x15c>
    df10:	e3822080 	orr	r2, r2, #128	; 0x80
    df14:	e3570000 	cmp	r7, #0	; 0x0
    df18:	e586303c 	str	r3, [r6, #60]
    df1c:	e1c420bc 	strh	r2, [r4, #12]
    df20:	e5840010 	str	r0, [r4, #16]
    df24:	e5845014 	str	r5, [r4, #20]
    df28:	e5840000 	str	r0, [r4]
    df2c:	0a000005 	beq	df48 <__smakebuf_r+0xfc>
    df30:	e1d400fe 	ldrsh	r0, [r4, #14]
    df34:	ebffe540 	bl	743c <isatty>
    df38:	e3500000 	cmp	r0, #0	; 0x0
    df3c:	11d430bc 	ldrhne	r3, [r4, #12]
    df40:	13833001 	orrne	r3, r3, #1	; 0x1
    df44:	11c430bc 	strhne	r3, [r4, #12]
    df48:	e28dd03c 	add	sp, sp, #60	; 0x3c
    df4c:	e8bd80f0 	pop	{r4, r5, r6, r7, pc}
    df50:	e1d410bc 	ldrh	r1, [r4, #12]
    df54:	e3110c02 	tst	r1, #512	; 0x200
    df58:	1afffffa 	bne	df48 <__smakebuf_r+0xfc>
    df5c:	e2842043 	add	r2, r4, #67	; 0x43
    df60:	e3811002 	orr	r1, r1, #2	; 0x2
    df64:	e3a03001 	mov	r3, #1	; 0x1
    df68:	e5843014 	str	r3, [r4, #20]
    df6c:	e1c410bc 	strh	r1, [r4, #12]
    df70:	e5842010 	str	r2, [r4, #16]
    df74:	e5842000 	str	r2, [r4]
    df78:	eafffff2 	b	df48 <__smakebuf_r+0xfc>
    df7c:	e5942028 	ldr	r2, [r4, #40]
    df80:	e59f3024 	ldr	r3, [pc, #36]	; dfac <__smakebuf_r+0x160>
    df84:	e1520003 	cmp	r2, r3
    df88:	1affffcb 	bne	debc <__smakebuf_r+0x70>
    df8c:	e1d430bc 	ldrh	r3, [r4, #12]
    df90:	e3a02b01 	mov	r2, #1024	; 0x400
    df94:	e3833b01 	orr	r3, r3, #1024	; 0x400
    df98:	e1c430bc 	strh	r3, [r4, #12]
    df9c:	e584204c 	str	r2, [r4, #76]
    dfa0:	e1a05002 	mov	r5, r2
    dfa4:	eaffffd2 	b	def4 <__smakebuf_r+0xa8>
    dfa8:	0000d424 	.word	0x0000d424
    dfac:	0000e724 	.word	0x0000e724

0000dfb0 <memchr>:
    dfb0:	e92d0030 	push	{r4, r5}
    dfb4:	e1a04002 	mov	r4, r2
    dfb8:	e3540003 	cmp	r4, #3	; 0x3
    dfbc:	e1a02000 	mov	r2, r0
    dfc0:	e20110ff 	and	r1, r1, #255	; 0xff
    dfc4:	9a000038 	bls	e0ac <memchr+0xfc>
    dfc8:	e2123003 	ands	r3, r2, #3	; 0x3
    dfcc:	0a00000d 	beq	e008 <memchr+0x58>
    dfd0:	e5d03000 	ldrb	r3, [r0]
    dfd4:	e1530001 	cmp	r3, r1
    dfd8:	12442001 	subne	r2, r4, #1	; 0x1
    dfdc:	1a000003 	bne	dff0 <memchr+0x40>
    dfe0:	ea000006 	b	e000 <memchr+0x50>
    dfe4:	e5f03001 	ldrb	r3, [r0, #1]!
    dfe8:	e1530001 	cmp	r3, r1
    dfec:	0a000003 	beq	e000 <memchr+0x50>
    dff0:	e3520000 	cmp	r2, #0	; 0x0
    dff4:	e2422001 	sub	r2, r2, #1	; 0x1
    dff8:	1afffff9 	bne	dfe4 <memchr+0x34>
    dffc:	e3a00000 	mov	r0, #0	; 0x0
    e000:	e8bd0030 	pop	{r4, r5}
    e004:	e12fff1e 	bx	lr
    e008:	e1a05003 	mov	r5, r3
    e00c:	e1a0c003 	mov	ip, r3
    e010:	e28cc001 	add	ip, ip, #1	; 0x1
    e014:	e1a03405 	lsl	r3, r5, #8
    e018:	e35c0004 	cmp	ip, #4	; 0x4
    e01c:	e0835001 	add	r5, r3, r1
    e020:	1afffffa 	bne	e010 <memchr+0x60>
    e024:	e1a00002 	mov	r0, r2
    e028:	e5902000 	ldr	r2, [r0]
    e02c:	e0252002 	eor	r2, r5, r2
    e030:	e28234ff 	add	r3, r2, #-16777216	; 0xff000000
    e034:	e2433801 	sub	r3, r3, #65536	; 0x10000
    e038:	e2433c01 	sub	r3, r3, #256	; 0x100
    e03c:	e2433001 	sub	r3, r3, #1	; 0x1
    e040:	e1e02002 	mvn	r2, r2
    e044:	e0033002 	and	r3, r3, r2
    e048:	e3c3347f 	bic	r3, r3, #2130706432	; 0x7f000000
    e04c:	e3c3387f 	bic	r3, r3, #8323072	; 0x7f0000
    e050:	e3c33c7f 	bic	r3, r3, #32512	; 0x7f00
    e054:	e3c3307f 	bic	r3, r3, #127	; 0x7f
    e058:	e3530000 	cmp	r3, #0	; 0x0
    e05c:	e2444004 	sub	r4, r4, #4	; 0x4
    e060:	0a00000e 	beq	e0a0 <memchr+0xf0>
    e064:	e5d03000 	ldrb	r3, [r0]
    e068:	e1530001 	cmp	r3, r1
    e06c:	0a000012 	beq	e0bc <memchr+0x10c>
    e070:	e5d03001 	ldrb	r3, [r0, #1]
    e074:	e1530001 	cmp	r3, r1
    e078:	e2803001 	add	r3, r0, #1	; 0x1
    e07c:	0a00000f 	beq	e0c0 <memchr+0x110>
    e080:	e5d03002 	ldrb	r3, [r0, #2]
    e084:	e1530001 	cmp	r3, r1
    e088:	e2803002 	add	r3, r0, #2	; 0x2
    e08c:	0a00000b 	beq	e0c0 <memchr+0x110>
    e090:	e5d03003 	ldrb	r3, [r0, #3]
    e094:	e1530001 	cmp	r3, r1
    e098:	e2803003 	add	r3, r0, #3	; 0x3
    e09c:	0a000007 	beq	e0c0 <memchr+0x110>
    e0a0:	e3540003 	cmp	r4, #3	; 0x3
    e0a4:	e2800004 	add	r0, r0, #4	; 0x4
    e0a8:	8affffde 	bhi	e028 <memchr+0x78>
    e0ac:	e3540000 	cmp	r4, #0	; 0x0
    e0b0:	1affffc6 	bne	dfd0 <memchr+0x20>
    e0b4:	e3a00000 	mov	r0, #0	; 0x0
    e0b8:	eaffffd0 	b	e000 <memchr+0x50>
    e0bc:	e1a03000 	mov	r3, r0
    e0c0:	e1a00003 	mov	r0, r3
    e0c4:	eaffffcd 	b	e000 <memchr+0x50>

0000e0c8 <memmove>:
    e0c8:	e92d0070 	push	{r4, r5, r6}
    e0cc:	e1500001 	cmp	r0, r1
    e0d0:	e1a04002 	mov	r4, r2
    e0d4:	e1a05001 	mov	r5, r1
    e0d8:	e1a02001 	mov	r2, r1
    e0dc:	e1a06000 	mov	r6, r0
    e0e0:	e1a01004 	mov	r1, r4
    e0e4:	9a000010 	bls	e12c <memmove+0x64>
    e0e8:	e085c004 	add	ip, r5, r4
    e0ec:	e156000c 	cmp	r6, ip
    e0f0:	2a00000d 	bcs	e12c <memmove+0x64>
    e0f4:	e3540000 	cmp	r4, #0	; 0x0
    e0f8:	0a000008 	beq	e120 <memmove+0x58>
    e0fc:	e2643000 	rsb	r3, r4, #0	; 0x0
    e100:	e0862004 	add	r2, r6, r4
    e104:	e0821003 	add	r1, r2, r3
    e108:	e08cc003 	add	ip, ip, r3
    e10c:	e2442001 	sub	r2, r4, #1	; 0x1
    e110:	e7dc3002 	ldrb	r3, [ip, r2]
    e114:	e7c13002 	strb	r3, [r1, r2]
    e118:	e2522001 	subs	r2, r2, #1	; 0x1
    e11c:	2afffffb 	bcs	e110 <memmove+0x48>
    e120:	e1a00006 	mov	r0, r6
    e124:	e8bd0070 	pop	{r4, r5, r6}
    e128:	e12fff1e 	bx	lr
    e12c:	e354000f 	cmp	r4, #15	; 0xf
    e130:	8a000008 	bhi	e158 <memmove+0x90>
    e134:	e3510000 	cmp	r1, #0	; 0x0
    e138:	0afffff8 	beq	e120 <memmove+0x58>
    e13c:	e3a0c000 	mov	ip, #0	; 0x0
    e140:	e7d2300c 	ldrb	r3, [r2, ip]
    e144:	e7c0300c 	strb	r3, [r0, ip]
    e148:	e28cc001 	add	ip, ip, #1	; 0x1
    e14c:	e15c0001 	cmp	ip, r1
    e150:	1afffffa 	bne	e140 <memmove+0x78>
    e154:	eafffff1 	b	e120 <memmove+0x58>
    e158:	e1853006 	orr	r3, r5, r6
    e15c:	e3130003 	tst	r3, #3	; 0x3
    e160:	1afffff3 	bne	e134 <memmove+0x6c>
    e164:	e1a01005 	mov	r1, r5
    e168:	e1a0c006 	mov	ip, r6
    e16c:	e1a00004 	mov	r0, r4
    e170:	e5913000 	ldr	r3, [r1]
    e174:	e58c3000 	str	r3, [ip]
    e178:	e5912004 	ldr	r2, [r1, #4]
    e17c:	e58c2004 	str	r2, [ip, #4]
    e180:	e5913008 	ldr	r3, [r1, #8]
    e184:	e58c3008 	str	r3, [ip, #8]
    e188:	e2400010 	sub	r0, r0, #16	; 0x10
    e18c:	e591300c 	ldr	r3, [r1, #12]
    e190:	e350000f 	cmp	r0, #15	; 0xf
    e194:	e58c300c 	str	r3, [ip, #12]
    e198:	e2811010 	add	r1, r1, #16	; 0x10
    e19c:	e28cc010 	add	ip, ip, #16	; 0x10
    e1a0:	8afffff2 	bhi	e170 <memmove+0xa8>
    e1a4:	e2442010 	sub	r2, r4, #16	; 0x10
    e1a8:	e1a03222 	lsr	r3, r2, #4
    e1ac:	e0421203 	sub	r1, r2, r3, lsl #4
    e1b0:	e2833001 	add	r3, r3, #1	; 0x1
    e1b4:	e1a03203 	lsl	r3, r3, #4
    e1b8:	e3510003 	cmp	r1, #3	; 0x3
    e1bc:	e0855003 	add	r5, r5, r3
    e1c0:	e0864003 	add	r4, r6, r3
    e1c4:	9a00000d 	bls	e200 <memmove+0x138>
    e1c8:	e3a0c000 	mov	ip, #0	; 0x0
    e1cc:	e795300c 	ldr	r3, [r5, ip]
    e1d0:	e784300c 	str	r3, [r4, ip]
    e1d4:	e28cc004 	add	ip, ip, #4	; 0x4
    e1d8:	e06c3001 	rsb	r3, ip, r1
    e1dc:	e3530003 	cmp	r3, #3	; 0x3
    e1e0:	8afffff9 	bhi	e1cc <memmove+0x104>
    e1e4:	e2411004 	sub	r1, r1, #4	; 0x4
    e1e8:	e1a02121 	lsr	r2, r1, #2
    e1ec:	e2823001 	add	r3, r2, #1	; 0x1
    e1f0:	e1a03103 	lsl	r3, r3, #2
    e1f4:	e0844003 	add	r4, r4, r3
    e1f8:	e0411102 	sub	r1, r1, r2, lsl #2
    e1fc:	e0855003 	add	r5, r5, r3
    e200:	e1a00004 	mov	r0, r4
    e204:	e1a02005 	mov	r2, r5
    e208:	eaffffc9 	b	e134 <memmove+0x6c>

0000e20c <_realloc_r>:
    e20c:	e92d4ff0 	push	{r4, r5, r6, r7, r8, r9, sl, fp, lr}
    e210:	e251b000 	subs	fp, r1, #0	; 0x0
    e214:	e24dd008 	sub	sp, sp, #8	; 0x8
    e218:	e1a06002 	mov	r6, r2
    e21c:	e58d0004 	str	r0, [sp, #4]
    e220:	0a0000cd 	beq	e55c <_realloc_r+0x350>
    e224:	ebfff57d 	bl	b820 <__malloc_lock>
    e228:	e286200b 	add	r2, r6, #11	; 0xb
    e22c:	e3520016 	cmp	r2, #22	; 0x16
    e230:	83c2a007 	bichi	sl, r2, #7	; 0x7
    e234:	93a0a010 	movls	sl, #16	; 0x10
    e238:	93a03000 	movls	r3, #0	; 0x0
    e23c:	81a03faa 	lsrhi	r3, sl, #31
    e240:	e24b4008 	sub	r4, fp, #8	; 0x8
    e244:	91a0700a 	movls	r7, sl
    e248:	81a0700a 	movhi	r7, sl
    e24c:	e594c004 	ldr	ip, [r4, #4]
    e250:	e15a0006 	cmp	sl, r6
    e254:	21a0e003 	movcs	lr, r3
    e258:	3383e001 	orrcc	lr, r3, #1	; 0x1
    e25c:	e35e0000 	cmp	lr, #0	; 0x0
    e260:	e1a0100c 	mov	r1, ip
    e264:	1a0000e1 	bne	e5f0 <_realloc_r+0x3e4>
    e268:	e3cc5003 	bic	r5, ip, #3	; 0x3
    e26c:	e1550007 	cmp	r5, r7
    e270:	a1a09005 	movge	r9, r5
    e274:	aa00004d 	bge	e3b0 <_realloc_r+0x1a4>
    e278:	e59f3498 	ldr	r3, [pc, #1176]	; e718 <_realloc_r+0x50c>
    e27c:	e5938008 	ldr	r8, [r3, #8]
    e280:	e0840005 	add	r0, r4, r5
    e284:	e1580000 	cmp	r8, r0
    e288:	0a0000b7 	beq	e56c <_realloc_r+0x360>
    e28c:	e5901004 	ldr	r1, [r0, #4]
    e290:	e3c13001 	bic	r3, r1, #1	; 0x1
    e294:	e0803003 	add	r3, r0, r3
    e298:	e5932004 	ldr	r2, [r3, #4]
    e29c:	e3120001 	tst	r2, #1	; 0x1
    e2a0:	0a000060 	beq	e428 <_realloc_r+0x21c>
    e2a4:	e1a0000e 	mov	r0, lr
    e2a8:	e1a0100e 	mov	r1, lr
    e2ac:	e31c0001 	tst	ip, #1	; 0x1
    e2b0:	1a00006c 	bne	e468 <_realloc_r+0x25c>
    e2b4:	e51b3008 	ldr	r3, [fp, #-8]
    e2b8:	e063c004 	rsb	ip, r3, r4
    e2bc:	e59c2004 	ldr	r2, [ip, #4]
    e2c0:	e3500000 	cmp	r0, #0	; 0x0
    e2c4:	e3c22003 	bic	r2, r2, #3	; 0x3
    e2c8:	0a000063 	beq	e45c <_realloc_r+0x250>
    e2cc:	e1500008 	cmp	r0, r8
    e2d0:	0a0000cb 	beq	e604 <_realloc_r+0x3f8>
    e2d4:	e0822005 	add	r2, r2, r5
    e2d8:	e0819002 	add	r9, r1, r2
    e2dc:	e1590007 	cmp	r9, r7
    e2e0:	b1a09002 	movlt	r9, r2
    e2e4:	ba00005d 	blt	e460 <_realloc_r+0x254>
    e2e8:	e2802008 	add	r2, r0, #8	; 0x8
    e2ec:	e892000c 	ldm	r2, {r2, r3}
    e2f0:	e5832008 	str	r2, [r3, #8]
    e2f4:	e582300c 	str	r3, [r2, #12]
    e2f8:	e1a0000c 	mov	r0, ip
    e2fc:	e59c200c 	ldr	r2, [ip, #12]
    e300:	e5b03008 	ldr	r3, [r0, #8]!
    e304:	e2455004 	sub	r5, r5, #4	; 0x4
    e308:	e3550024 	cmp	r5, #36	; 0x24
    e30c:	e5823008 	str	r3, [r2, #8]
    e310:	e583200c 	str	r2, [r3, #12]
    e314:	8a0000ad 	bhi	e5d0 <_realloc_r+0x3c4>
    e318:	e3550013 	cmp	r5, #19	; 0x13
    e31c:	e1a04000 	mov	r4, r0
    e320:	e1a0e00b 	mov	lr, fp
    e324:	9a000017 	bls	e388 <_realloc_r+0x17c>
    e328:	e59b3000 	ldr	r3, [fp]
    e32c:	e58c3008 	str	r3, [ip, #8]
    e330:	e59b2004 	ldr	r2, [fp, #4]
    e334:	e28b3004 	add	r3, fp, #4	; 0x4
    e338:	e355001b 	cmp	r5, #27	; 0x1b
    e33c:	e58c200c 	str	r2, [ip, #12]
    e340:	e28c4010 	add	r4, ip, #16	; 0x10
    e344:	e283e004 	add	lr, r3, #4	; 0x4
    e348:	9a00000e 	bls	e388 <_realloc_r+0x17c>
    e34c:	e5933004 	ldr	r3, [r3, #4]
    e350:	e58c3010 	str	r3, [ip, #16]
    e354:	e59e2004 	ldr	r2, [lr, #4]
    e358:	e28e3004 	add	r3, lr, #4	; 0x4
    e35c:	e3550024 	cmp	r5, #36	; 0x24
    e360:	e58c2014 	str	r2, [ip, #20]
    e364:	e28c4018 	add	r4, ip, #24	; 0x18
    e368:	e283e004 	add	lr, r3, #4	; 0x4
    e36c:	1a000005 	bne	e388 <_realloc_r+0x17c>
    e370:	e5933004 	ldr	r3, [r3, #4]
    e374:	e58c3018 	str	r3, [ip, #24]
    e378:	e59e2004 	ldr	r2, [lr, #4]
    e37c:	e58c201c 	str	r2, [ip, #28]
    e380:	e28ee008 	add	lr, lr, #8	; 0x8
    e384:	e28c4020 	add	r4, ip, #32	; 0x20
    e388:	e1a0000e 	mov	r0, lr
    e38c:	e4902004 	ldr	r2, [r0], #4
    e390:	e1a01004 	mov	r1, r4
    e394:	e4812004 	str	r2, [r1], #4
    e398:	e59e3004 	ldr	r3, [lr, #4]
    e39c:	e5843004 	str	r3, [r4, #4]
    e3a0:	e5902004 	ldr	r2, [r0, #4]
    e3a4:	e5812004 	str	r2, [r1, #4]
    e3a8:	e59c1004 	ldr	r1, [ip, #4]
    e3ac:	e1a0400c 	mov	r4, ip
    e3b0:	e06a0009 	rsb	r0, sl, r9
    e3b4:	e350000f 	cmp	r0, #15	; 0xf
    e3b8:	8a00000c 	bhi	e3f0 <_realloc_r+0x1e4>
    e3bc:	e2013001 	and	r3, r1, #1	; 0x1
    e3c0:	e1833009 	orr	r3, r3, r9
    e3c4:	e5843004 	str	r3, [r4, #4]
    e3c8:	e0842009 	add	r2, r4, r9
    e3cc:	e5923004 	ldr	r3, [r2, #4]
    e3d0:	e3833001 	orr	r3, r3, #1	; 0x1
    e3d4:	e5823004 	str	r3, [r2, #4]
    e3d8:	e59d0004 	ldr	r0, [sp, #4]
    e3dc:	ebfff510 	bl	b824 <__malloc_unlock>
    e3e0:	e2846008 	add	r6, r4, #8	; 0x8
    e3e4:	e1a00006 	mov	r0, r6
    e3e8:	e28dd008 	add	sp, sp, #8	; 0x8
    e3ec:	e8bd8ff0 	pop	{r4, r5, r6, r7, r8, r9, sl, fp, pc}
    e3f0:	e2013001 	and	r3, r1, #1	; 0x1
    e3f4:	e183300a 	orr	r3, r3, sl
    e3f8:	e084100a 	add	r1, r4, sl
    e3fc:	e3802001 	orr	r2, r0, #1	; 0x1
    e400:	e5843004 	str	r3, [r4, #4]
    e404:	e5812004 	str	r2, [r1, #4]
    e408:	e0810000 	add	r0, r1, r0
    e40c:	e5903004 	ldr	r3, [r0, #4]
    e410:	e3833001 	orr	r3, r3, #1	; 0x1
    e414:	e5803004 	str	r3, [r0, #4]
    e418:	e2811008 	add	r1, r1, #8	; 0x8
    e41c:	e59d0004 	ldr	r0, [sp, #4]
    e420:	ebfffc8d 	bl	d65c <_free_r>
    e424:	eaffffeb 	b	e3d8 <_realloc_r+0x1cc>
    e428:	e3c11003 	bic	r1, r1, #3	; 0x3
    e42c:	e0819005 	add	r9, r1, r5
    e430:	e1590007 	cmp	r9, r7
    e434:	baffff9c 	blt	e2ac <_realloc_r+0xa0>
    e438:	e2802008 	add	r2, r0, #8	; 0x8
    e43c:	e892000c 	ldm	r2, {r2, r3}
    e440:	e06a0009 	rsb	r0, sl, r9
    e444:	e350000f 	cmp	r0, #15	; 0xf
    e448:	e5832008 	str	r2, [r3, #8]
    e44c:	e582300c 	str	r3, [r2, #12]
    e450:	e1a0100c 	mov	r1, ip
    e454:	9affffd8 	bls	e3bc <_realloc_r+0x1b0>
    e458:	eaffffe4 	b	e3f0 <_realloc_r+0x1e4>
    e45c:	e0829005 	add	r9, r2, r5
    e460:	e1590007 	cmp	r9, r7
    e464:	aaffffa3 	bge	e2f8 <_realloc_r+0xec>
    e468:	e1a01006 	mov	r1, r6
    e46c:	e59d0004 	ldr	r0, [sp, #4]
    e470:	ebfff27f 	bl	ae74 <_malloc_r>
    e474:	e2506000 	subs	r6, r0, #0	; 0x0
    e478:	0a000034 	beq	e550 <_realloc_r+0x344>
    e47c:	e5941004 	ldr	r1, [r4, #4]
    e480:	e3c13001 	bic	r3, r1, #1	; 0x1
    e484:	e0843003 	add	r3, r4, r3
    e488:	e2462008 	sub	r2, r6, #8	; 0x8
    e48c:	e1520003 	cmp	r2, r3
    e490:	05923004 	ldreq	r3, [r2, #4]
    e494:	03c33003 	biceq	r3, r3, #3	; 0x3
    e498:	00839005 	addeq	r9, r3, r5
    e49c:	0affffc3 	beq	e3b0 <_realloc_r+0x1a4>
    e4a0:	e2451004 	sub	r1, r5, #4	; 0x4
    e4a4:	e3510024 	cmp	r1, #36	; 0x24
    e4a8:	8a000044 	bhi	e5c0 <_realloc_r+0x3b4>
    e4ac:	e3510013 	cmp	r1, #19	; 0x13
    e4b0:	e1a0c00b 	mov	ip, fp
    e4b4:	e1a0e006 	mov	lr, r6
    e4b8:	9a000019 	bls	e524 <_realloc_r+0x318>
    e4bc:	e1a0400b 	mov	r4, fp
    e4c0:	e4943004 	ldr	r3, [r4], #4
    e4c4:	e1a00006 	mov	r0, r6
    e4c8:	e4803004 	str	r3, [r0], #4
    e4cc:	e59b2004 	ldr	r2, [fp, #4]
    e4d0:	e351001b 	cmp	r1, #27	; 0x1b
    e4d4:	e5862004 	str	r2, [r6, #4]
    e4d8:	e280e004 	add	lr, r0, #4	; 0x4
    e4dc:	e284c004 	add	ip, r4, #4	; 0x4
    e4e0:	9a00000f 	bls	e524 <_realloc_r+0x318>
    e4e4:	e5943004 	ldr	r3, [r4, #4]
    e4e8:	e5803004 	str	r3, [r0, #4]
    e4ec:	e59c2004 	ldr	r2, [ip, #4]
    e4f0:	e3510024 	cmp	r1, #36	; 0x24
    e4f4:	e28c3004 	add	r3, ip, #4	; 0x4
    e4f8:	e28e1004 	add	r1, lr, #4	; 0x4
    e4fc:	e58e2004 	str	r2, [lr, #4]
    e500:	e283c004 	add	ip, r3, #4	; 0x4
    e504:	e281e004 	add	lr, r1, #4	; 0x4
    e508:	1a000005 	bne	e524 <_realloc_r+0x318>
    e50c:	e5933004 	ldr	r3, [r3, #4]
    e510:	e5813004 	str	r3, [r1, #4]
    e514:	e59c2004 	ldr	r2, [ip, #4]
    e518:	e28cc008 	add	ip, ip, #8	; 0x8
    e51c:	e58e2004 	str	r2, [lr, #4]
    e520:	e28ee008 	add	lr, lr, #8	; 0x8
    e524:	e1a0000c 	mov	r0, ip
    e528:	e4902004 	ldr	r2, [r0], #4
    e52c:	e1a0100e 	mov	r1, lr
    e530:	e4812004 	str	r2, [r1], #4
    e534:	e59c3004 	ldr	r3, [ip, #4]
    e538:	e58e3004 	str	r3, [lr, #4]
    e53c:	e5902004 	ldr	r2, [r0, #4]
    e540:	e5812004 	str	r2, [r1, #4]
    e544:	e1a0100b 	mov	r1, fp
    e548:	e59d0004 	ldr	r0, [sp, #4]
    e54c:	ebfffc42 	bl	d65c <_free_r>
    e550:	e59d0004 	ldr	r0, [sp, #4]
    e554:	ebfff4b2 	bl	b824 <__malloc_unlock>
    e558:	eaffffa1 	b	e3e4 <_realloc_r+0x1d8>
    e55c:	e1a01002 	mov	r1, r2
    e560:	e28dd008 	add	sp, sp, #8	; 0x8
    e564:	e8bd4ff0 	pop	{r4, r5, r6, r7, r8, r9, sl, fp, lr}
    e568:	eafff241 	b	ae74 <_malloc_r>
    e56c:	e5983004 	ldr	r3, [r8, #4]
    e570:	e3c31003 	bic	r1, r3, #3	; 0x3
    e574:	e0812005 	add	r2, r1, r5
    e578:	e28a3010 	add	r3, sl, #16	; 0x10
    e57c:	e1520003 	cmp	r2, r3
    e580:	b1a00008 	movlt	r0, r8
    e584:	baffff48 	blt	e2ac <_realloc_r+0xa0>
    e588:	e06a3002 	rsb	r3, sl, r2
    e58c:	e084100a 	add	r1, r4, sl
    e590:	e3833001 	orr	r3, r3, #1	; 0x1
    e594:	e5813004 	str	r3, [r1, #4]
    e598:	e5942004 	ldr	r2, [r4, #4]
    e59c:	e2022001 	and	r2, r2, #1	; 0x1
    e5a0:	e18a2002 	orr	r2, sl, r2
    e5a4:	e5842004 	str	r2, [r4, #4]
    e5a8:	e59f2168 	ldr	r2, [pc, #360]	; e718 <_realloc_r+0x50c>
    e5ac:	e59d0004 	ldr	r0, [sp, #4]
    e5b0:	e5821008 	str	r1, [r2, #8]
    e5b4:	e2846008 	add	r6, r4, #8	; 0x8
    e5b8:	ebfff499 	bl	b824 <__malloc_unlock>
    e5bc:	eaffff88 	b	e3e4 <_realloc_r+0x1d8>
    e5c0:	e1a02001 	mov	r2, r1
    e5c4:	e1a0100b 	mov	r1, fp
    e5c8:	ebfffebe 	bl	e0c8 <memmove>
    e5cc:	eaffffdc 	b	e544 <_realloc_r+0x338>
    e5d0:	e1a0100b 	mov	r1, fp
    e5d4:	e1a02005 	mov	r2, r5
    e5d8:	e58dc000 	str	ip, [sp]
    e5dc:	ebfffeb9 	bl	e0c8 <memmove>
    e5e0:	e59dc000 	ldr	ip, [sp]
    e5e4:	e1a0400c 	mov	r4, ip
    e5e8:	e59c1004 	ldr	r1, [ip, #4]
    e5ec:	eaffff6f 	b	e3b0 <_realloc_r+0x1a4>
    e5f0:	e59d2004 	ldr	r2, [sp, #4]
    e5f4:	e3a0300c 	mov	r3, #12	; 0xc
    e5f8:	e5823000 	str	r3, [r2]
    e5fc:	e3a06000 	mov	r6, #0	; 0x0
    e600:	eaffff77 	b	e3e4 <_realloc_r+0x1d8>
    e604:	e0829005 	add	r9, r2, r5
    e608:	e0818009 	add	r8, r1, r9
    e60c:	e28a3010 	add	r3, sl, #16	; 0x10
    e610:	e1580003 	cmp	r8, r3
    e614:	baffff91 	blt	e460 <_realloc_r+0x254>
    e618:	e1a0600c 	mov	r6, ip
    e61c:	e59c200c 	ldr	r2, [ip, #12]
    e620:	e5b63008 	ldr	r3, [r6, #8]!
    e624:	e2450004 	sub	r0, r5, #4	; 0x4
    e628:	e3500024 	cmp	r0, #36	; 0x24
    e62c:	e5823008 	str	r3, [r2, #8]
    e630:	e583200c 	str	r2, [r3, #12]
    e634:	8a000030 	bhi	e6fc <_realloc_r+0x4f0>
    e638:	e3500013 	cmp	r0, #19	; 0x13
    e63c:	e1a0e00b 	mov	lr, fp
    e640:	e1a04006 	mov	r4, r6
    e644:	9a000017 	bls	e6a8 <_realloc_r+0x49c>
    e648:	e59b3000 	ldr	r3, [fp]
    e64c:	e58c3008 	str	r3, [ip, #8]
    e650:	e59b2004 	ldr	r2, [fp, #4]
    e654:	e28b3004 	add	r3, fp, #4	; 0x4
    e658:	e350001b 	cmp	r0, #27	; 0x1b
    e65c:	e58c200c 	str	r2, [ip, #12]
    e660:	e28c4010 	add	r4, ip, #16	; 0x10
    e664:	e283e004 	add	lr, r3, #4	; 0x4
    e668:	9a00000e 	bls	e6a8 <_realloc_r+0x49c>
    e66c:	e5933004 	ldr	r3, [r3, #4]
    e670:	e58c3010 	str	r3, [ip, #16]
    e674:	e59e2004 	ldr	r2, [lr, #4]
    e678:	e28e3004 	add	r3, lr, #4	; 0x4
    e67c:	e3500024 	cmp	r0, #36	; 0x24
    e680:	e58c2014 	str	r2, [ip, #20]
    e684:	e28c4018 	add	r4, ip, #24	; 0x18
    e688:	e283e004 	add	lr, r3, #4	; 0x4
    e68c:	1a000005 	bne	e6a8 <_realloc_r+0x49c>
    e690:	e5933004 	ldr	r3, [r3, #4]
    e694:	e58c3018 	str	r3, [ip, #24]
    e698:	e59e2004 	ldr	r2, [lr, #4]
    e69c:	e58c201c 	str	r2, [ip, #28]
    e6a0:	e28ee008 	add	lr, lr, #8	; 0x8
    e6a4:	e28c4020 	add	r4, ip, #32	; 0x20
    e6a8:	e1a0000e 	mov	r0, lr
    e6ac:	e4902004 	ldr	r2, [r0], #4
    e6b0:	e1a01004 	mov	r1, r4
    e6b4:	e4812004 	str	r2, [r1], #4
    e6b8:	e59e3004 	ldr	r3, [lr, #4]
    e6bc:	e5843004 	str	r3, [r4, #4]
    e6c0:	e5902004 	ldr	r2, [r0, #4]
    e6c4:	e5812004 	str	r2, [r1, #4]
    e6c8:	e06a3008 	rsb	r3, sl, r8
    e6cc:	e08c100a 	add	r1, ip, sl
    e6d0:	e3833001 	orr	r3, r3, #1	; 0x1
    e6d4:	e5813004 	str	r3, [r1, #4]
    e6d8:	e59c2004 	ldr	r2, [ip, #4]
    e6dc:	e59f3034 	ldr	r3, [pc, #52]	; e718 <_realloc_r+0x50c>
    e6e0:	e2022001 	and	r2, r2, #1	; 0x1
    e6e4:	e18a2002 	orr	r2, sl, r2
    e6e8:	e58c2004 	str	r2, [ip, #4]
    e6ec:	e59d0004 	ldr	r0, [sp, #4]
    e6f0:	e5831008 	str	r1, [r3, #8]
    e6f4:	ebfff44a 	bl	b824 <__malloc_unlock>
    e6f8:	eaffff39 	b	e3e4 <_realloc_r+0x1d8>
    e6fc:	e1a02000 	mov	r2, r0
    e700:	e1a0100b 	mov	r1, fp
    e704:	e1a00006 	mov	r0, r6
    e708:	e58dc000 	str	ip, [sp]
    e70c:	ebfffe6d 	bl	e0c8 <memmove>
    e710:	e59dc000 	ldr	ip, [sp]
    e714:	eaffffeb 	b	e6c8 <_realloc_r+0x4bc>
    e718:	40000100 	.word	0x40000100

0000e71c <__sclose>:
    e71c:	e1d110fe 	ldrsh	r1, [r1, #14]
    e720:	eaffe33d 	b	741c <_close_r>

0000e724 <__sseek>:
    e724:	e92d4010 	push	{r4, lr}
    e728:	e1a04001 	mov	r4, r1
    e72c:	e1d110fe 	ldrsh	r1, [r1, #14]
    e730:	ebffe33b 	bl	7424 <_lseek_r>
    e734:	e3700001 	cmn	r0, #1	; 0x1
    e738:	01d430bc 	ldrheq	r3, [r4, #12]
    e73c:	11d430bc 	ldrhne	r3, [r4, #12]
    e740:	03c33a01 	biceq	r3, r3, #4096	; 0x1000
    e744:	13833a01 	orrne	r3, r3, #4096	; 0x1000
    e748:	01c430bc 	strheq	r3, [r4, #12]
    e74c:	11c430bc 	strhne	r3, [r4, #12]
    e750:	15840050 	strne	r0, [r4, #80]
    e754:	e8bd8010 	pop	{r4, pc}

0000e758 <__swrite>:
    e758:	e92d40f0 	push	{r4, r5, r6, r7, lr}
    e75c:	e1a04001 	mov	r4, r1
    e760:	e1d110bc 	ldrh	r1, [r1, #12]
    e764:	e3110c01 	tst	r1, #256	; 0x100
    e768:	e1a06002 	mov	r6, r2
    e76c:	e1a07003 	mov	r7, r3
    e770:	e1a05000 	mov	r5, r0
    e774:	0a000004 	beq	e78c <__swrite+0x34>
    e778:	e1d410fe 	ldrsh	r1, [r4, #14]
    e77c:	e3a02000 	mov	r2, #0	; 0x0
    e780:	e3a03002 	mov	r3, #2	; 0x2
    e784:	ebffe326 	bl	7424 <_lseek_r>
    e788:	e1d410bc 	ldrh	r1, [r4, #12]
    e78c:	e3c13a01 	bic	r3, r1, #4096	; 0x1000
    e790:	e1d410fe 	ldrsh	r1, [r4, #14]
    e794:	e1c430bc 	strh	r3, [r4, #12]
    e798:	e1a00005 	mov	r0, r5
    e79c:	e1a02006 	mov	r2, r6
    e7a0:	e1a03007 	mov	r3, r7
    e7a4:	e8bd40f0 	pop	{r4, r5, r6, r7, lr}
    e7a8:	eaffe33a 	b	7498 <_write_r>

0000e7ac <__sread>:
    e7ac:	e92d4010 	push	{r4, lr}
    e7b0:	e1a04001 	mov	r4, r1
    e7b4:	e1d110fe 	ldrsh	r1, [r1, #14]
    e7b8:	ebffe345 	bl	74d4 <_read_r>
    e7bc:	e3500000 	cmp	r0, #0	; 0x0
    e7c0:	a5943050 	ldrge	r3, [r4, #80]
    e7c4:	b1d430bc 	ldrhlt	r3, [r4, #12]
    e7c8:	a0833000 	addge	r3, r3, r0
    e7cc:	b3c33a01 	biclt	r3, r3, #4096	; 0x1000
    e7d0:	a5843050 	strge	r3, [r4, #80]
    e7d4:	b1c430bc 	strhlt	r3, [r4, #12]
    e7d8:	e8bd8010 	pop	{r4, pc}

0000e7dc <_fclose_r>:
    e7dc:	e92d4070 	push	{r4, r5, r6, lr}
    e7e0:	e2514000 	subs	r4, r1, #0	; 0x0
    e7e4:	e1a05000 	mov	r5, r0
    e7e8:	01a06004 	moveq	r6, r4
    e7ec:	0a00002b 	beq	e8a0 <_fclose_r+0xc4>
    e7f0:	ebfffaf7 	bl	d3d4 <__sfp_lock_acquire>
    e7f4:	e3550000 	cmp	r5, #0	; 0x0
    e7f8:	0a000002 	beq	e808 <_fclose_r+0x2c>
    e7fc:	e5953038 	ldr	r3, [r5, #56]
    e800:	e3530000 	cmp	r3, #0	; 0x0
    e804:	0a00002b 	beq	e8b8 <_fclose_r+0xdc>
    e808:	e1d400fc 	ldrsh	r0, [r4, #12]
    e80c:	e3500000 	cmp	r0, #0	; 0x0
    e810:	0a000024 	beq	e8a8 <_fclose_r+0xcc>
    e814:	e1a00005 	mov	r0, r5
    e818:	e1a01004 	mov	r1, r4
    e81c:	ebfffa2e 	bl	d0dc <_fflush_r>
    e820:	e594302c 	ldr	r3, [r4, #44]
    e824:	e3530000 	cmp	r3, #0	; 0x0
    e828:	e1a06000 	mov	r6, r0
    e82c:	0a000005 	beq	e848 <_fclose_r+0x6c>
    e830:	e1a00005 	mov	r0, r5
    e834:	e594101c 	ldr	r1, [r4, #28]
    e838:	e1a0e00f 	mov	lr, pc
    e83c:	e12fff13 	bx	r3
    e840:	e3500000 	cmp	r0, #0	; 0x0
    e844:	b3e06000 	mvnlt	r6, #0	; 0x0
    e848:	e1d430bc 	ldrh	r3, [r4, #12]
    e84c:	e3130080 	tst	r3, #128	; 0x80
    e850:	1a00001e 	bne	e8d0 <_fclose_r+0xf4>
    e854:	e5941030 	ldr	r1, [r4, #48]
    e858:	e3510000 	cmp	r1, #0	; 0x0
    e85c:	0a000005 	beq	e878 <_fclose_r+0x9c>
    e860:	e2843040 	add	r3, r4, #64	; 0x40
    e864:	e1510003 	cmp	r1, r3
    e868:	11a00005 	movne	r0, r5
    e86c:	1bfffb7a 	blne	d65c <_free_r>
    e870:	e3a03000 	mov	r3, #0	; 0x0
    e874:	e5843030 	str	r3, [r4, #48]
    e878:	e5941044 	ldr	r1, [r4, #68]
    e87c:	e3510000 	cmp	r1, #0	; 0x0
    e880:	0a000003 	beq	e894 <_fclose_r+0xb8>
    e884:	e1a00005 	mov	r0, r5
    e888:	ebfffb73 	bl	d65c <_free_r>
    e88c:	e3a03000 	mov	r3, #0	; 0x0
    e890:	e5843044 	str	r3, [r4, #68]
    e894:	e3a03000 	mov	r3, #0	; 0x0
    e898:	e1c430bc 	strh	r3, [r4, #12]
    e89c:	ebfffacd 	bl	d3d8 <__sfp_lock_release>
    e8a0:	e1a00006 	mov	r0, r6
    e8a4:	e8bd8070 	pop	{r4, r5, r6, pc}
    e8a8:	e1a06000 	mov	r6, r0
    e8ac:	ebfffac9 	bl	d3d8 <__sfp_lock_release>
    e8b0:	e1a00006 	mov	r0, r6
    e8b4:	e8bd8070 	pop	{r4, r5, r6, pc}
    e8b8:	e1a00005 	mov	r0, r5
    e8bc:	ebfffa7d 	bl	d2b8 <__sinit>
    e8c0:	e1d400fc 	ldrsh	r0, [r4, #12]
    e8c4:	e3500000 	cmp	r0, #0	; 0x0
    e8c8:	1affffd1 	bne	e814 <_fclose_r+0x38>
    e8cc:	eafffff5 	b	e8a8 <_fclose_r+0xcc>
    e8d0:	e1a00005 	mov	r0, r5
    e8d4:	e5941010 	ldr	r1, [r4, #16]
    e8d8:	ebfffb5f 	bl	d65c <_free_r>
    e8dc:	eaffffdc 	b	e854 <_fclose_r+0x78>

0000e8e0 <fclose>:
    e8e0:	e59f3008 	ldr	r3, [pc, #8]	; e8f0 <fclose+0x10>
    e8e4:	e1a01000 	mov	r1, r0
    e8e8:	e5930000 	ldr	r0, [r3]
    e8ec:	eaffffba 	b	e7dc <_fclose_r>
    e8f0:	40000514 	.word	0x40000514

0000e8f4 <__end_of_prog__>:
    e8f4:	41909a80 	.word	0x41909a80
    e8f8:	808f418e 	.word	0x808f418e
    e8fc:	49454545 	.word	0x49454545
    e900:	8f8e4949 	.word	0x8f8e4949
    e904:	4f929290 	.word	0x4f929290
    e908:	55554f99 	.word	0x55554f99
    e90c:	9b9a9959 	.word	0x9b9a9959
    e910:	9f9e9d9c 	.word	0x9f9e9d9c
    e914:	554f4941 	.word	0x554f4941
    e918:	a7a6a5a5 	.word	0xa7a6a5a5
    e91c:	abaaa9a8 	.word	0xabaaa9a8
    e920:	afae21ac 	.word	0xafae21ac
    e924:	b3b2b1b0 	.word	0xb3b2b1b0
    e928:	b7b6b5b4 	.word	0xb7b6b5b4
    e92c:	bbbab9b8 	.word	0xbbbab9b8
    e930:	bfbebdbc 	.word	0xbfbebdbc
    e934:	c3c2c1c0 	.word	0xc3c2c1c0
    e938:	c7c6c5c4 	.word	0xc7c6c5c4
    e93c:	cbcac9c8 	.word	0xcbcac9c8
    e940:	cfcecdcc 	.word	0xcfcecdcc
    e944:	d3d2d1d0 	.word	0xd3d2d1d0
    e948:	d7d6d5d4 	.word	0xd7d6d5d4
    e94c:	dbdad9d8 	.word	0xdbdad9d8
    e950:	dfdedddc 	.word	0xdfdedddc
    e954:	e3e2e1e0 	.word	0xe3e2e1e0
    e958:	e7e6e5e4 	.word	0xe7e6e5e4
    e95c:	ebeae9e8 	.word	0xebeae9e8
    e960:	efeeedec 	.word	0xefeeedec
    e964:	f3f2f1f0 	.word	0xf3f2f1f0
    e968:	f7f6f5f4 	.word	0xf7f6f5f4
    e96c:	fbfaf9f8 	.word	0xfbfaf9f8
    e970:	fffefdfc 	.word	0xfffefdfc

0000e974 <LfnOfs>:
    e974:	07050301 12100e09 1c181614 0041001e              ..............

0000e982 <tbl_upper.1502>:
    e982:	00420041 00440043 00460045 00480047     A.B.C.D.E.F.G.H.
    e992:	004a0049 004c004b 004e004d 0050004f     I.J.K.L.M.N.O.P.
    e9a2:	00520051 00540053 00560055 00580057     Q.R.S.T.U.V.W.X.
    e9b2:	005a0059 ffe00021 ffe5ffe1 ffe3ffe2     Y.Z.!...........
    e9c2:	00c100c0 00c300c2 00c500c4 00c700c6     ................
    e9d2:	00c900c8 00cb00ca 00cd00cc 00cf00ce     ................
    e9e2:	00d100d0 00d300d2 00d500d4 00d800d6     ................
    e9f2:	00da00d9 00dc00db 00de00dd 01000178     ............x...
    ea02:	01040102 01080106 010c010a 0110010e     ................
    ea12:	01140112 01180116 011c011a 0120011e     .............. .
    ea22:	01240122 01280126 012c012a 0130012e     ".$.&.(.*.,...0.
    ea32:	01340132 01390136 013d013b 0141013f     2.4.6.9.;.=.?.A.
    ea42:	01450143 014a0147 014e014c 01520150     C.E.G.J.L.N.P.R.
    ea52:	01560154 015a0158 015e015c 01620160     T.V.X.Z.\.^.`.b.
    ea62:	01660164 016a0168 016e016c 01720170     d.f.h.j.l.n.p.r.
    ea72:	01760174 017b0179 0191017d 03920391     t.v.y.{.}.......
    ea82:	03940393 03960395 03980397 039a0399     ................
    ea92:	039c039b 039e039d 03a0039f 03a303a1     ................
    eaa2:	03a503a4 03a703a6 03a903a8 041003aa     ................
    eab2:	04120411 04140413 04160415 04180417     ................
    eac2:	041a0419 041c041b 041e041d 0420041f     .............. .
    ead2:	04220421 04240423 04260425 04280427     !.".#.$.%.&.'.(.
    eae2:	042a0429 042c042b 042e042d 0401042f     ).*.+.,.-.../...
    eaf2:	04030402 04050404 04070406 04090408     ................
    eb02:	040b040a 040e040c 2160040f 21622161     ..........`!a!b!
    eb12:	21642163 21662165 21682167 216a2169     c!d!e!f!g!h!i!j!
    eb22:	216c216b 216e216d ff21216f ff23ff22     k!l!m!n!o!!.".#.
    eb32:	ff25ff24 ff27ff26 ff29ff28 ff2bff2a     $.%.&.'.(.).*.+.
    eb42:	ff2dff2c ff2fff2e ff31ff30 ff33ff32     ,.-.../.0.1.2.3.
    eb52:	ff35ff34 ff37ff36 ff39ff38 0000ff3a     4.5.6.7.8.9.:...

0000eb62 <tbl_lower.1501>:
    eb62:	00620061 00640063 00660065 00680067     a.b.c.d.e.f.g.h.
    eb72:	006a0069 006c006b 006e006d 0070006f     i.j.k.l.m.n.o.p.
    eb82:	00720071 00740073 00760075 00780077     q.r.s.t.u.v.w.x.
    eb92:	007a0079 00a200a1 00a500a3 00af00ac     y.z.............
    eba2:	00e100e0 00e300e2 00e500e4 00e700e6     ................
    ebb2:	00e900e8 00eb00ea 00ed00ec 00ef00ee     ................
    ebc2:	00f100f0 00f300f2 00f500f4 00f800f6     ................
    ebd2:	00fa00f9 00fc00fb 00fe00fd 010100ff     ................
    ebe2:	01050103 01090107 010d010b 0111010f     ................
    ebf2:	01150113 01190117 011d011b 0121011f     ..............!.
    ec02:	01250123 01290127 012d012b 0131012f     #.%.'.).+.-./.1.
    ec12:	01350133 013a0137 013e013c 01420140     3.5.7.:.<.>.@.B.
    ec22:	01460144 014b0148 014f014d 01530151     D.F.H.K.M.O.Q.S.
    ec32:	01570155 015b0159 015f015d 01630161     U.W.Y.[.]._.a.c.
    ec42:	01670165 016b0169 016f016d 01730171     e.g.i.k.m.o.q.s.
    ec52:	01770175 017c017a 0192017e 03b203b1     u.w.z.|.~.......
    ec62:	03b403b3 03b603b5 03b803b7 03ba03b9     ................
    ec72:	03bc03bb 03be03bd 03c003bf 03c303c1     ................
    ec82:	03c503c4 03c703c6 03c903c8 043003ca     ..............0.
    ec92:	04320431 04340433 04360435 04380437     1.2.3.4.5.6.7.8.
    eca2:	043a0439 043c043b 043e043d 0440043f     9.:.;.<.=.>.?.@.
    ecb2:	04420441 04440443 04460445 04480447     A.B.C.D.E.F.G.H.
    ecc2:	044a0449 044c044b 044e044d 0451044f     I.J.K.L.M.N.O.Q.
    ecd2:	04530452 04550454 04570456 04590458     R.S.T.U.V.W.X.Y.
    ece2:	045b045a 045e045c 2170045f 21722171     Z.[.\.^._.p!q!r!
    ecf2:	21742173 21762175 21782177 217a2179     s!t!u!v!w!x!y!z!
    ed02:	217c217b 217e217d ff41217f ff43ff42     {!|!}!~!.!A.B.C.
    ed12:	ff45ff44 ff47ff46 ff49ff48 ff4bff4a     D.E.F.G.H.I.J.K.
    ed22:	ff4dff4c ff4fff4e ff51ff50 ff53ff52     L.M.N.O.P.Q.R.S.
    ed32:	ff55ff54 ff57ff56 ff59ff58 0000ff5a     T.U.V.W.X.Y.Z...

0000ed42 <Tbl>:
    ed42:	00fc00c7 00e200e9 00e000e4 00e700e5     ................
    ed52:	00eb00ea 00ef00e8 00ec00ee 00c500c4     ................
    ed62:	00e600c9 00f400c6 00f200f6 00f900fb     ................
    ed72:	00d600ff 00a200dc 00a500a3 019220a7     ............. ..
    ed82:	00ed00e1 00fa00f3 00d100f1 00ba00aa     ................
    ed92:	231000bf 00bd00ac 00a100bc 00bb00ab     ...#............
    eda2:	25922591 25022593 25612524 25562562     .%.%.%.%$%a%b%V%
    edb2:	25632555 25572551 255c255d 2510255b     U%c%Q%W%]%\%[%.%
    edc2:	25342514 251c252c 253c2500 255f255e     .%4%,%.%.%<%^%_%
    edd2:	2554255a 25662569 25502560 2567256c     Z%T%i%f%`%P%l%g%
    ede2:	25642568 25592565 25522558 256b2553     h%d%e%Y%X%R%S%k%
    edf2:	2518256a 2588250c 258c2584 25802590     j%.%.%.%.%.%.%.%
    ee02:	00df03b1 03c00393 03c303a3 03c400b5     ................
    ee12:	039803a6 03b403a9 03c6221e 222903b5     ........."....)"
    ee22:	00b12261 22642265 23212320 224800f7     a"..e"d" #!#..H"
    ee32:	221900b0 221a00b7 00b2207f 00a025a0     ..."...". ...%..

0000ee42 <MP3_Bitrates>:
    ee42:	0c080400 1c181410 38302820 00504840     ........ (08@HP.
    ee52:	18141000 3028201c 60504038 00a08070     ..... (08@P`p...

0000ee62 <MP3_SamplingFrequencies>:
    ee62:	00080c0b 00000000 00101816 0020302c     ............,0 .

0000ee72 <STA013_UpdateData>:
    ee72:	042a013a 00290028 00210020 00230022     :.*.(.). .!.".#.
    ee82:	00250024 00270026 02280128 03288f21     $.%.&.'.(.(.!.(.
    ee92:	04280021 06280528 08280728 0a280928     !.(.(.(.(.(.(.(.
    eea2:	0c280b28 90218020 00200d28 0e280021     (.(. .!.(. .!.(.
    eeb2:	91218120 00200f28 10289221 11280021      .!.(. .!.(.!.(.
    eec2:	12289321 13280021 15281428 16288220     !.(.!.(.(.(. .(.
    eed2:	17280020 19281828 1a289421 1b289521      .(.(.(.!.(.!.(.
    eee2:	1c289621 1d280021 1e288320 1f280020     !.(.!.(. .(. .(.
    eef2:	20289721 21280021 23282228 25282428     !.( !.(!("(#($(%
    ef02:	27282628 29282828 84202a28 00202b28     (&('((()(* .(+ .
    ef12:	2d282c28 2f282e28 31283028 85203228     (,(-(.(/(0(1(2 .
    ef22:	00203328 35283428 37283628 38289821     (3 .(4(5(6(7!.(8
    ef32:	39280021 3b283a28 3d283c28 3f283e28     !.(9(:(;(<(=(>(?
    ef42:	41284028 43284228 45284428 47284628     (@(A(B(C(D(E(F(G
    ef52:	49284828 4b284a28 4d284c28 4f284e28     (H(I(J(K(L(M(N(O
    ef62:	51285028 53285228 55285428 57285628     (P(Q(R(S(T(U(V(W
    ef72:	59285828 5b285a28 5d285c28 5f285e28     (X(Y(Z([(\(](^(_
    ef82:	61286028 99216228 00216328 65286428     (`(a(b!.(c!.(d(e
    ef92:	67286628 69286828 6b286a28 6d286c28     (f(g(h(i(j(k(l(m
    efa2:	6f286e28 71287028 73287228 75287428     (n(o(p(q(r(s(t(u
    efb2:	77287628 79287828 7b287a28 7d287c28     (v(w(x(y(z({(|(}
    efc2:	7f287e28 81288028 83288228 85288428     (~(.(.(.(.(.(.(.
    efd2:	87288628 89288828 8b288a28 8d288c28     (.(.(.(.(.(.(.(.
    efe2:	8f288e28 91289028 92288620 93288720     (.(.(.(. .(. .(.
    eff2:	94280020 96289528 98289728 9a289928      .(.(.(.(.(.(.(.
    f002:	9c289b28 9e289d28 9a219f28 0021a028     (.(.(.(.(.!.(.!.
    f012:	a228a128 a428a328 a628a528 a828a728     (.(.(.(.(.(.(.(.
    f022:	aa28a928 ac28ab28 ae28ad28 b028af28     (.(.(.(.(.(.(.(.
    f032:	b228b128 b428b328 b628b528 b828b728     (.(.(.(.(.(.(.(.
    f042:	8820b928 0020ba28 8920bb28 0020bc28     (. .(. .(. .(. .
    f052:	be28bd28 c028bf28 c228c128 9b21c328     (.(.(.(.(.(.(.!.
    f062:	0021c428 c628c528 c828c728 ca28c928     (.!.(.(.(.(.(.(.
    f072:	cc28cb28 ce28cd28 d028cf28 d228d128     (.(.(.(.(.(.(.(.
    f082:	d428d328 d628d528 d828d728 da28d928     (.(.(.(.(.(.(.(.
    f092:	dc28db28 de28dd28 e028df28 8a20e128     (.(.(.(.(.(.(. .
    f0a2:	8b20e228 0020e328 e528e428 e728e628     (. .(. .(.(.(.(.
    f0b2:	e928e828 eb28ea28 ed28ec28 ef28ee28     (.(.(.(.(.(.(.(.
    f0c2:	f128f028 f328f228 f528f428 f728f628     (.(.(.(.(.(.(.(.
    f0d2:	8c20f828 0020f928 fa289c21 fb289d21     (. .(. .!.(.!.(.
    f0e2:	9e218d20 8e20fc28 fd289f21 00210020      .!.(. .!.(. .!.
    f0f2:	ff28fe28 0028012a 95230122 07258924     (.(.*.(.".#.$.%.
    f102:	0727a426 c7210128 80230022 0c27c426     &.'.(.!.".#.&.'.
    f112:	09200228 04221c21 0a27aa26 00200328     (. .!.".&.'.(. .
    f122:	00220021 a026a623 04280727 05200528     !.".#.&.'.(.(. .
    f132:	b4268423 06280927 03220020 81240023     #.&.'.(. .".#.$.
    f142:	ab26c025 07280a27 0022ae21 89249523     %.&.'.(.!.".#.$.
    f152:	a4260725 08280027 01224821 c4268023     %.&.'.(.!H".#.&.
    f162:	09280c27 04210920 aa260422 0a280a27     '.(. .!.".&.'.(.
    f172:	00210020 a8230022 0727a426 0c280b28      .!.".#.&.'.(.(.
    f182:	20224021 c4268023 0d280c27 c6262422     !@" #.&.'.(."$&.
    f192:	9e210e28 c8260022 09200f28 14220221     (.!.".&.(. .!.".
    f1a2:	0a27aa26 05201028 00220021 b4268423     &.'.(. .!.".#.&.
    f1b2:	11280927 01210020 01240023 ab26c025     '.(. .!.#.$.%.&.
    f1c2:	12280a27 9523c321 07258924 00272026     '.(.!.#.$.%.& '.
    f1d2:	03201328 8323c221 0d272626 b3211428     (. .!.#.&&'.(.!.
    f1e2:	15280822 c6210020 95230022 08270026     ".(. .!.".#.&.'.
    f1f2:	00211628 96240023 aa260325 17280a27     (.!.#.$.%.&.'.(.
    f202:	b6214220 89248023 18280725 00210020      B!.#.$.%.(. .!.
    f212:	0e269423 0f201928 b4268423 1a280927     #.&.(. .#.&.'.(.
    f222:	93230020 0327a826 28261b28 1c280027      .#.&.'.(.&('.(.
    f232:	00230121 c0250124 0a27ab26 c5211d28     !.#.$.%.&.'.(.!.
    f242:	89249523 20260725 1e280027 94230021     #.$.%.& '.(.!.#.
    f252:	0a270026 0e261f28 03202028 01227921     &.'.(.&.(  .!y".
    f262:	26268323 21280d27 22283221 04210020     #.&&'.(!!2(" .!.
    f272:	80230022 fc250024 0a27aa26 00212328     ".#.$.%.&.'.(#!.
    f282:	00250023 a3212428 80230d22 3b259e24     #.%.($!.".#.$.%;
    f292:	42202528 01225721 07258924 00202628     (% B!W".$.%.(& .
    f2a2:	0d224321 38250024 08212728 95239822     !C".$.%8('!.".#.
    f2b2:	07258924 00272426 42202828 01229321     $.%.&$'.(( B!.".
    f2c2:	aa268023 29280a27 7e210320 83230422     #.&.'.() .!~".#.
    f2d2:	0d272626 00202a28 0022b021 a0269523     &&'.(* .!.".#.&.
    f2e2:	2b280727 00230021 04250c24 0a27aa26     '.(+!.#.$.%.&.'.
    f2f2:	02212c28 86248023 ab26c325 42202d28     (,!.#.$.%.&.(- B
    f302:	01229721 07258924 2e28aa26 00210020     !.".$.%.&.(. .!.
    f312:	1f240022 2f280425 9523b221 07258924     ".$.%.(/!.#.$.%.
    f322:	04272026 42203028 04228b21 aa268023     & '.(0 B!.".#.&.
    f332:	31280a27 b1210020 95230022 0727a026     '.(1 .!.".#.&.'.
    f342:	03203228 04227521 26268323 33280d27     (2 .!u".#.&&'.(3
    f352:	00210520 84230022 0927b426 00203428      .!.".#.&.'.(4 .
    f362:	00236021 c0250124 0a27ab26 08213528     !`#.$.%.&.'.(5!.
    f372:	95239822 07258924 00272426 bc213628     ".#.$.%.&$'.(6!.
    f382:	37280022 0d22a321 01240023 ab26c025     ".(7!.".#.$.%.&.
    f392:	38280a27 00226021 00248023 aa263825     '.(8!`".#.$.%8&.
    f3a2:	06213928 95239822 07258924 00272426     (9!.".#.$.%.&$'.
    f3b2:	be213a28 3b280022 00210520 b4268423     (:!.".(; .!.#.&.
    f3c2:	3c280927 60210020 01240023 ab26c025     '.(< .!`#.$.%.&.
    f3d2:	3d280a27 01224221 89249523 24260725     '.(=!B".#.$.%.&$
    f3e2:	3e280027 98220c21 0727a426 08213f28     '.(>!.".&.'.(?!.
    f3f2:	60214028 00230022 c0250124 0a27ab26     (@!`".#.$.%.&.'.
    f402:	0c214128 95239822 07258924 00272426     (A!.".#.$.%.&$'.
    f412:	05204228 00220021 b4268423 43280927     (B .!.".#.&.'.(C
    f422:	80230020 10250024 0a27ab26 22214428      .#.$.%.&.'.(D!"
    f432:	95230122 07258924 00272426 00214528     ".#.$.%.&$'.(E!.
    f442:	00230022 12250424 0a27aa26 03204628     ".#.$.%.&.'.(F .
    f452:	0522d421 89248323 26260725 47280d27     !.".#.$.%.&&'.(G
    f462:	60210020 00230022 c0250124 0a27ab26      .!`".#.$.%.&.'.
    f472:	b3214828 89249523 00260725 49280827     (H!.#.$.%.&.'.(I
    f482:	00230021 00250924 0a27aa26 02214a28     !.#.$.%.&.'.(J!.
    f492:	86248023 4b283b25 dd214220 89240522     #.$.%;(K B!.".$.
    f4a2:	4c280725 00210020 1f240022 4d280025     %.(L .!.".$.%.(M
    f4b2:	9523b321 07258924 00272026 00214e28     !.#.$.%.& '.(N!.
    f4c2:	97240023 aa260325 4f280a27 e2214220     #.$.%.&.'.(O B!.
    f4d2:	80230522 07258924 00205028 00221021     ".#.$.%.(P .!.".
    f4e2:	80240023 ab26cc25 00215128 b4234022     #.$.%.&.(Q!."@#.
    f4f2:	07258924 0427aa26 00225228 9226b023     $.%.&.'.(R".#.&.
    f502:	53280927 01221421 00269523 54280827     '.(S!.".#.&.'.(T
    f512:	a4234821 00272a26 00215528 00230022     !H#.&*'.(U!.".#.
    f522:	00250924 0a27aa26 08215628 86248023     $.%.&.'.(V!.#.$.
    f532:	57283b25 11214220 89240722 58280725     %;(W B!.".$.%.(X
    f542:	00210020 1f240022 59280025 01221421      .!.".$.%.(Y!.".
    f552:	89249523 20260725 5a280027 02261621     #.$.%.& '.(Z!.&.
    f562:	5b280927 00220021 80240023 aa264825     '.([!.".#.$.%H&.
    f572:	5c280a27 8924a023 14260725 5d280927     '.(\#.$.%.&.'.(]
    f582:	50258024 0427a426 16215e28 95230122     $.%P&.'.(^!.".#.
    f592:	07258924 5f280027 00220421 9c240023     $.%.'.(_!.".#.$.
    f5a2:	aa267825 60280a27 0d224321 c4250124     %x&.'.(`!C".$.%.
    f5b2:	6128ab26 00220321 62281524 00240021     &.(a!.".$.(b!.$.
    f5c2:	aa260025 5e216328 89249523 10260725     %.&.(c!^#.$.%.&.
    f5d2:	64280927 00230321 c4251524 0a27ab26     '.(d!.#.$.%.&.'.
    f5e2:	00216528 00248023 aa260625 8f246628     (e!.#.$.%.&.(f$.
    f5f2:	ab26e325 42206728 0722cd21 07258924     %.&.(g B!.".$.%.
    f602:	6828aa26 60210020 00230022 c0250124     &.(h .!`".#.$.%.
    f612:	6928ab26 80230021 03258f24 6a28aa26     &.(i!.#.$.%.&.(j
    f622:	dd214220 89240722 6b280725 43210020      B!.".$.%.(k .!C
    f632:	00230d22 c0250124 6c28ab26 00220021     ".#.$.%.&.(l!.".
    f642:	04250024 6d28aa26 7f210320 83230122     $.%.&.(m .!.".#.
    f652:	07258924 0d272626 62216e28 05206f28     $.%.&&'.(n!b(o .
    f662:	00220021 b4268423 70280927 06210020     !.".#.&.'.(p .!.
    f672:	00269523 71280827 00230121 3b259724     #.&.'.(q!.#.$.%;
    f682:	0a27aa26 42207228 08220e21 89248023     &.'.(r B!.".#.$.
    f692:	73280725 3c210320 83230b22 0d272626     %.(s .!<".#.&&'.
    f6a2:	00207428 00220321 02269523 75280827     (t .!.".#.&.'.(u
    f6b2:	00232721 c4258124 0a27ab26 00217628     !'#.$.%.&.'.(v!.
    f6c2:	09248023 aa264825 58217728 a3233422     #.$.%H&.(w!X"4#.
    f6d2:	07258924 00272a26 00217828 a0230022     $.%.&*'.(x!.".#.
    f6e2:	09270026 07217928 03248023 aa263925     &.'.(y!.#.$.%9&.
    f6f2:	7a280a27 00230421 38251c24 07217b28     '.(z!.#.$.%8({!.
    f702:	83248023 7c283925 95230321 07258924     #.$.%9(|!.#.$.%.
    f712:	08270226 27217d28 81240023 ab26c425     &.'.(}!'#.$.%.&.
    f722:	7e280a27 80230021 48250924 7f28aa26     '.(~!.#.$.%H&.(.
    f732:	34225821 8924a323 2a260725 80280027     !X"4#.$.%.&*'.(.
    f742:	00220621 81240023 9326c025 81280127     !.".#.$.%.&.'.(.
    f752:	80230021 48258924 0a27aa26 02208228     !.#.$.%H&.'.(. .
    f762:	08226621 00240023 83286625 00210020     !f".#.$.%f(. .!.
    f772:	80230022 02251f24 06218428 07258924     ".#.$.%.(.!.$.%.
    f782:	0c27dc26 00218528 aa26aa23 86280a27     &.'.(.!.#.&.'.(.
    f792:	0026b623 87280827 86248023 aa263b25     #.&.'.(.#.$.%;&.
    f7a2:	88280a27 89240521 dc260725 89280c27     '.(.!.$.%.&.'.(.
    f7b2:	aa230021 0a27aa26 b6238a28 08270026     !.#.&.'.(.#.&.'.
    f7c2:	80238b28 3b258624 0a27aa26 42208c28     (.#.$.%;&.'.(. B
    f7d2:	08227b21 07258924 00208d28 00220021     !{".$.%.(. .!.".
    f7e2:	01240023 8e288225 81240521 ab26c225     #.$.%.(.!.$.%.&.
    f7f2:	03208f28 08229321 89248323 26260725     (. .!.".#.$.%.&&
    f802:	90280d27 05210020 00230022 c0258124     '.(. .!.".#.$.%.
    f812:	01271326 00219128 89248023 aa264825     &.'.(.!.#.$.%H&.
    f822:	92280a27 7e210220 00230822 66250024     '.(. .!~".#.$.%f
    f832:	00209328 00220021 1f248023 94280225     (. .!.".#.$.%.(.
    f842:	89240521 dc260725 95280c27 aa230021     !.$.%.&.'.(.!.#.
    f852:	0a27aa26 b6239628 08270026 80239728     &.'.(.#.&.'.(.#.
    f862:	3b258624 0a27aa26 05219828 07258924     $.%;&.'.(.!.$.%.
    f872:	0c27dc26 00219928 aa26aa23 9a280a27     &.'.(.!.#.&.'.(.
    f882:	1f248023 9b280225 00230121 c2258124     #.$.%.(.!.#.$.%.
    f892:	9c28ab26 93210320 83230822 07258924     &.(. .!.".#.$.%.
    f8a2:	0d272626 00209d28 00220421 12269523     &&'.(. .!.".#.&.
    f8b2:	9e280827 c4236021 0427aa26 00219f28     '.(.!`#.&.'.(.!.
    f8c2:	0026c023 a0280927 cb214220 80230822     #.&.'.(. B!.".#.
    f8d2:	0a27aa26 7020a128 b8225421 12269523     &.'.(. p!T".#.&.
    f8e2:	a2280827 cc210220 80230822 0a27aa26     '.(. .!.".#.&.'.
    f8f2:	0320a328 0f22ca21 26268323 a4280d27     (. .!.".#.&&'.(.
    f902:	00210020 00230022 0c258c24 0a27aa26      .!.".#.$.%.&.'.
    f912:	0421a528 78258224 0021a628 89248023     (.!.$.%x(.!.#.$.
    f922:	12264825 a7280427 de210320 83230f22     %H&.'.(. .!.".#.
    f932:	26260725 a8280d27 01210020 00230022     %.&&'.(. .!.".#.
    f942:	78259c24 0a27aa26 0021a928 81248023     $.%x&.'.(.!.#.$.
    f952:	aa284025 cf210320 83230f22 07258924     %@(. .!.".#.$.%.
    f962:	0d272626 7020ab28 b8220821 a0269523     &&'.(. p!.".#.&.
    f972:	ac280427 d4210320 83230f22 0d272626     '.(. .!.".#.&&'.
    f982:	2721ad28 ae280b22 63217020 9523b822     (.!'".(. p!c".#.
    f992:	08271226 0020af28 00220121 86248023     &.'.(. .!.".#.$.
    f9a2:	ab26cb25 b0280a27 dd214220 89240822     %.&.'.(. B!.".$.
    f9b2:	aa260725 0020b128 80221821 a4269523     %.&.(. .!.".#.&.
    f9c2:	b2280027 d9210320 83230f22 0d272626     '.(. .!.".#.&&'.
    f9d2:	7020b328 b8220a21 a0269523 b4280027     (. p!.".#.&.'.(.
    f9e2:	e0210220 80230822 0a27aa26 7020b528      .!.".#.&.'.(. p
    f9f2:	b8220a21 a0269523 b6280027 02265421     !.".#.&.'.(.!T&.
    fa02:	b7280827 18210020 a4268022 b8280027     '.(. .!.".&.'.(.
    fa12:	00220021 80248023 aa264825 b9280a27     !.".#.$.%H&.'.(.
    fa22:	5e217020 9523b822 07258924 08271226      p!^".#.$.%.&.'.
    fa32:	0020ba28 00220021 09248023 aa264b25     (. .!.".#.$.%K&.
    fa42:	bb280a27 5f217020 9523b822 07258924     '.(. p!_".#.$.%.
    fa52:	08271026 0020bc28 00220021 1c240023     &.'.(. .!.".#.$.
    fa62:	ab268325 bd280a27 32210320 83230922     %.&.'.(. .!2".#.
    fa72:	07258924 0d272626 0020be28 00220021     $.%.&&'.(. .!.".
    fa82:	82240023 ab268c25 bf280a27 25210320     #.$.%.&.'.(. .!%
    fa92:	83230922 07258924 0d272626 4220c028     ".#.$.%.&&'.(. B
    faa2:	8023bc21 0a27aa26 0020c128 00220121     !.#.&.'.(. .!.".
    fab2:	01240023 ab26c025 7020c228 b8220f21     #.$.%.&.(. p!.".
    fac2:	89249523 20260725 c3280027 e3210320     #.$.%.& '.(. .!.
    fad2:	83230f22 0d272626 0520c428 00220021     ".#.&&'.(. .!.".
    fae2:	b4268423 c5280927 03210020 14269523     #.&.'.(. .!.#.&.
    faf2:	c6280827 a423a621 05272a26 0021c728     '.(.!.#.&*'.(.!.
    fb02:	4426a023 c8280927 6d221821 9e248023     #.&D'.(.!."m#.$.
    fb12:	aa267b25 c9280a27 13214220 89240b22     %{&.'.(. B!.".$.
    fb22:	ca280725 ae210020 95230022 00272426     %.(. .!.".#.&$'.
    fb32:	0021cb28 80230322 7b258724 0a27aa26     (.!.".#.$.%{&.'.
    fb42:	4220cc28 0b221621 07258924 0020cd28     (. B!.".$.%.(. .
    fb52:	0022ae21 24269523 ce280027 00210520     !.".#.&$'.(. .!.
    fb62:	b4268423 cf280927 0d210320 83230b22     #.&.'.(. .!.".#.
    fb72:	0d272626 0020d028 00220021 80240023     &&'.(. .!.".#.$.
    fb82:	00270226 8023d128 48250924 d2281e26     &.'.(.#.$.%H&.(.
    fb92:	34225821 80243323 2a260725 0021d328     !X"4#3$.%.&*(.!.
    fba2:	00230022 10278026 1021d428 2a266323     ".#.&.'.(.!.#c&*
    fbb2:	d5280027 60230021 1227a826 af21d628     '.(.!.#`&.'.(.!.
    fbc2:	00234c22 0c27c826 0021d728 80260022     "L#.&.'.(.!.".&.
    fbd2:	d8280527 86248023 1e263b25 d9280027     '.(.#.$.%;&.'.(.
    fbe2:	1c214220 00230e22 07258024 0020da28      B!.".#.$.%.(. .
    fbf2:	29223521 0c27c426 0220db28 0e221d21     !5")&.'.(. .!.".
    fc02:	00271e26 0020dc28 34227f21 0c27c426     &.'.(. .!."4&.'.
    fc12:	0021dd28 90230022 04259f24 0a271026     (.!.".#.$.%.&.'.
    fc22:	0023de28 00258424 10278026 0621df28     (.#.$.%.&.'.(.!.
    fc32:	80246323 2a260725 e0280027 80230021     #c$.%.&*'.(.!.#.
    fc42:	aa268924 e1280a27 84230520 0927b426     $.&.'.(. .#.&.'.
    fc52:	7020e228 b8226121 12269523 e3280827     (. p!a".#.&.'.(.
    fc62:	01210020 80230022 c3258624 0a27ab26      .!.".#.$.%.&.'.
    fc72:	4220e428 0f22ce21 07258924 e528aa26     (. B!.".$.%.&.(.
    fc82:	50217020 9523b822 08271226 0520e628      p!P".#.&.'.(. .
    fc92:	00220021 b4268423 e7280927 64217020     !.".#.&.'.(. p!d
    fca2:	9523b822 08271226 0020e828 00220121     ".#.&.'.(. .!.".
    fcb2:	86248023 ab26c325 e9280a27 d3214220     #.$.%.&.'.(. B!.
    fcc2:	89240f22 aa260725 7020ea28 b8225121     ".$.%.&.(. p!Q".
    fcd2:	12269523 eb280827 00210520 84230022     #.&.'.(. .!.".#.
    fce2:	0927b426 7020ec28 b8226521 12269523     &.'.(. p!e".#.&.
    fcf2:	ed280827 01210020 80230022 c3258624     '.(. .!.".#.$.%.
    fd02:	0a27ab26 4220ee28 0f22d821 07258924     &.'.(. B!.".$.%.
    fd12:	ef28aa26 52217020 9523b822 08271226     &.(. p!R".#.&.'.
    fd22:	0520f028 00220021 b4268423 f1280927     (. .!.".#.&.'.(.
    fd32:	61217020 9523b822 08270226 0020f228      p!a".#.&.'.(. .
    fd42:	00220121 86248023 ab26c325 f3280a27     !.".#.$.%.&.'.(.
    fd52:	dd214220 89240f22 aa260725 7020f428      B!.".$.%.&.(. p
    fd62:	b8225021 02269523 f5280827 00210520     !P".#.&.'.(. .!.
    fd72:	84230022 0927b426 0020f628 80230121     ".#.&.'.(. .!.#.
    fd82:	cb258624 0a27ab26 4220f728 0f22e121     $.%.&.'.(. B!.".
    fd92:	07258924 f828aa26 02210020 00230022     $.%.&.(. .!.".#.
    fda2:	c4258124 f928ab26 80230021 48258924     $.%.&.(.!.#.$.%H
    fdb2:	fa28aa26 84230520 b4260725 fb280927     &.(. .#.%.&.'.(.
    fdc2:	4e217020 9523b822 08271026 0020fc28      p!N".#.&.'.(. .
    fdd2:	00220021 86248023 ab26c325 fd280a27     !.".#.$.%.&.'.(.
    fde2:	e7214220 89240f22 aa260725 0020fe28      B!.".$.%.&.(. .
    fdf2:	0022bb21 20269523 ff280027 00210520     !.".#.& '.(. .!.
    fe02:	b4268423 082a0927 003a0110 bb653a64     #.&.'.*...:.d:e.
    fe12:	bb093a08 67521050 a1057751 ffff0418     .:..P.RgQw......

0000fe22 <__FUNCTION__.3329>:
    fe22:	74726175 a5004955                                uartUI.

0000fe29 <ucExpectedStackBytes.3141>:
    fe29:	a5a5a5a5 a5a5a5a5 a5a5a5a5 a5a5a5a5     ................
    fe39:	a5a5a5a5                                ....

0000fe3d <__clz_tab>:
    fe3d:	02020100 03030303 04040404 04040404     ................
    fe4d:	05050505 05050505 05050505 05050505     ................
    fe5d:	06060606 06060606 06060606 06060606     ................
    fe6d:	06060606 06060606 06060606 06060606     ................
    fe7d:	07070707 07070707 07070707 07070707     ................
    fe8d:	07070707 07070707 07070707 07070707     ................
    fe9d:	07070707 07070707 07070707 07070707     ................
    fead:	07070707 07070707 07070707 07070707     ................
    febd:	08080808 08080808 08080808 08080808     ................
    fecd:	08080808 08080808 08080808 08080808     ................
    fedd:	08080808 08080808 08080808 08080808     ................
    feed:	08080808 08080808 08080808 08080808     ................
    fefd:	08080808 08080808 08080808 08080808     ................
    ff0d:	08080808 08080808 08080808 08080808     ................
    ff1d:	08080808 08080808 08080808 08080808     ................
    ff2d:	08080808 08080808 08080808 08080808     ................

0000ff3d <zeroes.3199>:
    ff3d:	30303030 30303030 30303030 30303030     0000000000000000

0000ff4d <blanks.3198>:
    ff4d:	20202020 20202020 20202020 20202020                     

0000ff5d <_ctype_>:
    ff5d:	20202000 20202020 28282020 20282828     .         ((((( 
    ff6d:	20202020 20202020 20202020 20202020                     
    ff7d:	10108820 10101010 10101010 10101010      ...............
    ff8d:	04040410 04040404 10040404 10101010     ................
    ff9d:	41411010 41414141 01010101 01010101     ..AAAAAA........
    ffad:	01010101 01010101 01010101 10101010     ................
    ffbd:	42421010 42424242 02020202 02020202     ..BBBBBB........
    ffcd:	02020202 02020202 02020202 10101010     ................
    ffdd:	00000020 00000000 00000000 00000000      ...............
	...

00010060 <_global_impure_ptr>:
   10060:	40000518 746e6553 696b5320 000a2170     ...@Sent Skip!..
   10070:	656d6954 2074756f 69727564 5320676e     Timeout during S
   10080:	21646e65 000a2121 746e6553 78656e20     end!!!..Sent nex
   10090:	6f732074 616e676e 0a21656d 6e655300     t songname!..Sen
   100a0:	72502074 6f697665 0a217375 6e655300     t Previous!..Sen
   100b0:	72502074 6f697665 73207375 6e676e6f     t Previous songn
   100c0:	21656d61 6e4f000a 75622065 6e6f7474     ame!..One button
   100d0:	20746120 69742061 202c656d 61656c70      at a time, plea
   100e0:	2e2e6573 53000a2e 45545359 5243204d     se.....SYSTEM CR
   100f0:	21485341 616d000a 69206564 65682074     ASH!..made it he
   10100:	000a6572 74726155 00495520 6d697444     re..Uart UI.Dtim
   10110:	69007265 69546332 0072656d 4f525245     er.i2cTimer.ERRO
   10120:	20203a52 2054554f 4d20464f 524f4d45     R:  OUT OF MEMOR
   10130:	43203a59 6b636568 20534f20 63617453     Y: Check OS Stac
   10140:	6953206b 6f20657a 61742072 73206b73     k Size or task s
   10150:	6b636174 7a697320 000a2e65 202d2d0a     tack size....-- 
   10160:	72617453 676e6974 65724620 4f545265     Starting FreeRTO
   10170:	2d2d2053 5245000a 3a524f52 656e5520     S --..ERROR: Une
   10180:	63657078 20646574 4520534f 21746978     xpected OS Exit!
   10190:	6f53000a 7420676e 6c70206f 203a7961     ..Song to play: 
   101a0:	000a7325 656c6946 65706f20 2c64656e     %s..File opened,
   101b0:	6f626120 74207475 6c70206f 0a3a7961      about to play:.
   101c0:	72724500 7420726f 6e696b61 50532067     .Error taking SP
   101d0:	65732049 6870616d 2065726f 6c696877     I semaphore whil
   101e0:	6c702065 6e697961 706d2067 43000a33     e playing mp3..C
   101f0:	646c756f 2074276e 6e65706f 6c696620     ouldn't open fil
   10200:	000a2165 3c3a2a22 7f7c3f3e 3b2c2b00     e!.."*:<>?|..+,;
   10210:	005d5b3d 2d2d2d2d 654d202d 79726f6d     =[].----- Memory
   10220:	666e4920 616d726f 6e6f6974 2d2d2d20      Information ---
   10230:	000a2d2d 20202d2d 20202020 746f5420     --..--       Tot
   10240:	53206c61 6b636174 2025203a 2d207535     al Stack: % 5u -
   10250:	2d000a2d 4120202d 6f727070 55202e78     -..--  Approx. U
   10260:	20646573 3a6d654d 35202520 2d2d2075     sed Mem: % 5u --
   10270:	2d2d000a 70412020 786f7270 6548202e     ..--  Approx. He
   10280:	4d207061 203a6d65 75352025 0a2d2d20     ap Mem: % 5u --.
   10290:	564e4900 44494c41 4b494c00 00594c45     .INVALID.LIKELY.
   102a0:	7065520a 2074726f 696c6156 3a203f64     .Report Valid? :
   102b0:	202c7325 69676973 78303d6c 58383025     %s, sigil=0x%08X
   102c0:	6f63202c 3d746e75 000a7525 45444e55     , count=%u..UNDE
   102d0:	454e4946 4e492044 55525453 4f495443     FINED INSTRUCTIO
   102e0:	5250004e 54454645 41204843 54524f42     N.PREFETCH ABORT
   102f0:	6b6e7500 6e776f6e 54414400 42412041     .unknown.DATA AB
   10300:	0054524f 726f6241 79742074 203a6570     ORT.Abort type: 
   10310:	000a7325 50202a2a 78303d43 58383025     %s..** PC=0x%08X
   10320:	706f202c 65646f63 2578303d 20583830     , opcode=0x%08X 
   10330:	000a2a2a 4c202a2a 7461636f 61762065     **..** Locate va
   10340:	2065756c 5020666f 6e692043 756f7920     lue of PC in you
   10350:	2e2a2072 2074736c 656c6966 206f7420     r *.lst file to 
   10360:	646e6966 65687420 6f6f7220 61632074     find the root ca
   10370:	2e657375 0a2a2a20 7063000a 303d7273     use. **...cpsr=0
   10380:	38302578 73202c58 78303d70 58383025     x%08X, sp=0x%08X
   10390:	726c202c 2578303d 0a583830 3d307200     , lr=0x%08X..r0=
   103a0:	30257830 202c5838 303d3172 38302578     0x%08X, r1=0x%08
   103b0:	20202c58 303d3272 38302578 20202c58     X,  r2=0x%08X,  
   103c0:	303d3372 38302578 72000a58 78303d34     r3=0x%08X..r4=0x
   103d0:	58383025 3572202c 2578303d 2c583830     %08X, r5=0x%08X,
   103e0:	36722020 2578303d 2c583830 37722020       r6=0x%08X,  r7
   103f0:	2578303d 0a583830 3d387200 30257830     =0x%08X..r8=0x%0
   10400:	202c5838 303d3972 38302578 72202c58     8X, r9=0x%08X, r
   10410:	303d3031 38302578 72202c58 303d3131     10=0x%08X, r11=0
   10420:	38302578 72000a58 303d3231 38302578     x%08X..r12=0x%08
   10430:	000a0a58 305b7073 78303d5d 58383025     X...sp[0]=0x%08X
   10440:	7073202c 3d5d315b 30257830 202c5838     , sp[1]=0x%08X, 
   10450:	325b7073 78303d5d 58383025 7073202c     sp[2]=0x%08X, sp
   10460:	3d5d335b 30257830 000a5838 345b7073     [3]=0x%08X..sp[4
   10470:	78303d5d 58383025 7073202c 3d5d355b     ]=0x%08X, sp[5]=
   10480:	30257830 202c5838 365b7073 78303d5d     0x%08X, sp[6]=0x
   10490:	58383025 7073202c 3d5d375b 30257830     %08X, sp[7]=0x%0
   104a0:	0a0a5838 6c694b00 3f52206c 6547000a     8X...Kill R?..Ge
   104b0:	49502074 0a522064 52524500 0021524f     t PId R..ERROR!.
   104c0:	2008002e 2d2d0008 2d2d2d2d 2d2d2d2d     ... ..----------
   104d0:	2d2d2d2d 2d2d2d2d 2d2d2d2d 2d2d2d2d     ----------------
   104e0:	2d2d2d2d 2d2d2d2d 2d2d2d2d 2d2d2d2d     ----------------
   104f0:	2d2d2d2d 2d2d2d2d 2d2d2d2d 2d2d2d2d     ----------------
   10500:	2d2d2d2d 2d2d2d2d 2d2d2d2d 2d2d2d2d     ----------------
   10510:	2d2d2d2d 2d2d2d2d 000a2d2d 20756f59     ----------..You 
   10520:	20646964 20746f6e 61657263 61206574     did not create a
   10530:	5053206e 754d2049 0a786574 52415700     n SPI Mutex..WAR
   10540:	474e494e 4453203a 52414320 6f432044     NING: SD CARD Co
   10550:	20646c75 20746f6e 6d206562 746e756f     uld not be mount
   10560:	0a216465 43504c00 6500203a 006f6863     ed!..LPC: .echo.
   10570:	6f686345 7325203a 736c000a 766e4900     Echo: %s..ls.Inv
   10580:	64696c61 72696420 6f746365 203a7972     alid directory: 
   10590:	7c73257c 6944000a 74636572 2079726f     |%s|..Directory 
   105a0:	7473696c 20676e69 203a666f 0a0a7325     listing of: %s..
   105b0:	25632500 25632563 20632563 252f7525     .%c%c%c%c%c %u/%
   105c0:	252f7532 25207532 253a7532 25207532     2u/%2u %2u:%2u %
   105d0:	756c3031 33312520 2d200073 7325202d     10lu %13s. -- %s
   105e0:	34250a00 69462075 7328656c 25202c29     ..%4u File(s), %
   105f0:	20753031 65747962 6f742073 0a6c6174     10u bytes total.
   10600:	20753425 28726944 2c002973 30312520     %4u Dir(s)., %10
   10610:	62204b75 73657479 65726620 72000a65     uK bytes free..r
   10620:	00646165 656c6946 206f7420 64616572     ead.File to read
   10630:	257c203a 000a7c73 656c6946 63757320     : |%s|..File suc
   10640:	73736563 6c6c7566 706f2079 64656e65     cessfully opened
   10650:	6946000a 4320656c 65746e6f 3a73746e     ..File Contents:
   10660:	2d2d000a 6c696146 74206465 6572206f     ..--Failed to re
   10670:	66206461 20656c69 65746661 61682072     ad file after ha
   10680:	676e6976 20746920 6e65706f 2d2d6465     ving it opened--
   10690:	2020000a 73252020 6c694600 73692065     ..    %s.File is
   106a0:	6f6c6320 0a646573 69614600 2064656c      closed..Failed 
   106b0:	6f206f74 206e6570 20656874 656c6966     to open the file
   106c0:	7277000a 00657469 656c6946 206f7420     ..write.File to 
   106d0:	74697277 7c203a65 0a7c7325 69614600     write: |%s|..Fai
   106e0:	2064656c 77206f74 65746972 6c696620     led to write fil
   106f0:	43000a65 48534152 444e5500 50004645     e..CRASH.UNDEF.P
   10700:	524f4241 41440054 54524f42 66654400     ABORT.DABORT.Def
   10710:	20656e69 20656874 73617263 79742068     ine the crash ty
   10720:	61206570 69652073 72656874 444e5520     pe as either UND
   10730:	202c4645 4f424150 202c5452 4420726f     EF, PABORT, or D
   10740:	524f4241 70000a54 0079616c 59414c50     ABORT..play.PLAY
   10750:	706d2e00 20200033 73252020 203a2928     ..mp3.    %s(): 
   10760:	646e6553 20676e69 676e6f73 6d616e2d     Sending song-nam
   10770:	6f742065 65755120 2e206575 000a2e2e     e to Queue .....
   10780:	20202020 676e6f53 6e655320 25203a74         Song Sent: %
   10790:	000a2173 00555043 72555043 55504300     s!..CPU.CPUr.CPU
   107a0:	6544006e 6979616c 6620676e 2520726f     n.Delaying for %
   107b0:	2e736d69 50432020 73552055 20656761     ims.  CPU Usage 
   107c0:	6c6c6977 20656220 6f706572 64657472     will be reported
   107d0:	74666120 61777265 2e736472 000a2e2e      afterwards.....
   107e0:	20756f59 7473756d 66656420 20656e69     You must define 
   107f0:	65642061 2079616c 656d6974 206e6920     a delay time in 
   10800:	6c6c696d 63657369 73646e6f 20736120     milliseconds as 
   10810:	61726170 6574656d 000a2e72 6f666e69     parameter...info
   10820:	73615400 7453206b 206b6361 65746157     .Task Stack Wate
   10830:	72616d72 2820736b 736f6c43 74207265     rmarks (Closer t
   10840:	2030206f 6142203d 000a2964 6b736154     o 0 = Bad)..Task
   10850:	69252320 2025203a 000a6935 504c4548      #%i: % 5i..HELP
   10860:	6d6f4300 646e616d 73696c20 000a3a74     .Command list:..
   10870:	6f686365 6e613c20 69687479 203e676e     echo <anything> 
   10880:	2d202020 68634520 2073656f 6b636162        - Echoes back
   10890:	796e6120 6e696874 65732067 0a2e746e      anything sent..
   108a0:	20736c00 20202020 20202020 20202020     .ls             
   108b0:	20202020 6547202d 69642074 74636572         - Get direct
   108c0:	2079726f 7473696c 2e676e69 5043000a     ory listing...CP
   108d0:	20202055 20202020 20202020 20202020     U               
   108e0:	53202d20 20776f68 6b736174 6e612073      - Show tasks an
   108f0:	50432064 6c412055 61636f6c 6e6f6974     d CPU Allocation
   10900:	43000a2e 20725550 20202020 20202020     ...CPUr         
   10910:	20202020 202d2020 776f6853 73617420           - Show tas
   10920:	6120736b 4320646e 41205550 636f6c6c     ks and CPU Alloc
   10930:	6f697461 2026206e 65736572 6f632074     ation & reset co
   10940:	65746e75 000a7372 6e555043 20233c20     unters..CPUn <# 
   10950:	203e736d 20202020 2d202020 73655220     ms>        - Res
   10960:	63207465 746e756f 2c737265 6c656420     et counters, del
   10970:	202c7961 6e656874 70657220 2074726f     ay, then report 
   10980:	20555043 67617375 20262065 65736572     CPU usage & rese
   10990:	6f632074 65746e75 000a7372 6f666e69     t counters..info
   109a0:	20202020 20202020 20202020 2d202020                    -
   109b0:	6f685320 61742077 20736b73 20646e61      Show tasks and 
   109c0:	69656874 74532072 2d6b6361 68676968     their Stack-high
   109d0:	74617720 616d7265 0a2e6b72 41524300      watermark...CRA
   109e0:	3c204853 61726150 20203e6d 20202020     SH <Param>      
   109f0:	7243202d 65687361 68742073 79732065     - Crashes the sy
   10a00:	6d657473 61502820 656d6172 3a726574     stem (Parameter:
   10a10:	444e5520 202c4645 4f424150 202c5452      UNDEF, PABORT, 
   10a20:	4f424144 0a295452 6f43000a 6e616d6d     DABORT)...Comman
   10a30:	6f6e2064 65722074 6e676f63 64657a69     d not recognized
   10a40:	30000a2e 6946003a 7720656c 74746972     ...0:.File writt
   10a50:	75206e65 676e6973 54414620 46205346     en using FATFS F
   10a60:	206d6f72 6e656843 3125000a 20207336     rom Chen..%16s  
   10a70:	75303125 20202020 0d252530 3125000a     %10u    0%%...%1
   10a80:	20207336 75303125 33252020 0d252575     6s  %10u  %3u%%.
   10a90:	3125000a 20207336 75303125 3c202020     ..%16s  %10u   <
   10aa0:	0d252531 4f3c000a 48524556 3e444145     1%%...<OVERHEAD>
   10ab0:	4c444900 41480045 4e49544c 59532047     .IDLE.HALTING SY
   10ac0:	4d455453 6f59203a 73207275 65747379     STEM: Your syste
   10ad0:	6172206d 756f206e 666f2074 6d656d20     m ran out of mem
   10ae0:	2079726f 4d415228 000a2129 544c4148     ory (RAM)!..HALT
   10af0:	20474e49 54535953 203a4d45 63617453     ING SYSTEM: Stac
   10b00:	766f206b 6c667265 6220776f 61742079     k overflow by ta
   10b10:	203a6b73 000a7325 20797254 72636e69     sk: %s..Try incr
   10b20:	69736165 7320676e 6b636174 6d656d20     easing stack mem
   10b30:	2079726f 7420666f 20736968 6b736174     ory of this task
   10b40:	00000a2e 33323130 37363534 42413938     ....0123456789AB
   10b50:	46454443 00000000 33323130 37363534     CDEF....01234567
   10b60:	62613938 66656463 00000000 6c756e28     89abcdef....(nul
   10b70:	0000296c 20677562 76206e69 69727066     l)..bug in vfpri
   10b80:	3a66746e 64616220 73616220 00000065     ntf: bad base...
   10b90:	00000043                                C...

Disassembly of section .intvects:

40000000 <__intvects>:
40000000:	e59ff018 	ldr	pc, [pc, #24]	; 40000020 <_ram_reset>
40000004:	e59ff018 	ldr	pc, [pc, #24]	; 40000024 <_ram_undf>
40000008:	e59ff018 	ldr	pc, [pc, #24]	; 40000028 <_ram_swi>
4000000c:	e59ff018 	ldr	pc, [pc, #24]	; 4000002c <_ram_pabt>
40000010:	e59ff018 	ldr	pc, [pc, #24]	; 40000030 <_ram_dabt>
40000014:	e59ff018 	ldr	pc, [pc, #24]	; 40000034 <_ram_rsrvd>
40000018:	e51ffff0 	ldr	pc, [pc, #-4080]	; 3ffff030 <__data_beg_src__+0x3ffee45c>
4000001c:	e59ff018 	ldr	pc, [pc, #24]	; 4000003c <_ram_fiq>

40000020 <_ram_reset>:
40000020:	00001168 	.word	0x00001168

40000024 <_ram_undf>:
40000024:	00001038 	.word	0x00001038

40000028 <_ram_swi>:
40000028:	00001074 	.word	0x00001074

4000002c <_ram_pabt>:
4000002c:	0000104c 	.word	0x0000104c

40000030 <_ram_dabt>:
40000030:	00001060 	.word	0x00001060

40000034 <_ram_rsrvd>:
40000034:	00001168 	.word	0x00001168

40000038 <_ram_irq>:
40000038:	00000000 	.word	0x00000000

4000003c <_ram_fiq>:
4000003c:	000071b4 	.word	0x000071b4
